
OLED1.elf:     file format elf32-littlearm

Sections:
Idx Name          Size      VMA       LMA       File off  Algn
  0 .text         00007054  00400000  00400000  00010000  2**6
                  CONTENTS, ALLOC, LOAD, READONLY, CODE
  1 .ARM.exidx    00000008  00407054  00407054  00017054  2**2
                  CONTENTS, ALLOC, LOAD, READONLY, DATA
  2 .relocate     000009d0  20400000  0040705c  00020000  2**3
                  CONTENTS, ALLOC, LOAD, CODE
  3 .bss          0000038c  204009d0  00407a30  000209d0  2**3
                  ALLOC
  4 .stack        00002004  20400d5c  00407dbc  000209d0  2**0
                  ALLOC
  5 .heap         00000200  20402d60  00409dc0  000209d0  2**0
                  ALLOC
  6 .ARM.attributes 0000002e  00000000  00000000  000209d0  2**0
                  CONTENTS, READONLY
  7 .comment      00000059  00000000  00000000  000209fe  2**0
                  CONTENTS, READONLY
  8 .debug_info   00017c90  00000000  00000000  00020a57  2**0
                  CONTENTS, READONLY, DEBUGGING
  9 .debug_abbrev 00003602  00000000  00000000  000386e7  2**0
                  CONTENTS, READONLY, DEBUGGING
 10 .debug_loc    000054af  00000000  00000000  0003bce9  2**0
                  CONTENTS, READONLY, DEBUGGING
 11 .debug_aranges 00000858  00000000  00000000  00041198  2**0
                  CONTENTS, READONLY, DEBUGGING
 12 .debug_ranges 000008b8  00000000  00000000  000419f0  2**0
                  CONTENTS, READONLY, DEBUGGING
 13 .debug_macro  00020fc5  00000000  00000000  000422a8  2**0
                  CONTENTS, READONLY, DEBUGGING
 14 .debug_line   0000e462  00000000  00000000  0006326d  2**0
                  CONTENTS, READONLY, DEBUGGING
 15 .debug_str    00090098  00000000  00000000  000716cf  2**0
                  CONTENTS, READONLY, DEBUGGING
 16 .debug_frame  00001e38  00000000  00000000  00101768  2**2
                  CONTENTS, READONLY, DEBUGGING

Disassembly of section .text:

00400000 <exception_table>:
  400000:	60 2d 40 20 d1 12 40 00 cd 12 40 00 cd 12 40 00     `-@ ..@...@...@.
  400010:	cd 12 40 00 cd 12 40 00 cd 12 40 00 00 00 00 00     ..@...@...@.....
	...
  40002c:	cd 12 40 00 cd 12 40 00 00 00 00 00 cd 12 40 00     ..@...@.......@.
  40003c:	cd 12 40 00 cd 12 40 00 cd 12 40 00 cd 12 40 00     ..@...@...@...@.
  40004c:	cd 12 40 00 cd 12 40 00 cd 12 40 00 cd 12 40 00     ..@...@...@...@.
  40005c:	cd 12 40 00 cd 12 40 00 00 00 00 00 31 0e 40 00     ..@...@.....1.@.
  40006c:	45 0e 40 00 59 0e 40 00 cd 12 40 00 cd 12 40 00     E.@.Y.@...@...@.
  40007c:	cd 12 40 00 6d 0e 40 00 81 0e 40 00 cd 12 40 00     ..@.m.@...@...@.
  40008c:	cd 12 40 00 cd 12 40 00 cd 12 40 00 cd 12 40 00     ..@...@...@...@.
  40009c:	cd 12 40 00 cd 12 40 00 cd 12 40 00 cd 12 40 00     ..@...@...@...@.
  4000ac:	cd 12 40 00 cd 12 40 00 cd 12 40 00 cd 12 40 00     ..@...@...@...@.
  4000bc:	cd 12 40 00 cd 12 40 00 cd 12 40 00 cd 12 40 00     ..@...@...@...@.
  4000cc:	cd 12 40 00 00 00 00 00 cd 12 40 00 00 00 00 00     ..@.......@.....
  4000dc:	cd 12 40 00 cd 12 40 00 cd 12 40 00 cd 12 40 00     ..@...@...@...@.
  4000ec:	cd 12 40 00 cd 12 40 00 cd 12 40 00 cd 12 40 00     ..@...@...@...@.
  4000fc:	cd 12 40 00 cd 12 40 00 cd 12 40 00 cd 12 40 00     ..@...@...@...@.
  40010c:	cd 12 40 00 cd 12 40 00 00 00 00 00 00 00 00 00     ..@...@.........
  40011c:	00 00 00 00 cd 12 40 00 cd 12 40 00 cd 12 40 00     ......@...@...@.
  40012c:	cd 12 40 00 cd 12 40 00 00 00 00 00 cd 12 40 00     ..@...@.......@.
  40013c:	cd 12 40 00                                         ..@.

00400140 <__do_global_dtors_aux>:
  400140:	b510      	push	{r4, lr}
  400142:	4c05      	ldr	r4, [pc, #20]	; (400158 <__do_global_dtors_aux+0x18>)
  400144:	7823      	ldrb	r3, [r4, #0]
  400146:	b933      	cbnz	r3, 400156 <__do_global_dtors_aux+0x16>
  400148:	4b04      	ldr	r3, [pc, #16]	; (40015c <__do_global_dtors_aux+0x1c>)
  40014a:	b113      	cbz	r3, 400152 <__do_global_dtors_aux+0x12>
  40014c:	4804      	ldr	r0, [pc, #16]	; (400160 <__do_global_dtors_aux+0x20>)
  40014e:	f3af 8000 	nop.w
  400152:	2301      	movs	r3, #1
  400154:	7023      	strb	r3, [r4, #0]
  400156:	bd10      	pop	{r4, pc}
  400158:	204009d0 	.word	0x204009d0
  40015c:	00000000 	.word	0x00000000
  400160:	0040705c 	.word	0x0040705c

00400164 <frame_dummy>:
  400164:	4b0c      	ldr	r3, [pc, #48]	; (400198 <frame_dummy+0x34>)
  400166:	b143      	cbz	r3, 40017a <frame_dummy+0x16>
  400168:	480c      	ldr	r0, [pc, #48]	; (40019c <frame_dummy+0x38>)
  40016a:	490d      	ldr	r1, [pc, #52]	; (4001a0 <frame_dummy+0x3c>)
  40016c:	b510      	push	{r4, lr}
  40016e:	f3af 8000 	nop.w
  400172:	480c      	ldr	r0, [pc, #48]	; (4001a4 <frame_dummy+0x40>)
  400174:	6803      	ldr	r3, [r0, #0]
  400176:	b923      	cbnz	r3, 400182 <frame_dummy+0x1e>
  400178:	bd10      	pop	{r4, pc}
  40017a:	480a      	ldr	r0, [pc, #40]	; (4001a4 <frame_dummy+0x40>)
  40017c:	6803      	ldr	r3, [r0, #0]
  40017e:	b933      	cbnz	r3, 40018e <frame_dummy+0x2a>
  400180:	4770      	bx	lr
  400182:	4b09      	ldr	r3, [pc, #36]	; (4001a8 <frame_dummy+0x44>)
  400184:	2b00      	cmp	r3, #0
  400186:	d0f7      	beq.n	400178 <frame_dummy+0x14>
  400188:	e8bd 4010 	ldmia.w	sp!, {r4, lr}
  40018c:	4718      	bx	r3
  40018e:	4b06      	ldr	r3, [pc, #24]	; (4001a8 <frame_dummy+0x44>)
  400190:	2b00      	cmp	r3, #0
  400192:	d0f5      	beq.n	400180 <frame_dummy+0x1c>
  400194:	4718      	bx	r3
  400196:	bf00      	nop
  400198:	00000000 	.word	0x00000000
  40019c:	0040705c 	.word	0x0040705c
  4001a0:	204009d4 	.word	0x204009d4
  4001a4:	0040705c 	.word	0x0040705c
  4001a8:	00000000 	.word	0x00000000

004001ac <spi_enable_clock>:
  4001ac:	b508      	push	{r3, lr}
  4001ae:	4b07      	ldr	r3, [pc, #28]	; (4001cc <spi_enable_clock+0x20>)
  4001b0:	4298      	cmp	r0, r3
  4001b2:	d003      	beq.n	4001bc <spi_enable_clock+0x10>
  4001b4:	4b06      	ldr	r3, [pc, #24]	; (4001d0 <spi_enable_clock+0x24>)
  4001b6:	4298      	cmp	r0, r3
  4001b8:	d004      	beq.n	4001c4 <spi_enable_clock+0x18>
  4001ba:	bd08      	pop	{r3, pc}
  4001bc:	2015      	movs	r0, #21
  4001be:	4b05      	ldr	r3, [pc, #20]	; (4001d4 <spi_enable_clock+0x28>)
  4001c0:	4798      	blx	r3
  4001c2:	bd08      	pop	{r3, pc}
  4001c4:	202a      	movs	r0, #42	; 0x2a
  4001c6:	4b03      	ldr	r3, [pc, #12]	; (4001d4 <spi_enable_clock+0x28>)
  4001c8:	4798      	blx	r3
  4001ca:	e7f6      	b.n	4001ba <spi_enable_clock+0xe>
  4001cc:	40008000 	.word	0x40008000
  4001d0:	40058000 	.word	0x40058000
  4001d4:	00400fb5 	.word	0x00400fb5

004001d8 <spi_set_peripheral_chip_select_value>:
  4001d8:	6843      	ldr	r3, [r0, #4]
  4001da:	f423 2370 	bic.w	r3, r3, #983040	; 0xf0000
  4001de:	6043      	str	r3, [r0, #4]
  4001e0:	6843      	ldr	r3, [r0, #4]
  4001e2:	0409      	lsls	r1, r1, #16
  4001e4:	f401 2170 	and.w	r1, r1, #983040	; 0xf0000
  4001e8:	4319      	orrs	r1, r3
  4001ea:	6041      	str	r1, [r0, #4]
  4001ec:	4770      	bx	lr

004001ee <spi_write>:
  4001ee:	b430      	push	{r4, r5}
  4001f0:	f643 2499 	movw	r4, #15001	; 0x3a99
  4001f4:	6905      	ldr	r5, [r0, #16]
  4001f6:	f015 0f02 	tst.w	r5, #2
  4001fa:	d103      	bne.n	400204 <spi_write+0x16>
  4001fc:	3c01      	subs	r4, #1
  4001fe:	d1f9      	bne.n	4001f4 <spi_write+0x6>
  400200:	2001      	movs	r0, #1
  400202:	e00c      	b.n	40021e <spi_write+0x30>
  400204:	6844      	ldr	r4, [r0, #4]
  400206:	f014 0f02 	tst.w	r4, #2
  40020a:	d006      	beq.n	40021a <spi_write+0x2c>
  40020c:	0412      	lsls	r2, r2, #16
  40020e:	f402 2270 	and.w	r2, r2, #983040	; 0xf0000
  400212:	4311      	orrs	r1, r2
  400214:	b10b      	cbz	r3, 40021a <spi_write+0x2c>
  400216:	f041 7180 	orr.w	r1, r1, #16777216	; 0x1000000
  40021a:	60c1      	str	r1, [r0, #12]
  40021c:	2000      	movs	r0, #0
  40021e:	bc30      	pop	{r4, r5}
  400220:	4770      	bx	lr

00400222 <spi_set_clock_polarity>:
  400222:	b932      	cbnz	r2, 400232 <spi_set_clock_polarity+0x10>
  400224:	eb00 0081 	add.w	r0, r0, r1, lsl #2
  400228:	6b03      	ldr	r3, [r0, #48]	; 0x30
  40022a:	f023 0301 	bic.w	r3, r3, #1
  40022e:	6303      	str	r3, [r0, #48]	; 0x30
  400230:	4770      	bx	lr
  400232:	eb00 0081 	add.w	r0, r0, r1, lsl #2
  400236:	6b03      	ldr	r3, [r0, #48]	; 0x30
  400238:	f043 0301 	orr.w	r3, r3, #1
  40023c:	6303      	str	r3, [r0, #48]	; 0x30
  40023e:	4770      	bx	lr

00400240 <spi_set_clock_phase>:
  400240:	b932      	cbnz	r2, 400250 <spi_set_clock_phase+0x10>
  400242:	eb00 0081 	add.w	r0, r0, r1, lsl #2
  400246:	6b03      	ldr	r3, [r0, #48]	; 0x30
  400248:	f023 0302 	bic.w	r3, r3, #2
  40024c:	6303      	str	r3, [r0, #48]	; 0x30
  40024e:	4770      	bx	lr
  400250:	eb00 0081 	add.w	r0, r0, r1, lsl #2
  400254:	6b03      	ldr	r3, [r0, #48]	; 0x30
  400256:	f043 0302 	orr.w	r3, r3, #2
  40025a:	6303      	str	r3, [r0, #48]	; 0x30
  40025c:	4770      	bx	lr

0040025e <spi_configure_cs_behavior>:
  40025e:	2a04      	cmp	r2, #4
  400260:	d003      	beq.n	40026a <spi_configure_cs_behavior+0xc>
  400262:	b16a      	cbz	r2, 400280 <spi_configure_cs_behavior+0x22>
  400264:	2a08      	cmp	r2, #8
  400266:	d016      	beq.n	400296 <spi_configure_cs_behavior+0x38>
  400268:	4770      	bx	lr
  40026a:	eb00 0081 	add.w	r0, r0, r1, lsl #2
  40026e:	6b03      	ldr	r3, [r0, #48]	; 0x30
  400270:	f023 0308 	bic.w	r3, r3, #8
  400274:	6303      	str	r3, [r0, #48]	; 0x30
  400276:	6b03      	ldr	r3, [r0, #48]	; 0x30
  400278:	f043 0304 	orr.w	r3, r3, #4
  40027c:	6303      	str	r3, [r0, #48]	; 0x30
  40027e:	4770      	bx	lr
  400280:	eb00 0081 	add.w	r0, r0, r1, lsl #2
  400284:	6b03      	ldr	r3, [r0, #48]	; 0x30
  400286:	f023 0308 	bic.w	r3, r3, #8
  40028a:	6303      	str	r3, [r0, #48]	; 0x30
  40028c:	6b03      	ldr	r3, [r0, #48]	; 0x30
  40028e:	f023 0304 	bic.w	r3, r3, #4
  400292:	6303      	str	r3, [r0, #48]	; 0x30
  400294:	4770      	bx	lr
  400296:	eb00 0081 	add.w	r0, r0, r1, lsl #2
  40029a:	6b03      	ldr	r3, [r0, #48]	; 0x30
  40029c:	f043 0308 	orr.w	r3, r3, #8
  4002a0:	6303      	str	r3, [r0, #48]	; 0x30
  4002a2:	e7e1      	b.n	400268 <spi_configure_cs_behavior+0xa>

004002a4 <spi_set_bits_per_transfer>:
  4002a4:	eb00 0181 	add.w	r1, r0, r1, lsl #2
  4002a8:	6b0b      	ldr	r3, [r1, #48]	; 0x30
  4002aa:	f023 03f0 	bic.w	r3, r3, #240	; 0xf0
  4002ae:	630b      	str	r3, [r1, #48]	; 0x30
  4002b0:	6b0b      	ldr	r3, [r1, #48]	; 0x30
  4002b2:	431a      	orrs	r2, r3
  4002b4:	630a      	str	r2, [r1, #48]	; 0x30
  4002b6:	4770      	bx	lr

004002b8 <spi_calc_baudrate_div>:
  4002b8:	1e43      	subs	r3, r0, #1
  4002ba:	4419      	add	r1, r3
  4002bc:	fbb1 f0f0 	udiv	r0, r1, r0
  4002c0:	1e43      	subs	r3, r0, #1
  4002c2:	2bfe      	cmp	r3, #254	; 0xfe
  4002c4:	bf94      	ite	ls
  4002c6:	b200      	sxthls	r0, r0
  4002c8:	f04f 30ff 	movhi.w	r0, #4294967295
  4002cc:	4770      	bx	lr

004002ce <spi_set_baudrate_div>:
  4002ce:	b17a      	cbz	r2, 4002f0 <spi_set_baudrate_div+0x22>
  4002d0:	b410      	push	{r4}
  4002d2:	4614      	mov	r4, r2
  4002d4:	eb00 0181 	add.w	r1, r0, r1, lsl #2
  4002d8:	6b0b      	ldr	r3, [r1, #48]	; 0x30
  4002da:	f423 437f 	bic.w	r3, r3, #65280	; 0xff00
  4002de:	630b      	str	r3, [r1, #48]	; 0x30
  4002e0:	6b0a      	ldr	r2, [r1, #48]	; 0x30
  4002e2:	ea42 2204 	orr.w	r2, r2, r4, lsl #8
  4002e6:	630a      	str	r2, [r1, #48]	; 0x30
  4002e8:	2000      	movs	r0, #0
  4002ea:	f85d 4b04 	ldr.w	r4, [sp], #4
  4002ee:	4770      	bx	lr
  4002f0:	f04f 30ff 	mov.w	r0, #4294967295
  4002f4:	4770      	bx	lr
	...

004002f8 <gfx_mono_set_framebuffer>:
  4002f8:	4b01      	ldr	r3, [pc, #4]	; (400300 <gfx_mono_set_framebuffer+0x8>)
  4002fa:	6018      	str	r0, [r3, #0]
  4002fc:	4770      	bx	lr
  4002fe:	bf00      	nop
  400300:	204009ec 	.word	0x204009ec

00400304 <gfx_mono_framebuffer_put_byte>:
  400304:	4b02      	ldr	r3, [pc, #8]	; (400310 <gfx_mono_framebuffer_put_byte+0xc>)
  400306:	681b      	ldr	r3, [r3, #0]
  400308:	eb03 10c0 	add.w	r0, r3, r0, lsl #7
  40030c:	5442      	strb	r2, [r0, r1]
  40030e:	4770      	bx	lr
  400310:	204009ec 	.word	0x204009ec

00400314 <gfx_mono_framebuffer_get_byte>:
  400314:	4b02      	ldr	r3, [pc, #8]	; (400320 <gfx_mono_framebuffer_get_byte+0xc>)
  400316:	681b      	ldr	r3, [r3, #0]
  400318:	eb03 10c0 	add.w	r0, r3, r0, lsl #7
  40031c:	5c40      	ldrb	r0, [r0, r1]
  40031e:	4770      	bx	lr
  400320:	204009ec 	.word	0x204009ec

00400324 <gfx_mono_generic_draw_horizontal_line>:
  400324:	e92d 47f0 	stmdb	sp!, {r4, r5, r6, r7, r8, r9, sl, lr}
  400328:	1884      	adds	r4, r0, r2
  40032a:	2c80      	cmp	r4, #128	; 0x80
  40032c:	dd02      	ble.n	400334 <gfx_mono_generic_draw_horizontal_line+0x10>
  40032e:	f1c0 0480 	rsb	r4, r0, #128	; 0x80
  400332:	b2e2      	uxtb	r2, r4
  400334:	b322      	cbz	r2, 400380 <gfx_mono_generic_draw_horizontal_line+0x5c>
  400336:	08cd      	lsrs	r5, r1, #3
  400338:	eba1 01c5 	sub.w	r1, r1, r5, lsl #3
  40033c:	2601      	movs	r6, #1
  40033e:	fa06 f101 	lsl.w	r1, r6, r1
  400342:	b2ce      	uxtb	r6, r1
  400344:	2b01      	cmp	r3, #1
  400346:	d01d      	beq.n	400384 <gfx_mono_generic_draw_horizontal_line+0x60>
  400348:	2b00      	cmp	r3, #0
  40034a:	d035      	beq.n	4003b8 <gfx_mono_generic_draw_horizontal_line+0x94>
  40034c:	2b02      	cmp	r3, #2
  40034e:	d117      	bne.n	400380 <gfx_mono_generic_draw_horizontal_line+0x5c>
  400350:	3801      	subs	r0, #1
  400352:	b2c7      	uxtb	r7, r0
  400354:	19d4      	adds	r4, r2, r7
  400356:	b2e4      	uxtb	r4, r4
  400358:	f8df a090 	ldr.w	sl, [pc, #144]	; 4003ec <gfx_mono_generic_draw_horizontal_line+0xc8>
  40035c:	f04f 0900 	mov.w	r9, #0
  400360:	f8df 808c 	ldr.w	r8, [pc, #140]	; 4003f0 <gfx_mono_generic_draw_horizontal_line+0xcc>
  400364:	4621      	mov	r1, r4
  400366:	4628      	mov	r0, r5
  400368:	47d0      	blx	sl
  40036a:	ea86 0200 	eor.w	r2, r6, r0
  40036e:	464b      	mov	r3, r9
  400370:	b2d2      	uxtb	r2, r2
  400372:	4621      	mov	r1, r4
  400374:	4628      	mov	r0, r5
  400376:	47c0      	blx	r8
  400378:	3c01      	subs	r4, #1
  40037a:	b2e4      	uxtb	r4, r4
  40037c:	42bc      	cmp	r4, r7
  40037e:	d1f1      	bne.n	400364 <gfx_mono_generic_draw_horizontal_line+0x40>
  400380:	e8bd 87f0 	ldmia.w	sp!, {r4, r5, r6, r7, r8, r9, sl, pc}
  400384:	3801      	subs	r0, #1
  400386:	b2c7      	uxtb	r7, r0
  400388:	19d4      	adds	r4, r2, r7
  40038a:	b2e4      	uxtb	r4, r4
  40038c:	f8df a05c 	ldr.w	sl, [pc, #92]	; 4003ec <gfx_mono_generic_draw_horizontal_line+0xc8>
  400390:	f04f 0900 	mov.w	r9, #0
  400394:	f8df 8058 	ldr.w	r8, [pc, #88]	; 4003f0 <gfx_mono_generic_draw_horizontal_line+0xcc>
  400398:	4621      	mov	r1, r4
  40039a:	4628      	mov	r0, r5
  40039c:	47d0      	blx	sl
  40039e:	ea46 0200 	orr.w	r2, r6, r0
  4003a2:	464b      	mov	r3, r9
  4003a4:	b2d2      	uxtb	r2, r2
  4003a6:	4621      	mov	r1, r4
  4003a8:	4628      	mov	r0, r5
  4003aa:	47c0      	blx	r8
  4003ac:	3c01      	subs	r4, #1
  4003ae:	b2e4      	uxtb	r4, r4
  4003b0:	42bc      	cmp	r4, r7
  4003b2:	d1f1      	bne.n	400398 <gfx_mono_generic_draw_horizontal_line+0x74>
  4003b4:	e8bd 87f0 	ldmia.w	sp!, {r4, r5, r6, r7, r8, r9, sl, pc}
  4003b8:	3801      	subs	r0, #1
  4003ba:	b2c7      	uxtb	r7, r0
  4003bc:	19d4      	adds	r4, r2, r7
  4003be:	b2e4      	uxtb	r4, r4
  4003c0:	f8df 8028 	ldr.w	r8, [pc, #40]	; 4003ec <gfx_mono_generic_draw_horizontal_line+0xc8>
  4003c4:	43ce      	mvns	r6, r1
  4003c6:	f8df 9028 	ldr.w	r9, [pc, #40]	; 4003f0 <gfx_mono_generic_draw_horizontal_line+0xcc>
  4003ca:	4621      	mov	r1, r4
  4003cc:	4628      	mov	r0, r5
  4003ce:	47c0      	blx	r8
  4003d0:	ea06 0200 	and.w	r2, r6, r0
  4003d4:	2300      	movs	r3, #0
  4003d6:	b2d2      	uxtb	r2, r2
  4003d8:	4621      	mov	r1, r4
  4003da:	4628      	mov	r0, r5
  4003dc:	47c8      	blx	r9
  4003de:	3c01      	subs	r4, #1
  4003e0:	b2e4      	uxtb	r4, r4
  4003e2:	42bc      	cmp	r4, r7
  4003e4:	d1f1      	bne.n	4003ca <gfx_mono_generic_draw_horizontal_line+0xa6>
  4003e6:	e8bd 87f0 	ldmia.w	sp!, {r4, r5, r6, r7, r8, r9, sl, pc}
  4003ea:	bf00      	nop
  4003ec:	00400715 	.word	0x00400715
  4003f0:	00400611 	.word	0x00400611

004003f4 <gfx_mono_generic_draw_vertical_line>:
  4003f4:	2a00      	cmp	r2, #0
  4003f6:	d048      	beq.n	40048a <gfx_mono_generic_draw_vertical_line+0x96>
  4003f8:	e92d 47f0 	stmdb	sp!, {r4, r5, r6, r7, r8, r9, sl, lr}
  4003fc:	4614      	mov	r4, r2
  4003fe:	461f      	mov	r7, r3
  400400:	4606      	mov	r6, r0
  400402:	1e4a      	subs	r2, r1, #1
  400404:	4422      	add	r2, r4
  400406:	b2d2      	uxtb	r2, r2
  400408:	4291      	cmp	r1, r2
  40040a:	d031      	beq.n	400470 <gfx_mono_generic_draw_vertical_line+0x7c>
  40040c:	2a1f      	cmp	r2, #31
  40040e:	bf28      	it	cs
  400410:	221f      	movcs	r2, #31
  400412:	4615      	mov	r5, r2
  400414:	08cc      	lsrs	r4, r1, #3
  400416:	ea4f 08d2 	mov.w	r8, r2, lsr #3
  40041a:	f001 0207 	and.w	r2, r1, #7
  40041e:	23ff      	movs	r3, #255	; 0xff
  400420:	fa03 f202 	lsl.w	r2, r3, r2
  400424:	b2d2      	uxtb	r2, r2
  400426:	f005 0507 	and.w	r5, r5, #7
  40042a:	f1c5 0507 	rsb	r5, r5, #7
  40042e:	fa43 f505 	asr.w	r5, r3, r5
  400432:	b2ed      	uxtb	r5, r5
  400434:	4544      	cmp	r4, r8
  400436:	d020      	beq.n	40047a <gfx_mono_generic_draw_vertical_line+0x86>
  400438:	463b      	mov	r3, r7
  40043a:	4601      	mov	r1, r0
  40043c:	4620      	mov	r0, r4
  40043e:	f8df 904c 	ldr.w	r9, [pc, #76]	; 40048c <gfx_mono_generic_draw_vertical_line+0x98>
  400442:	47c8      	blx	r9
  400444:	3401      	adds	r4, #1
  400446:	45a0      	cmp	r8, r4
  400448:	d90a      	bls.n	400460 <gfx_mono_generic_draw_vertical_line+0x6c>
  40044a:	f04f 0aff 	mov.w	sl, #255	; 0xff
  40044e:	463b      	mov	r3, r7
  400450:	4652      	mov	r2, sl
  400452:	4631      	mov	r1, r6
  400454:	4620      	mov	r0, r4
  400456:	47c8      	blx	r9
  400458:	3401      	adds	r4, #1
  40045a:	b2e4      	uxtb	r4, r4
  40045c:	45a0      	cmp	r8, r4
  40045e:	d8f6      	bhi.n	40044e <gfx_mono_generic_draw_vertical_line+0x5a>
  400460:	463b      	mov	r3, r7
  400462:	462a      	mov	r2, r5
  400464:	4631      	mov	r1, r6
  400466:	4640      	mov	r0, r8
  400468:	4c08      	ldr	r4, [pc, #32]	; (40048c <gfx_mono_generic_draw_vertical_line+0x98>)
  40046a:	47a0      	blx	r4
  40046c:	e8bd 87f0 	ldmia.w	sp!, {r4, r5, r6, r7, r8, r9, sl, pc}
  400470:	461a      	mov	r2, r3
  400472:	4b07      	ldr	r3, [pc, #28]	; (400490 <gfx_mono_generic_draw_vertical_line+0x9c>)
  400474:	4798      	blx	r3
  400476:	e8bd 87f0 	ldmia.w	sp!, {r4, r5, r6, r7, r8, r9, sl, pc}
  40047a:	463b      	mov	r3, r7
  40047c:	402a      	ands	r2, r5
  40047e:	4601      	mov	r1, r0
  400480:	4620      	mov	r0, r4
  400482:	4c02      	ldr	r4, [pc, #8]	; (40048c <gfx_mono_generic_draw_vertical_line+0x98>)
  400484:	47a0      	blx	r4
  400486:	e8bd 87f0 	ldmia.w	sp!, {r4, r5, r6, r7, r8, r9, sl, pc}
  40048a:	4770      	bx	lr
  40048c:	00400721 	.word	0x00400721
  400490:	004006b1 	.word	0x004006b1

00400494 <gfx_mono_generic_draw_rect>:
  400494:	e92d 43f8 	stmdb	sp!, {r3, r4, r5, r6, r7, r8, r9, lr}
  400498:	4604      	mov	r4, r0
  40049a:	460f      	mov	r7, r1
  40049c:	4616      	mov	r6, r2
  40049e:	4698      	mov	r8, r3
  4004a0:	f89d 5020 	ldrb.w	r5, [sp, #32]
  4004a4:	462b      	mov	r3, r5
  4004a6:	f8df 9034 	ldr.w	r9, [pc, #52]	; 4004dc <gfx_mono_generic_draw_rect+0x48>
  4004aa:	47c8      	blx	r9
  4004ac:	f108 31ff 	add.w	r1, r8, #4294967295
  4004b0:	4439      	add	r1, r7
  4004b2:	462b      	mov	r3, r5
  4004b4:	4632      	mov	r2, r6
  4004b6:	b2c9      	uxtb	r1, r1
  4004b8:	4620      	mov	r0, r4
  4004ba:	47c8      	blx	r9
  4004bc:	462b      	mov	r3, r5
  4004be:	4642      	mov	r2, r8
  4004c0:	4639      	mov	r1, r7
  4004c2:	4620      	mov	r0, r4
  4004c4:	f8df 9018 	ldr.w	r9, [pc, #24]	; 4004e0 <gfx_mono_generic_draw_rect+0x4c>
  4004c8:	47c8      	blx	r9
  4004ca:	1e70      	subs	r0, r6, #1
  4004cc:	4420      	add	r0, r4
  4004ce:	462b      	mov	r3, r5
  4004d0:	4642      	mov	r2, r8
  4004d2:	4639      	mov	r1, r7
  4004d4:	b2c0      	uxtb	r0, r0
  4004d6:	47c8      	blx	r9
  4004d8:	e8bd 83f8 	ldmia.w	sp!, {r3, r4, r5, r6, r7, r8, r9, pc}
  4004dc:	00400325 	.word	0x00400325
  4004e0:	004003f5 	.word	0x004003f5

004004e4 <gfx_mono_generic_draw_filled_rect>:
  4004e4:	e92d 43f8 	stmdb	sp!, {r3, r4, r5, r6, r7, r8, r9, lr}
  4004e8:	f89d 7020 	ldrb.w	r7, [sp, #32]
  4004ec:	b18b      	cbz	r3, 400512 <gfx_mono_generic_draw_filled_rect+0x2e>
  4004ee:	461c      	mov	r4, r3
  4004f0:	4690      	mov	r8, r2
  4004f2:	4606      	mov	r6, r0
  4004f4:	1e4d      	subs	r5, r1, #1
  4004f6:	b2ed      	uxtb	r5, r5
  4004f8:	442c      	add	r4, r5
  4004fa:	b2e4      	uxtb	r4, r4
  4004fc:	f8df 9018 	ldr.w	r9, [pc, #24]	; 400518 <gfx_mono_generic_draw_filled_rect+0x34>
  400500:	463b      	mov	r3, r7
  400502:	4642      	mov	r2, r8
  400504:	4621      	mov	r1, r4
  400506:	4630      	mov	r0, r6
  400508:	47c8      	blx	r9
  40050a:	3c01      	subs	r4, #1
  40050c:	b2e4      	uxtb	r4, r4
  40050e:	42ac      	cmp	r4, r5
  400510:	d1f6      	bne.n	400500 <gfx_mono_generic_draw_filled_rect+0x1c>
  400512:	e8bd 83f8 	ldmia.w	sp!, {r3, r4, r5, r6, r7, r8, r9, pc}
  400516:	bf00      	nop
  400518:	00400325 	.word	0x00400325

0040051c <gfx_mono_draw_char>:
  40051c:	e92d 4ff0 	stmdb	sp!, {r4, r5, r6, r7, r8, r9, sl, fp, lr}
  400520:	b083      	sub	sp, #12
  400522:	4604      	mov	r4, r0
  400524:	4688      	mov	r8, r1
  400526:	4691      	mov	r9, r2
  400528:	469b      	mov	fp, r3
  40052a:	7a5b      	ldrb	r3, [r3, #9]
  40052c:	f89b 2008 	ldrb.w	r2, [fp, #8]
  400530:	2100      	movs	r1, #0
  400532:	9100      	str	r1, [sp, #0]
  400534:	4649      	mov	r1, r9
  400536:	4640      	mov	r0, r8
  400538:	4d21      	ldr	r5, [pc, #132]	; (4005c0 <gfx_mono_draw_char+0xa4>)
  40053a:	47a8      	blx	r5
  40053c:	f89b 3000 	ldrb.w	r3, [fp]
  400540:	b113      	cbz	r3, 400548 <gfx_mono_draw_char+0x2c>
  400542:	b003      	add	sp, #12
  400544:	e8bd 8ff0 	ldmia.w	sp!, {r4, r5, r6, r7, r8, r9, sl, fp, pc}
  400548:	f89b 2008 	ldrb.w	r2, [fp, #8]
  40054c:	08d3      	lsrs	r3, r2, #3
  40054e:	f012 0f07 	tst.w	r2, #7
  400552:	bf18      	it	ne
  400554:	3301      	addne	r3, #1
  400556:	f89b a009 	ldrb.w	sl, [fp, #9]
  40055a:	f89b 700a 	ldrb.w	r7, [fp, #10]
  40055e:	1be7      	subs	r7, r4, r7
  400560:	fb17 f70a 	smulbb	r7, r7, sl
  400564:	fb17 f703 	smulbb	r7, r7, r3
  400568:	f8db 3004 	ldr.w	r3, [fp, #4]
  40056c:	fa13 f787 	uxtah	r7, r3, r7
  400570:	e01f      	b.n	4005b2 <gfx_mono_draw_char+0x96>
  400572:	0064      	lsls	r4, r4, #1
  400574:	b2e4      	uxtb	r4, r4
  400576:	3501      	adds	r5, #1
  400578:	b2eb      	uxtb	r3, r5
  40057a:	429e      	cmp	r6, r3
  40057c:	d910      	bls.n	4005a0 <gfx_mono_draw_char+0x84>
  40057e:	b2eb      	uxtb	r3, r5
  400580:	eb08 0003 	add.w	r0, r8, r3
  400584:	b2c0      	uxtb	r0, r0
  400586:	f013 0f07 	tst.w	r3, #7
  40058a:	bf08      	it	eq
  40058c:	f817 4b01 	ldrbeq.w	r4, [r7], #1
  400590:	f014 0f80 	tst.w	r4, #128	; 0x80
  400594:	d0ed      	beq.n	400572 <gfx_mono_draw_char+0x56>
  400596:	2201      	movs	r2, #1
  400598:	4649      	mov	r1, r9
  40059a:	4b0a      	ldr	r3, [pc, #40]	; (4005c4 <gfx_mono_draw_char+0xa8>)
  40059c:	4798      	blx	r3
  40059e:	e7e8      	b.n	400572 <gfx_mono_draw_char+0x56>
  4005a0:	f109 0901 	add.w	r9, r9, #1
  4005a4:	fa5f f989 	uxtb.w	r9, r9
  4005a8:	f10a 3aff 	add.w	sl, sl, #4294967295
  4005ac:	f01a 0aff 	ands.w	sl, sl, #255	; 0xff
  4005b0:	d0c7      	beq.n	400542 <gfx_mono_draw_char+0x26>
  4005b2:	f89b 6008 	ldrb.w	r6, [fp, #8]
  4005b6:	2e00      	cmp	r6, #0
  4005b8:	d0f2      	beq.n	4005a0 <gfx_mono_draw_char+0x84>
  4005ba:	2500      	movs	r5, #0
  4005bc:	462c      	mov	r4, r5
  4005be:	e7de      	b.n	40057e <gfx_mono_draw_char+0x62>
  4005c0:	004004e5 	.word	0x004004e5
  4005c4:	004006b1 	.word	0x004006b1

004005c8 <gfx_mono_draw_string>:
  4005c8:	e92d 43f8 	stmdb	sp!, {r3, r4, r5, r6, r7, r8, r9, lr}
  4005cc:	4604      	mov	r4, r0
  4005ce:	4690      	mov	r8, r2
  4005d0:	461d      	mov	r5, r3
  4005d2:	4689      	mov	r9, r1
  4005d4:	4f0d      	ldr	r7, [pc, #52]	; (40060c <gfx_mono_draw_string+0x44>)
  4005d6:	460e      	mov	r6, r1
  4005d8:	e008      	b.n	4005ec <gfx_mono_draw_string+0x24>
  4005da:	7a6a      	ldrb	r2, [r5, #9]
  4005dc:	3201      	adds	r2, #1
  4005de:	4442      	add	r2, r8
  4005e0:	fa5f f882 	uxtb.w	r8, r2
  4005e4:	46b1      	mov	r9, r6
  4005e6:	f814 3f01 	ldrb.w	r3, [r4, #1]!
  4005ea:	b16b      	cbz	r3, 400608 <gfx_mono_draw_string+0x40>
  4005ec:	7820      	ldrb	r0, [r4, #0]
  4005ee:	280a      	cmp	r0, #10
  4005f0:	d0f3      	beq.n	4005da <gfx_mono_draw_string+0x12>
  4005f2:	280d      	cmp	r0, #13
  4005f4:	d0f7      	beq.n	4005e6 <gfx_mono_draw_string+0x1e>
  4005f6:	462b      	mov	r3, r5
  4005f8:	4642      	mov	r2, r8
  4005fa:	4649      	mov	r1, r9
  4005fc:	47b8      	blx	r7
  4005fe:	7a2b      	ldrb	r3, [r5, #8]
  400600:	4499      	add	r9, r3
  400602:	fa5f f989 	uxtb.w	r9, r9
  400606:	e7ee      	b.n	4005e6 <gfx_mono_draw_string+0x1e>
  400608:	e8bd 83f8 	ldmia.w	sp!, {r3, r4, r5, r6, r7, r8, r9, pc}
  40060c:	0040051d 	.word	0x0040051d

00400610 <gfx_mono_ssd1306_put_byte>:
  400610:	b570      	push	{r4, r5, r6, lr}
  400612:	4604      	mov	r4, r0
  400614:	460d      	mov	r5, r1
  400616:	4616      	mov	r6, r2
  400618:	b91b      	cbnz	r3, 400622 <gfx_mono_ssd1306_put_byte+0x12>
  40061a:	4b0d      	ldr	r3, [pc, #52]	; (400650 <gfx_mono_ssd1306_put_byte+0x40>)
  40061c:	4798      	blx	r3
  40061e:	42b0      	cmp	r0, r6
  400620:	d015      	beq.n	40064e <gfx_mono_ssd1306_put_byte+0x3e>
  400622:	4632      	mov	r2, r6
  400624:	4629      	mov	r1, r5
  400626:	4620      	mov	r0, r4
  400628:	4b0a      	ldr	r3, [pc, #40]	; (400654 <gfx_mono_ssd1306_put_byte+0x44>)
  40062a:	4798      	blx	r3
  40062c:	f004 000f 	and.w	r0, r4, #15
  400630:	f040 00b0 	orr.w	r0, r0, #176	; 0xb0
  400634:	4c08      	ldr	r4, [pc, #32]	; (400658 <gfx_mono_ssd1306_put_byte+0x48>)
  400636:	47a0      	blx	r4
  400638:	f3c5 1002 	ubfx	r0, r5, #4, #3
  40063c:	f040 0010 	orr.w	r0, r0, #16
  400640:	47a0      	blx	r4
  400642:	f005 000f 	and.w	r0, r5, #15
  400646:	47a0      	blx	r4
  400648:	4630      	mov	r0, r6
  40064a:	4b04      	ldr	r3, [pc, #16]	; (40065c <gfx_mono_ssd1306_put_byte+0x4c>)
  40064c:	4798      	blx	r3
  40064e:	bd70      	pop	{r4, r5, r6, pc}
  400650:	00400315 	.word	0x00400315
  400654:	00400305 	.word	0x00400305
  400658:	00400765 	.word	0x00400765
  40065c:	00400985 	.word	0x00400985

00400660 <gfx_mono_ssd1306_init>:
  400660:	e92d 41f0 	stmdb	sp!, {r4, r5, r6, r7, r8, lr}
  400664:	480d      	ldr	r0, [pc, #52]	; (40069c <gfx_mono_ssd1306_init+0x3c>)
  400666:	4b0e      	ldr	r3, [pc, #56]	; (4006a0 <gfx_mono_ssd1306_init+0x40>)
  400668:	4798      	blx	r3
  40066a:	4b0e      	ldr	r3, [pc, #56]	; (4006a4 <gfx_mono_ssd1306_init+0x44>)
  40066c:	4798      	blx	r3
  40066e:	2040      	movs	r0, #64	; 0x40
  400670:	4b0d      	ldr	r3, [pc, #52]	; (4006a8 <gfx_mono_ssd1306_init+0x48>)
  400672:	4798      	blx	r3
  400674:	2500      	movs	r5, #0
  400676:	f04f 0801 	mov.w	r8, #1
  40067a:	462f      	mov	r7, r5
  40067c:	4e0b      	ldr	r6, [pc, #44]	; (4006ac <gfx_mono_ssd1306_init+0x4c>)
  40067e:	2400      	movs	r4, #0
  400680:	4643      	mov	r3, r8
  400682:	463a      	mov	r2, r7
  400684:	b2e1      	uxtb	r1, r4
  400686:	4628      	mov	r0, r5
  400688:	47b0      	blx	r6
  40068a:	3401      	adds	r4, #1
  40068c:	2c80      	cmp	r4, #128	; 0x80
  40068e:	d1f7      	bne.n	400680 <gfx_mono_ssd1306_init+0x20>
  400690:	3501      	adds	r5, #1
  400692:	b2ed      	uxtb	r5, r5
  400694:	2d04      	cmp	r5, #4
  400696:	d1f2      	bne.n	40067e <gfx_mono_ssd1306_init+0x1e>
  400698:	e8bd 81f0 	ldmia.w	sp!, {r4, r5, r6, r7, r8, pc}
  40069c:	204009f0 	.word	0x204009f0
  4006a0:	004002f9 	.word	0x004002f9
  4006a4:	004007a5 	.word	0x004007a5
  4006a8:	00400765 	.word	0x00400765
  4006ac:	00400611 	.word	0x00400611

004006b0 <gfx_mono_ssd1306_draw_pixel>:
  4006b0:	09c3      	lsrs	r3, r0, #7
  4006b2:	d12a      	bne.n	40070a <gfx_mono_ssd1306_draw_pixel+0x5a>
  4006b4:	291f      	cmp	r1, #31
  4006b6:	d828      	bhi.n	40070a <gfx_mono_ssd1306_draw_pixel+0x5a>
  4006b8:	e92d 41f0 	stmdb	sp!, {r4, r5, r6, r7, r8, lr}
  4006bc:	4614      	mov	r4, r2
  4006be:	4605      	mov	r5, r0
  4006c0:	08ce      	lsrs	r6, r1, #3
  4006c2:	eba1 01c6 	sub.w	r1, r1, r6, lsl #3
  4006c6:	2201      	movs	r2, #1
  4006c8:	fa02 f701 	lsl.w	r7, r2, r1
  4006cc:	fa5f f887 	uxtb.w	r8, r7
  4006d0:	4601      	mov	r1, r0
  4006d2:	4630      	mov	r0, r6
  4006d4:	4b0d      	ldr	r3, [pc, #52]	; (40070c <gfx_mono_ssd1306_draw_pixel+0x5c>)
  4006d6:	4798      	blx	r3
  4006d8:	4602      	mov	r2, r0
  4006da:	2c01      	cmp	r4, #1
  4006dc:	d009      	beq.n	4006f2 <gfx_mono_ssd1306_draw_pixel+0x42>
  4006de:	b164      	cbz	r4, 4006fa <gfx_mono_ssd1306_draw_pixel+0x4a>
  4006e0:	2c02      	cmp	r4, #2
  4006e2:	d00e      	beq.n	400702 <gfx_mono_ssd1306_draw_pixel+0x52>
  4006e4:	2300      	movs	r3, #0
  4006e6:	4629      	mov	r1, r5
  4006e8:	4630      	mov	r0, r6
  4006ea:	4c09      	ldr	r4, [pc, #36]	; (400710 <gfx_mono_ssd1306_draw_pixel+0x60>)
  4006ec:	47a0      	blx	r4
  4006ee:	e8bd 81f0 	ldmia.w	sp!, {r4, r5, r6, r7, r8, pc}
  4006f2:	ea48 0200 	orr.w	r2, r8, r0
  4006f6:	b2d2      	uxtb	r2, r2
  4006f8:	e7f4      	b.n	4006e4 <gfx_mono_ssd1306_draw_pixel+0x34>
  4006fa:	ea20 0207 	bic.w	r2, r0, r7
  4006fe:	b2d2      	uxtb	r2, r2
  400700:	e7f0      	b.n	4006e4 <gfx_mono_ssd1306_draw_pixel+0x34>
  400702:	ea88 0200 	eor.w	r2, r8, r0
  400706:	b2d2      	uxtb	r2, r2
  400708:	e7ec      	b.n	4006e4 <gfx_mono_ssd1306_draw_pixel+0x34>
  40070a:	4770      	bx	lr
  40070c:	00400315 	.word	0x00400315
  400710:	00400611 	.word	0x00400611

00400714 <gfx_mono_ssd1306_get_byte>:
  400714:	b508      	push	{r3, lr}
  400716:	4b01      	ldr	r3, [pc, #4]	; (40071c <gfx_mono_ssd1306_get_byte+0x8>)
  400718:	4798      	blx	r3
  40071a:	bd08      	pop	{r3, pc}
  40071c:	00400315 	.word	0x00400315

00400720 <gfx_mono_ssd1306_mask_byte>:
  400720:	b5f8      	push	{r3, r4, r5, r6, r7, lr}
  400722:	4605      	mov	r5, r0
  400724:	460e      	mov	r6, r1
  400726:	4617      	mov	r7, r2
  400728:	461c      	mov	r4, r3
  40072a:	4b0c      	ldr	r3, [pc, #48]	; (40075c <gfx_mono_ssd1306_mask_byte+0x3c>)
  40072c:	4798      	blx	r3
  40072e:	4602      	mov	r2, r0
  400730:	2c01      	cmp	r4, #1
  400732:	d008      	beq.n	400746 <gfx_mono_ssd1306_mask_byte+0x26>
  400734:	b154      	cbz	r4, 40074c <gfx_mono_ssd1306_mask_byte+0x2c>
  400736:	2c02      	cmp	r4, #2
  400738:	d00c      	beq.n	400754 <gfx_mono_ssd1306_mask_byte+0x34>
  40073a:	2300      	movs	r3, #0
  40073c:	4631      	mov	r1, r6
  40073e:	4628      	mov	r0, r5
  400740:	4c07      	ldr	r4, [pc, #28]	; (400760 <gfx_mono_ssd1306_mask_byte+0x40>)
  400742:	47a0      	blx	r4
  400744:	bdf8      	pop	{r3, r4, r5, r6, r7, pc}
  400746:	433a      	orrs	r2, r7
  400748:	b2d2      	uxtb	r2, r2
  40074a:	e7f6      	b.n	40073a <gfx_mono_ssd1306_mask_byte+0x1a>
  40074c:	ea20 0207 	bic.w	r2, r0, r7
  400750:	b2d2      	uxtb	r2, r2
  400752:	e7f2      	b.n	40073a <gfx_mono_ssd1306_mask_byte+0x1a>
  400754:	407a      	eors	r2, r7
  400756:	b2d2      	uxtb	r2, r2
  400758:	e7ef      	b.n	40073a <gfx_mono_ssd1306_mask_byte+0x1a>
  40075a:	bf00      	nop
  40075c:	00400315 	.word	0x00400315
  400760:	00400611 	.word	0x00400611

00400764 <ssd1306_write_command>:
  400764:	b538      	push	{r3, r4, r5, lr}
  400766:	4605      	mov	r5, r0
  400768:	2208      	movs	r2, #8
  40076a:	4b09      	ldr	r3, [pc, #36]	; (400790 <ssd1306_write_command+0x2c>)
  40076c:	635a      	str	r2, [r3, #52]	; 0x34
  40076e:	4c09      	ldr	r4, [pc, #36]	; (400794 <ssd1306_write_command+0x30>)
  400770:	2101      	movs	r1, #1
  400772:	4620      	mov	r0, r4
  400774:	4b08      	ldr	r3, [pc, #32]	; (400798 <ssd1306_write_command+0x34>)
  400776:	4798      	blx	r3
  400778:	2301      	movs	r3, #1
  40077a:	461a      	mov	r2, r3
  40077c:	4629      	mov	r1, r5
  40077e:	4620      	mov	r0, r4
  400780:	4c06      	ldr	r4, [pc, #24]	; (40079c <ssd1306_write_command+0x38>)
  400782:	47a0      	blx	r4
  400784:	f44f 70fd 	mov.w	r0, #506	; 0x1fa
  400788:	4b05      	ldr	r3, [pc, #20]	; (4007a0 <ssd1306_write_command+0x3c>)
  40078a:	4798      	blx	r3
  40078c:	bd38      	pop	{r3, r4, r5, pc}
  40078e:	bf00      	nop
  400790:	400e1000 	.word	0x400e1000
  400794:	40008000 	.word	0x40008000
  400798:	004001d9 	.word	0x004001d9
  40079c:	004001ef 	.word	0x004001ef
  4007a0:	20400001 	.word	0x20400001

004007a4 <ssd1306_init>:
  4007a4:	e92d 43f8 	stmdb	sp!, {r3, r4, r5, r6, r7, r8, r9, lr}
  4007a8:	4d66      	ldr	r5, [pc, #408]	; (400944 <ssd1306_init+0x1a0>)
  4007aa:	f44f 3600 	mov.w	r6, #131072	; 0x20000
  4007ae:	612e      	str	r6, [r5, #16]
  4007b0:	f8c5 60a0 	str.w	r6, [r5, #160]	; 0xa0
  4007b4:	4b64      	ldr	r3, [pc, #400]	; (400948 <ssd1306_init+0x1a4>)
  4007b6:	2708      	movs	r7, #8
  4007b8:	611f      	str	r7, [r3, #16]
  4007ba:	f8c3 70a0 	str.w	r7, [r3, #160]	; 0xa0
  4007be:	666e      	str	r6, [r5, #100]	; 0x64
  4007c0:	f8c5 6090 	str.w	r6, [r5, #144]	; 0x90
  4007c4:	656e      	str	r6, [r5, #84]	; 0x54
  4007c6:	626e      	str	r6, [r5, #36]	; 0x24
  4007c8:	f8c5 6080 	str.w	r6, [r5, #128]	; 0x80
  4007cc:	6f2a      	ldr	r2, [r5, #112]	; 0x70
  4007ce:	f422 3200 	bic.w	r2, r2, #131072	; 0x20000
  4007d2:	672a      	str	r2, [r5, #112]	; 0x70
  4007d4:	6f6a      	ldr	r2, [r5, #116]	; 0x74
  4007d6:	f422 3200 	bic.w	r2, r2, #131072	; 0x20000
  4007da:	676a      	str	r2, [r5, #116]	; 0x74
  4007dc:	665f      	str	r7, [r3, #100]	; 0x64
  4007de:	f8c3 7090 	str.w	r7, [r3, #144]	; 0x90
  4007e2:	655f      	str	r7, [r3, #84]	; 0x54
  4007e4:	625f      	str	r7, [r3, #36]	; 0x24
  4007e6:	f8c3 7080 	str.w	r7, [r3, #128]	; 0x80
  4007ea:	6f1a      	ldr	r2, [r3, #112]	; 0x70
  4007ec:	f022 0208 	bic.w	r2, r2, #8
  4007f0:	671a      	str	r2, [r3, #112]	; 0x70
  4007f2:	6f5a      	ldr	r2, [r3, #116]	; 0x74
  4007f4:	f022 0208 	bic.w	r2, r2, #8
  4007f8:	675a      	str	r2, [r3, #116]	; 0x74
  4007fa:	601f      	str	r7, [r3, #0]
  4007fc:	602e      	str	r6, [r5, #0]
  4007fe:	631f      	str	r7, [r3, #48]	; 0x30
  400800:	632e      	str	r6, [r5, #48]	; 0x30
  400802:	f8df 817c 	ldr.w	r8, [pc, #380]	; 400980 <ssd1306_init+0x1dc>
  400806:	2300      	movs	r3, #0
  400808:	f44f 0280 	mov.w	r2, #4194304	; 0x400000
  40080c:	f04f 5180 	mov.w	r1, #268435456	; 0x10000000
  400810:	4640      	mov	r0, r8
  400812:	4c4e      	ldr	r4, [pc, #312]	; (40094c <ssd1306_init+0x1a8>)
  400814:	47a0      	blx	r4
  400816:	2300      	movs	r3, #0
  400818:	f44f 1200 	mov.w	r2, #2097152	; 0x200000
  40081c:	f04f 5180 	mov.w	r1, #268435456	; 0x10000000
  400820:	4640      	mov	r0, r8
  400822:	47a0      	blx	r4
  400824:	2300      	movs	r3, #0
  400826:	f04f 7200 	mov.w	r2, #33554432	; 0x2000000
  40082a:	f04f 5180 	mov.w	r1, #268435456	; 0x10000000
  40082e:	4640      	mov	r0, r8
  400830:	47a0      	blx	r4
  400832:	2300      	movs	r3, #0
  400834:	f44f 0280 	mov.w	r2, #4194304	; 0x400000
  400838:	f04f 5180 	mov.w	r1, #268435456	; 0x10000000
  40083c:	4640      	mov	r0, r8
  40083e:	47a0      	blx	r4
  400840:	2300      	movs	r3, #0
  400842:	f44f 1200 	mov.w	r2, #2097152	; 0x200000
  400846:	f04f 5180 	mov.w	r1, #268435456	; 0x10000000
  40084a:	4640      	mov	r0, r8
  40084c:	47a0      	blx	r4
  40084e:	2300      	movs	r3, #0
  400850:	f04f 7200 	mov.w	r2, #33554432	; 0x2000000
  400854:	f04f 5180 	mov.w	r1, #268435456	; 0x10000000
  400858:	4640      	mov	r0, r8
  40085a:	47a0      	blx	r4
  40085c:	4c3c      	ldr	r4, [pc, #240]	; (400950 <ssd1306_init+0x1ac>)
  40085e:	f04f 0902 	mov.w	r9, #2
  400862:	f8c4 9000 	str.w	r9, [r4]
  400866:	f04f 0880 	mov.w	r8, #128	; 0x80
  40086a:	f8c4 8000 	str.w	r8, [r4]
  40086e:	6863      	ldr	r3, [r4, #4]
  400870:	f043 0301 	orr.w	r3, r3, #1
  400874:	6063      	str	r3, [r4, #4]
  400876:	463a      	mov	r2, r7
  400878:	2101      	movs	r1, #1
  40087a:	4620      	mov	r0, r4
  40087c:	4b35      	ldr	r3, [pc, #212]	; (400954 <ssd1306_init+0x1b0>)
  40087e:	4798      	blx	r3
  400880:	2200      	movs	r2, #0
  400882:	2101      	movs	r1, #1
  400884:	4620      	mov	r0, r4
  400886:	4b34      	ldr	r3, [pc, #208]	; (400958 <ssd1306_init+0x1b4>)
  400888:	4798      	blx	r3
  40088a:	2200      	movs	r2, #0
  40088c:	2101      	movs	r1, #1
  40088e:	4620      	mov	r0, r4
  400890:	4b32      	ldr	r3, [pc, #200]	; (40095c <ssd1306_init+0x1b8>)
  400892:	4798      	blx	r3
  400894:	6863      	ldr	r3, [r4, #4]
  400896:	f023 0302 	bic.w	r3, r3, #2
  40089a:	6063      	str	r3, [r4, #4]
  40089c:	2200      	movs	r2, #0
  40089e:	2101      	movs	r1, #1
  4008a0:	4620      	mov	r0, r4
  4008a2:	4b2f      	ldr	r3, [pc, #188]	; (400960 <ssd1306_init+0x1bc>)
  4008a4:	4798      	blx	r3
  4008a6:	6863      	ldr	r3, [r4, #4]
  4008a8:	f023 0380 	bic.w	r3, r3, #128	; 0x80
  4008ac:	6063      	str	r3, [r4, #4]
  4008ae:	6863      	ldr	r3, [r4, #4]
  4008b0:	f043 0310 	orr.w	r3, r3, #16
  4008b4:	6063      	str	r3, [r4, #4]
  4008b6:	492b      	ldr	r1, [pc, #172]	; (400964 <ssd1306_init+0x1c0>)
  4008b8:	482b      	ldr	r0, [pc, #172]	; (400968 <ssd1306_init+0x1c4>)
  4008ba:	4b2c      	ldr	r3, [pc, #176]	; (40096c <ssd1306_init+0x1c8>)
  4008bc:	4798      	blx	r3
  4008be:	b2c2      	uxtb	r2, r0
  4008c0:	2101      	movs	r1, #1
  4008c2:	4620      	mov	r0, r4
  4008c4:	4b2a      	ldr	r3, [pc, #168]	; (400970 <ssd1306_init+0x1cc>)
  4008c6:	4798      	blx	r3
  4008c8:	4620      	mov	r0, r4
  4008ca:	4b2a      	ldr	r3, [pc, #168]	; (400974 <ssd1306_init+0x1d0>)
  4008cc:	4798      	blx	r3
  4008ce:	2301      	movs	r3, #1
  4008d0:	6023      	str	r3, [r4, #0]
  4008d2:	636e      	str	r6, [r5, #52]	; 0x34
  4008d4:	f640 30b8 	movw	r0, #3000	; 0xbb8
  4008d8:	4c27      	ldr	r4, [pc, #156]	; (400978 <ssd1306_init+0x1d4>)
  4008da:	47a0      	blx	r4
  4008dc:	632e      	str	r6, [r5, #48]	; 0x30
  4008de:	f640 30b8 	movw	r0, #3000	; 0xbb8
  4008e2:	47a0      	blx	r4
  4008e4:	632e      	str	r6, [r5, #48]	; 0x30
  4008e6:	20a8      	movs	r0, #168	; 0xa8
  4008e8:	4c24      	ldr	r4, [pc, #144]	; (40097c <ssd1306_init+0x1d8>)
  4008ea:	47a0      	blx	r4
  4008ec:	201f      	movs	r0, #31
  4008ee:	47a0      	blx	r4
  4008f0:	20d3      	movs	r0, #211	; 0xd3
  4008f2:	47a0      	blx	r4
  4008f4:	2000      	movs	r0, #0
  4008f6:	47a0      	blx	r4
  4008f8:	2040      	movs	r0, #64	; 0x40
  4008fa:	47a0      	blx	r4
  4008fc:	20a1      	movs	r0, #161	; 0xa1
  4008fe:	47a0      	blx	r4
  400900:	20c8      	movs	r0, #200	; 0xc8
  400902:	47a0      	blx	r4
  400904:	20da      	movs	r0, #218	; 0xda
  400906:	47a0      	blx	r4
  400908:	4648      	mov	r0, r9
  40090a:	47a0      	blx	r4
  40090c:	2081      	movs	r0, #129	; 0x81
  40090e:	47a0      	blx	r4
  400910:	208f      	movs	r0, #143	; 0x8f
  400912:	47a0      	blx	r4
  400914:	20a4      	movs	r0, #164	; 0xa4
  400916:	47a0      	blx	r4
  400918:	20a6      	movs	r0, #166	; 0xa6
  40091a:	47a0      	blx	r4
  40091c:	20d5      	movs	r0, #213	; 0xd5
  40091e:	47a0      	blx	r4
  400920:	4640      	mov	r0, r8
  400922:	47a0      	blx	r4
  400924:	208d      	movs	r0, #141	; 0x8d
  400926:	47a0      	blx	r4
  400928:	2014      	movs	r0, #20
  40092a:	47a0      	blx	r4
  40092c:	20db      	movs	r0, #219	; 0xdb
  40092e:	47a0      	blx	r4
  400930:	2040      	movs	r0, #64	; 0x40
  400932:	47a0      	blx	r4
  400934:	20d9      	movs	r0, #217	; 0xd9
  400936:	47a0      	blx	r4
  400938:	20f1      	movs	r0, #241	; 0xf1
  40093a:	47a0      	blx	r4
  40093c:	20af      	movs	r0, #175	; 0xaf
  40093e:	47a0      	blx	r4
  400940:	e8bd 83f8 	ldmia.w	sp!, {r3, r4, r5, r6, r7, r8, r9, pc}
  400944:	400e1200 	.word	0x400e1200
  400948:	400e1000 	.word	0x400e1000
  40094c:	00400ca1 	.word	0x00400ca1
  400950:	40008000 	.word	0x40008000
  400954:	0040025f 	.word	0x0040025f
  400958:	00400223 	.word	0x00400223
  40095c:	00400241 	.word	0x00400241
  400960:	004002a5 	.word	0x004002a5
  400964:	08f0d180 	.word	0x08f0d180
  400968:	001e8480 	.word	0x001e8480
  40096c:	004002b9 	.word	0x004002b9
  400970:	004002cf 	.word	0x004002cf
  400974:	004001ad 	.word	0x004001ad
  400978:	20400001 	.word	0x20400001
  40097c:	00400765 	.word	0x00400765
  400980:	400e1400 	.word	0x400e1400

00400984 <ssd1306_write_data>:
  400984:	b538      	push	{r3, r4, r5, lr}
  400986:	4605      	mov	r5, r0
  400988:	2208      	movs	r2, #8
  40098a:	4b09      	ldr	r3, [pc, #36]	; (4009b0 <ssd1306_write_data+0x2c>)
  40098c:	631a      	str	r2, [r3, #48]	; 0x30
  40098e:	4c09      	ldr	r4, [pc, #36]	; (4009b4 <ssd1306_write_data+0x30>)
  400990:	2101      	movs	r1, #1
  400992:	4620      	mov	r0, r4
  400994:	4b08      	ldr	r3, [pc, #32]	; (4009b8 <ssd1306_write_data+0x34>)
  400996:	4798      	blx	r3
  400998:	2301      	movs	r3, #1
  40099a:	461a      	mov	r2, r3
  40099c:	4629      	mov	r1, r5
  40099e:	4620      	mov	r0, r4
  4009a0:	4c06      	ldr	r4, [pc, #24]	; (4009bc <ssd1306_write_data+0x38>)
  4009a2:	47a0      	blx	r4
  4009a4:	f44f 70fd 	mov.w	r0, #506	; 0x1fa
  4009a8:	4b05      	ldr	r3, [pc, #20]	; (4009c0 <ssd1306_write_data+0x3c>)
  4009aa:	4798      	blx	r3
  4009ac:	bd38      	pop	{r3, r4, r5, pc}
  4009ae:	bf00      	nop
  4009b0:	400e1000 	.word	0x400e1000
  4009b4:	40008000 	.word	0x40008000
  4009b8:	004001d9 	.word	0x004001d9
  4009bc:	004001ef 	.word	0x004001ef
  4009c0:	20400001 	.word	0x20400001

004009c4 <sysclk_init>:
  4009c4:	b510      	push	{r4, lr}
  4009c6:	4810      	ldr	r0, [pc, #64]	; (400a08 <sysclk_init+0x44>)
  4009c8:	4b10      	ldr	r3, [pc, #64]	; (400a0c <sysclk_init+0x48>)
  4009ca:	4798      	blx	r3
  4009cc:	213e      	movs	r1, #62	; 0x3e
  4009ce:	2000      	movs	r0, #0
  4009d0:	4b0f      	ldr	r3, [pc, #60]	; (400a10 <sysclk_init+0x4c>)
  4009d2:	4798      	blx	r3
  4009d4:	4c0f      	ldr	r4, [pc, #60]	; (400a14 <sysclk_init+0x50>)
  4009d6:	47a0      	blx	r4
  4009d8:	2800      	cmp	r0, #0
  4009da:	d0fc      	beq.n	4009d6 <sysclk_init+0x12>
  4009dc:	4b0e      	ldr	r3, [pc, #56]	; (400a18 <sysclk_init+0x54>)
  4009de:	4798      	blx	r3
  4009e0:	4a0e      	ldr	r2, [pc, #56]	; (400a1c <sysclk_init+0x58>)
  4009e2:	4b0f      	ldr	r3, [pc, #60]	; (400a20 <sysclk_init+0x5c>)
  4009e4:	629a      	str	r2, [r3, #40]	; 0x28
  4009e6:	4c0f      	ldr	r4, [pc, #60]	; (400a24 <sysclk_init+0x60>)
  4009e8:	47a0      	blx	r4
  4009ea:	2800      	cmp	r0, #0
  4009ec:	d0fc      	beq.n	4009e8 <sysclk_init+0x24>
  4009ee:	2002      	movs	r0, #2
  4009f0:	4b0d      	ldr	r3, [pc, #52]	; (400a28 <sysclk_init+0x64>)
  4009f2:	4798      	blx	r3
  4009f4:	2000      	movs	r0, #0
  4009f6:	4b0d      	ldr	r3, [pc, #52]	; (400a2c <sysclk_init+0x68>)
  4009f8:	4798      	blx	r3
  4009fa:	4b0d      	ldr	r3, [pc, #52]	; (400a30 <sysclk_init+0x6c>)
  4009fc:	4798      	blx	r3
  4009fe:	4802      	ldr	r0, [pc, #8]	; (400a08 <sysclk_init+0x44>)
  400a00:	4b02      	ldr	r3, [pc, #8]	; (400a0c <sysclk_init+0x48>)
  400a02:	4798      	blx	r3
  400a04:	bd10      	pop	{r4, pc}
  400a06:	bf00      	nop
  400a08:	11e1a300 	.word	0x11e1a300
  400a0c:	004014a5 	.word	0x004014a5
  400a10:	00400f31 	.word	0x00400f31
  400a14:	00400f85 	.word	0x00400f85
  400a18:	00400f95 	.word	0x00400f95
  400a1c:	20183f01 	.word	0x20183f01
  400a20:	400e0600 	.word	0x400e0600
  400a24:	00400fa5 	.word	0x00400fa5
  400a28:	00400e95 	.word	0x00400e95
  400a2c:	00400ecd 	.word	0x00400ecd
  400a30:	00401399 	.word	0x00401399

00400a34 <board_init>:
  400a34:	b5f8      	push	{r3, r4, r5, r6, r7, lr}
  400a36:	f44f 4200 	mov.w	r2, #32768	; 0x8000
  400a3a:	4b48      	ldr	r3, [pc, #288]	; (400b5c <board_init+0x128>)
  400a3c:	605a      	str	r2, [r3, #4]
  400a3e:	f3bf 8f4f 	dsb	sy
  400a42:	f3bf 8f6f 	isb	sy
  400a46:	4b46      	ldr	r3, [pc, #280]	; (400b60 <board_init+0x12c>)
  400a48:	2200      	movs	r2, #0
  400a4a:	f8c3 2250 	str.w	r2, [r3, #592]	; 0x250
  400a4e:	695a      	ldr	r2, [r3, #20]
  400a50:	f442 3200 	orr.w	r2, r2, #131072	; 0x20000
  400a54:	615a      	str	r2, [r3, #20]
  400a56:	f3bf 8f4f 	dsb	sy
  400a5a:	f3bf 8f6f 	isb	sy
  400a5e:	f8d3 7080 	ldr.w	r7, [r3, #128]	; 0x80
  400a62:	f3c7 364e 	ubfx	r6, r7, #13, #15
  400a66:	f007 0007 	and.w	r0, r7, #7
  400a6a:	3004      	adds	r0, #4
  400a6c:	f3c7 07c9 	ubfx	r7, r7, #3, #10
  400a70:	fab7 fe87 	clz	lr, r7
  400a74:	f00e 0e1f 	and.w	lr, lr, #31
  400a78:	f3bf 8f4f 	dsb	sy
  400a7c:	f04f 34ff 	mov.w	r4, #4294967295
  400a80:	fa04 fc00 	lsl.w	ip, r4, r0
  400a84:	fa06 f000 	lsl.w	r0, r6, r0
  400a88:	fa04 f40e 	lsl.w	r4, r4, lr
  400a8c:	fa07 fe0e 	lsl.w	lr, r7, lr
  400a90:	461d      	mov	r5, r3
  400a92:	463a      	mov	r2, r7
  400a94:	4673      	mov	r3, lr
  400a96:	ea40 0103 	orr.w	r1, r0, r3
  400a9a:	f8c5 1260 	str.w	r1, [r5, #608]	; 0x260
  400a9e:	3a01      	subs	r2, #1
  400aa0:	4423      	add	r3, r4
  400aa2:	f1b2 3fff 	cmp.w	r2, #4294967295
  400aa6:	d1f6      	bne.n	400a96 <board_init+0x62>
  400aa8:	3e01      	subs	r6, #1
  400aaa:	4460      	add	r0, ip
  400aac:	f1b6 3fff 	cmp.w	r6, #4294967295
  400ab0:	d1ef      	bne.n	400a92 <board_init+0x5e>
  400ab2:	f3bf 8f4f 	dsb	sy
  400ab6:	4b2a      	ldr	r3, [pc, #168]	; (400b60 <board_init+0x12c>)
  400ab8:	695a      	ldr	r2, [r3, #20]
  400aba:	f442 3280 	orr.w	r2, r2, #65536	; 0x10000
  400abe:	615a      	str	r2, [r3, #20]
  400ac0:	f3bf 8f4f 	dsb	sy
  400ac4:	f3bf 8f6f 	isb	sy
  400ac8:	4a26      	ldr	r2, [pc, #152]	; (400b64 <board_init+0x130>)
  400aca:	4927      	ldr	r1, [pc, #156]	; (400b68 <board_init+0x134>)
  400acc:	6051      	str	r1, [r2, #4]
  400ace:	f5a1 7180 	sub.w	r1, r1, #256	; 0x100
  400ad2:	6051      	str	r1, [r2, #4]
  400ad4:	f3bf 8f4f 	dsb	sy
  400ad8:	f3bf 8f6f 	isb	sy
  400adc:	f8d3 2290 	ldr.w	r2, [r3, #656]	; 0x290
  400ae0:	f022 0201 	bic.w	r2, r2, #1
  400ae4:	f8c3 2290 	str.w	r2, [r3, #656]	; 0x290
  400ae8:	f8d3 2294 	ldr.w	r2, [r3, #660]	; 0x294
  400aec:	f022 0201 	bic.w	r2, r2, #1
  400af0:	f8c3 2294 	str.w	r2, [r3, #660]	; 0x294
  400af4:	f3bf 8f4f 	dsb	sy
  400af8:	f3bf 8f6f 	isb	sy
  400afc:	200a      	movs	r0, #10
  400afe:	4c1b      	ldr	r4, [pc, #108]	; (400b6c <board_init+0x138>)
  400b00:	47a0      	blx	r4
  400b02:	200b      	movs	r0, #11
  400b04:	47a0      	blx	r4
  400b06:	200c      	movs	r0, #12
  400b08:	47a0      	blx	r4
  400b0a:	2010      	movs	r0, #16
  400b0c:	47a0      	blx	r4
  400b0e:	2011      	movs	r0, #17
  400b10:	47a0      	blx	r4
  400b12:	4b17      	ldr	r3, [pc, #92]	; (400b70 <board_init+0x13c>)
  400b14:	f44f 7280 	mov.w	r2, #256	; 0x100
  400b18:	611a      	str	r2, [r3, #16]
  400b1a:	f8c3 20a0 	str.w	r2, [r3, #160]	; 0xa0
  400b1e:	631a      	str	r2, [r3, #48]	; 0x30
  400b20:	f5a3 6380 	sub.w	r3, r3, #1024	; 0x400
  400b24:	f44f 6200 	mov.w	r2, #2048	; 0x800
  400b28:	615a      	str	r2, [r3, #20]
  400b2a:	f8c3 20a0 	str.w	r2, [r3, #160]	; 0xa0
  400b2e:	665a      	str	r2, [r3, #100]	; 0x64
  400b30:	f8c3 2090 	str.w	r2, [r3, #144]	; 0x90
  400b34:	655a      	str	r2, [r3, #84]	; 0x54
  400b36:	621a      	str	r2, [r3, #32]
  400b38:	f8c3 2084 	str.w	r2, [r3, #132]	; 0x84
  400b3c:	6f19      	ldr	r1, [r3, #112]	; 0x70
  400b3e:	f421 6100 	bic.w	r1, r1, #2048	; 0x800
  400b42:	6719      	str	r1, [r3, #112]	; 0x70
  400b44:	6f59      	ldr	r1, [r3, #116]	; 0x74
  400b46:	f421 6100 	bic.w	r1, r1, #2048	; 0x800
  400b4a:	6759      	str	r1, [r3, #116]	; 0x74
  400b4c:	f8c3 20c0 	str.w	r2, [r3, #192]	; 0xc0
  400b50:	f8c3 20d4 	str.w	r2, [r3, #212]	; 0xd4
  400b54:	f8c3 20b0 	str.w	r2, [r3, #176]	; 0xb0
  400b58:	bdf8      	pop	{r3, r4, r5, r6, r7, pc}
  400b5a:	bf00      	nop
  400b5c:	400e1850 	.word	0x400e1850
  400b60:	e000ed00 	.word	0xe000ed00
  400b64:	400e0c00 	.word	0x400e0c00
  400b68:	5a00080c 	.word	0x5a00080c
  400b6c:	00400fb5 	.word	0x00400fb5
  400b70:	400e1200 	.word	0x400e1200

00400b74 <pio_set_debounce_filter>:
  400b74:	f8c0 1084 	str.w	r1, [r0, #132]	; 0x84
  400b78:	0053      	lsls	r3, r2, #1
  400b7a:	f44f 4200 	mov.w	r2, #32768	; 0x8000
  400b7e:	fbb2 f2f3 	udiv	r2, r2, r3
  400b82:	3a01      	subs	r2, #1
  400b84:	f3c2 020d 	ubfx	r2, r2, #0, #14
  400b88:	f8c0 208c 	str.w	r2, [r0, #140]	; 0x8c
  400b8c:	4770      	bx	lr

00400b8e <pio_set>:
  400b8e:	6301      	str	r1, [r0, #48]	; 0x30
  400b90:	4770      	bx	lr

00400b92 <pio_clear>:
  400b92:	6341      	str	r1, [r0, #52]	; 0x34
  400b94:	4770      	bx	lr

00400b96 <pio_get>:
  400b96:	f021 6100 	bic.w	r1, r1, #134217728	; 0x8000000
  400b9a:	f1b1 5f40 	cmp.w	r1, #805306368	; 0x30000000
  400b9e:	d105      	bne.n	400bac <pio_get+0x16>
  400ba0:	6b83      	ldr	r3, [r0, #56]	; 0x38
  400ba2:	4213      	tst	r3, r2
  400ba4:	bf14      	ite	ne
  400ba6:	2001      	movne	r0, #1
  400ba8:	2000      	moveq	r0, #0
  400baa:	4770      	bx	lr
  400bac:	6bc3      	ldr	r3, [r0, #60]	; 0x3c
  400bae:	e7f8      	b.n	400ba2 <pio_get+0xc>

00400bb0 <pio_set_peripheral>:
  400bb0:	6442      	str	r2, [r0, #68]	; 0x44
  400bb2:	f1b1 5fc0 	cmp.w	r1, #402653184	; 0x18000000
  400bb6:	d03a      	beq.n	400c2e <pio_set_peripheral+0x7e>
  400bb8:	d813      	bhi.n	400be2 <pio_set_peripheral+0x32>
  400bba:	f1b1 6f00 	cmp.w	r1, #134217728	; 0x8000000
  400bbe:	d025      	beq.n	400c0c <pio_set_peripheral+0x5c>
  400bc0:	f1b1 5f80 	cmp.w	r1, #268435456	; 0x10000000
  400bc4:	d10a      	bne.n	400bdc <pio_set_peripheral+0x2c>
  400bc6:	6f03      	ldr	r3, [r0, #112]	; 0x70
  400bc8:	4313      	orrs	r3, r2
  400bca:	6703      	str	r3, [r0, #112]	; 0x70
  400bcc:	6f43      	ldr	r3, [r0, #116]	; 0x74
  400bce:	6f41      	ldr	r1, [r0, #116]	; 0x74
  400bd0:	400b      	ands	r3, r1
  400bd2:	ea23 0302 	bic.w	r3, r3, r2
  400bd6:	6743      	str	r3, [r0, #116]	; 0x74
  400bd8:	6042      	str	r2, [r0, #4]
  400bda:	4770      	bx	lr
  400bdc:	2900      	cmp	r1, #0
  400bde:	d1fb      	bne.n	400bd8 <pio_set_peripheral+0x28>
  400be0:	4770      	bx	lr
  400be2:	f1b1 5f20 	cmp.w	r1, #671088640	; 0x28000000
  400be6:	d021      	beq.n	400c2c <pio_set_peripheral+0x7c>
  400be8:	d809      	bhi.n	400bfe <pio_set_peripheral+0x4e>
  400bea:	f1b1 5f00 	cmp.w	r1, #536870912	; 0x20000000
  400bee:	d1f3      	bne.n	400bd8 <pio_set_peripheral+0x28>
  400bf0:	6f03      	ldr	r3, [r0, #112]	; 0x70
  400bf2:	4313      	orrs	r3, r2
  400bf4:	6703      	str	r3, [r0, #112]	; 0x70
  400bf6:	6f43      	ldr	r3, [r0, #116]	; 0x74
  400bf8:	4313      	orrs	r3, r2
  400bfa:	6743      	str	r3, [r0, #116]	; 0x74
  400bfc:	e7ec      	b.n	400bd8 <pio_set_peripheral+0x28>
  400bfe:	f1b1 5f40 	cmp.w	r1, #805306368	; 0x30000000
  400c02:	d013      	beq.n	400c2c <pio_set_peripheral+0x7c>
  400c04:	f1b1 5f60 	cmp.w	r1, #939524096	; 0x38000000
  400c08:	d010      	beq.n	400c2c <pio_set_peripheral+0x7c>
  400c0a:	e7e5      	b.n	400bd8 <pio_set_peripheral+0x28>
  400c0c:	b410      	push	{r4}
  400c0e:	6f01      	ldr	r1, [r0, #112]	; 0x70
  400c10:	6f04      	ldr	r4, [r0, #112]	; 0x70
  400c12:	43d3      	mvns	r3, r2
  400c14:	4021      	ands	r1, r4
  400c16:	461c      	mov	r4, r3
  400c18:	4019      	ands	r1, r3
  400c1a:	6701      	str	r1, [r0, #112]	; 0x70
  400c1c:	6f43      	ldr	r3, [r0, #116]	; 0x74
  400c1e:	6f41      	ldr	r1, [r0, #116]	; 0x74
  400c20:	400b      	ands	r3, r1
  400c22:	4023      	ands	r3, r4
  400c24:	6743      	str	r3, [r0, #116]	; 0x74
  400c26:	6042      	str	r2, [r0, #4]
  400c28:	f85d 4b04 	ldr.w	r4, [sp], #4
  400c2c:	4770      	bx	lr
  400c2e:	6f03      	ldr	r3, [r0, #112]	; 0x70
  400c30:	6f01      	ldr	r1, [r0, #112]	; 0x70
  400c32:	400b      	ands	r3, r1
  400c34:	ea23 0302 	bic.w	r3, r3, r2
  400c38:	6703      	str	r3, [r0, #112]	; 0x70
  400c3a:	6f43      	ldr	r3, [r0, #116]	; 0x74
  400c3c:	4313      	orrs	r3, r2
  400c3e:	6743      	str	r3, [r0, #116]	; 0x74
  400c40:	e7ca      	b.n	400bd8 <pio_set_peripheral+0x28>

00400c42 <pio_set_input>:
  400c42:	6441      	str	r1, [r0, #68]	; 0x44
  400c44:	f012 0f01 	tst.w	r2, #1
  400c48:	d10d      	bne.n	400c66 <pio_set_input+0x24>
  400c4a:	6601      	str	r1, [r0, #96]	; 0x60
  400c4c:	f012 0f0a 	tst.w	r2, #10
  400c50:	d00b      	beq.n	400c6a <pio_set_input+0x28>
  400c52:	6201      	str	r1, [r0, #32]
  400c54:	f012 0f02 	tst.w	r2, #2
  400c58:	d109      	bne.n	400c6e <pio_set_input+0x2c>
  400c5a:	f012 0f08 	tst.w	r2, #8
  400c5e:	d008      	beq.n	400c72 <pio_set_input+0x30>
  400c60:	f8c0 1084 	str.w	r1, [r0, #132]	; 0x84
  400c64:	e005      	b.n	400c72 <pio_set_input+0x30>
  400c66:	6641      	str	r1, [r0, #100]	; 0x64
  400c68:	e7f0      	b.n	400c4c <pio_set_input+0xa>
  400c6a:	6241      	str	r1, [r0, #36]	; 0x24
  400c6c:	e7f2      	b.n	400c54 <pio_set_input+0x12>
  400c6e:	f8c0 1080 	str.w	r1, [r0, #128]	; 0x80
  400c72:	6141      	str	r1, [r0, #20]
  400c74:	6001      	str	r1, [r0, #0]
  400c76:	4770      	bx	lr

00400c78 <pio_set_output>:
  400c78:	b410      	push	{r4}
  400c7a:	9c01      	ldr	r4, [sp, #4]
  400c7c:	6441      	str	r1, [r0, #68]	; 0x44
  400c7e:	b94c      	cbnz	r4, 400c94 <pio_set_output+0x1c>
  400c80:	6601      	str	r1, [r0, #96]	; 0x60
  400c82:	b14b      	cbz	r3, 400c98 <pio_set_output+0x20>
  400c84:	6501      	str	r1, [r0, #80]	; 0x50
  400c86:	b94a      	cbnz	r2, 400c9c <pio_set_output+0x24>
  400c88:	6341      	str	r1, [r0, #52]	; 0x34
  400c8a:	6101      	str	r1, [r0, #16]
  400c8c:	6001      	str	r1, [r0, #0]
  400c8e:	f85d 4b04 	ldr.w	r4, [sp], #4
  400c92:	4770      	bx	lr
  400c94:	6641      	str	r1, [r0, #100]	; 0x64
  400c96:	e7f4      	b.n	400c82 <pio_set_output+0xa>
  400c98:	6541      	str	r1, [r0, #84]	; 0x54
  400c9a:	e7f4      	b.n	400c86 <pio_set_output+0xe>
  400c9c:	6301      	str	r1, [r0, #48]	; 0x30
  400c9e:	e7f4      	b.n	400c8a <pio_set_output+0x12>

00400ca0 <pio_configure>:
  400ca0:	b570      	push	{r4, r5, r6, lr}
  400ca2:	b082      	sub	sp, #8
  400ca4:	4605      	mov	r5, r0
  400ca6:	4616      	mov	r6, r2
  400ca8:	461c      	mov	r4, r3
  400caa:	f1b1 5f00 	cmp.w	r1, #536870912	; 0x20000000
  400cae:	d014      	beq.n	400cda <pio_configure+0x3a>
  400cb0:	d90a      	bls.n	400cc8 <pio_configure+0x28>
  400cb2:	f1b1 5f40 	cmp.w	r1, #805306368	; 0x30000000
  400cb6:	d024      	beq.n	400d02 <pio_configure+0x62>
  400cb8:	f1b1 5f60 	cmp.w	r1, #939524096	; 0x38000000
  400cbc:	d021      	beq.n	400d02 <pio_configure+0x62>
  400cbe:	f1b1 5f20 	cmp.w	r1, #671088640	; 0x28000000
  400cc2:	d017      	beq.n	400cf4 <pio_configure+0x54>
  400cc4:	2000      	movs	r0, #0
  400cc6:	e01a      	b.n	400cfe <pio_configure+0x5e>
  400cc8:	f1b1 5f80 	cmp.w	r1, #268435456	; 0x10000000
  400ccc:	d005      	beq.n	400cda <pio_configure+0x3a>
  400cce:	f1b1 5fc0 	cmp.w	r1, #402653184	; 0x18000000
  400cd2:	d002      	beq.n	400cda <pio_configure+0x3a>
  400cd4:	f1b1 6f00 	cmp.w	r1, #134217728	; 0x8000000
  400cd8:	d1f4      	bne.n	400cc4 <pio_configure+0x24>
  400cda:	4632      	mov	r2, r6
  400cdc:	4628      	mov	r0, r5
  400cde:	4b11      	ldr	r3, [pc, #68]	; (400d24 <pio_configure+0x84>)
  400ce0:	4798      	blx	r3
  400ce2:	f014 0f01 	tst.w	r4, #1
  400ce6:	d102      	bne.n	400cee <pio_configure+0x4e>
  400ce8:	662e      	str	r6, [r5, #96]	; 0x60
  400cea:	2001      	movs	r0, #1
  400cec:	e007      	b.n	400cfe <pio_configure+0x5e>
  400cee:	666e      	str	r6, [r5, #100]	; 0x64
  400cf0:	2001      	movs	r0, #1
  400cf2:	e004      	b.n	400cfe <pio_configure+0x5e>
  400cf4:	461a      	mov	r2, r3
  400cf6:	4631      	mov	r1, r6
  400cf8:	4b0b      	ldr	r3, [pc, #44]	; (400d28 <pio_configure+0x88>)
  400cfa:	4798      	blx	r3
  400cfc:	2001      	movs	r0, #1
  400cfe:	b002      	add	sp, #8
  400d00:	bd70      	pop	{r4, r5, r6, pc}
  400d02:	f004 0301 	and.w	r3, r4, #1
  400d06:	9300      	str	r3, [sp, #0]
  400d08:	f3c4 0380 	ubfx	r3, r4, #2, #1
  400d0c:	f1b1 5f60 	cmp.w	r1, #939524096	; 0x38000000
  400d10:	bf14      	ite	ne
  400d12:	2200      	movne	r2, #0
  400d14:	2201      	moveq	r2, #1
  400d16:	4631      	mov	r1, r6
  400d18:	4628      	mov	r0, r5
  400d1a:	4c04      	ldr	r4, [pc, #16]	; (400d2c <pio_configure+0x8c>)
  400d1c:	47a0      	blx	r4
  400d1e:	2001      	movs	r0, #1
  400d20:	e7ed      	b.n	400cfe <pio_configure+0x5e>
  400d22:	bf00      	nop
  400d24:	00400bb1 	.word	0x00400bb1
  400d28:	00400c43 	.word	0x00400c43
  400d2c:	00400c79 	.word	0x00400c79

00400d30 <pio_configure_interrupt>:
  400d30:	f012 0f10 	tst.w	r2, #16
  400d34:	d012      	beq.n	400d5c <pio_configure_interrupt+0x2c>
  400d36:	f8c0 10b0 	str.w	r1, [r0, #176]	; 0xb0
  400d3a:	f012 0f20 	tst.w	r2, #32
  400d3e:	d007      	beq.n	400d50 <pio_configure_interrupt+0x20>
  400d40:	f8c0 10d4 	str.w	r1, [r0, #212]	; 0xd4
  400d44:	f012 0f40 	tst.w	r2, #64	; 0x40
  400d48:	d005      	beq.n	400d56 <pio_configure_interrupt+0x26>
  400d4a:	f8c0 10c0 	str.w	r1, [r0, #192]	; 0xc0
  400d4e:	4770      	bx	lr
  400d50:	f8c0 10d0 	str.w	r1, [r0, #208]	; 0xd0
  400d54:	e7f6      	b.n	400d44 <pio_configure_interrupt+0x14>
  400d56:	f8c0 10c4 	str.w	r1, [r0, #196]	; 0xc4
  400d5a:	4770      	bx	lr
  400d5c:	f8c0 10b4 	str.w	r1, [r0, #180]	; 0xb4
  400d60:	4770      	bx	lr

00400d62 <pio_enable_interrupt>:
  400d62:	6401      	str	r1, [r0, #64]	; 0x40
  400d64:	4770      	bx	lr

00400d66 <pio_get_interrupt_status>:
  400d66:	6cc0      	ldr	r0, [r0, #76]	; 0x4c
  400d68:	4770      	bx	lr

00400d6a <pio_get_interrupt_mask>:
  400d6a:	6c80      	ldr	r0, [r0, #72]	; 0x48
  400d6c:	4770      	bx	lr
	...

00400d70 <pio_handler_process>:
  400d70:	e92d 41f0 	stmdb	sp!, {r4, r5, r6, r7, r8, lr}
  400d74:	4604      	mov	r4, r0
  400d76:	4688      	mov	r8, r1
  400d78:	4b0e      	ldr	r3, [pc, #56]	; (400db4 <pio_handler_process+0x44>)
  400d7a:	4798      	blx	r3
  400d7c:	4605      	mov	r5, r0
  400d7e:	4620      	mov	r0, r4
  400d80:	4b0d      	ldr	r3, [pc, #52]	; (400db8 <pio_handler_process+0x48>)
  400d82:	4798      	blx	r3
  400d84:	4005      	ands	r5, r0
  400d86:	d013      	beq.n	400db0 <pio_handler_process+0x40>
  400d88:	4c0c      	ldr	r4, [pc, #48]	; (400dbc <pio_handler_process+0x4c>)
  400d8a:	f104 0660 	add.w	r6, r4, #96	; 0x60
  400d8e:	e003      	b.n	400d98 <pio_handler_process+0x28>
  400d90:	42b4      	cmp	r4, r6
  400d92:	d00d      	beq.n	400db0 <pio_handler_process+0x40>
  400d94:	3410      	adds	r4, #16
  400d96:	b15d      	cbz	r5, 400db0 <pio_handler_process+0x40>
  400d98:	6820      	ldr	r0, [r4, #0]
  400d9a:	4540      	cmp	r0, r8
  400d9c:	d1f8      	bne.n	400d90 <pio_handler_process+0x20>
  400d9e:	6861      	ldr	r1, [r4, #4]
  400da0:	4229      	tst	r1, r5
  400da2:	d0f5      	beq.n	400d90 <pio_handler_process+0x20>
  400da4:	68e3      	ldr	r3, [r4, #12]
  400da6:	4798      	blx	r3
  400da8:	6863      	ldr	r3, [r4, #4]
  400daa:	ea25 0503 	bic.w	r5, r5, r3
  400dae:	e7ef      	b.n	400d90 <pio_handler_process+0x20>
  400db0:	e8bd 81f0 	ldmia.w	sp!, {r4, r5, r6, r7, r8, pc}
  400db4:	00400d67 	.word	0x00400d67
  400db8:	00400d6b 	.word	0x00400d6b
  400dbc:	20400bf0 	.word	0x20400bf0

00400dc0 <pio_handler_set>:
  400dc0:	b5f8      	push	{r3, r4, r5, r6, r7, lr}
  400dc2:	4c18      	ldr	r4, [pc, #96]	; (400e24 <pio_handler_set+0x64>)
  400dc4:	6826      	ldr	r6, [r4, #0]
  400dc6:	2e06      	cmp	r6, #6
  400dc8:	d82a      	bhi.n	400e20 <pio_handler_set+0x60>
  400dca:	f04f 0c00 	mov.w	ip, #0
  400dce:	4664      	mov	r4, ip
  400dd0:	4f15      	ldr	r7, [pc, #84]	; (400e28 <pio_handler_set+0x68>)
  400dd2:	e004      	b.n	400dde <pio_handler_set+0x1e>
  400dd4:	3401      	adds	r4, #1
  400dd6:	b2e4      	uxtb	r4, r4
  400dd8:	46a4      	mov	ip, r4
  400dda:	42a6      	cmp	r6, r4
  400ddc:	d309      	bcc.n	400df2 <pio_handler_set+0x32>
  400dde:	46a6      	mov	lr, r4
  400de0:	0125      	lsls	r5, r4, #4
  400de2:	597d      	ldr	r5, [r7, r5]
  400de4:	428d      	cmp	r5, r1
  400de6:	d1f5      	bne.n	400dd4 <pio_handler_set+0x14>
  400de8:	eb07 1504 	add.w	r5, r7, r4, lsl #4
  400dec:	686d      	ldr	r5, [r5, #4]
  400dee:	4295      	cmp	r5, r2
  400df0:	d1f0      	bne.n	400dd4 <pio_handler_set+0x14>
  400df2:	4d0d      	ldr	r5, [pc, #52]	; (400e28 <pio_handler_set+0x68>)
  400df4:	ea4f 1e0e 	mov.w	lr, lr, lsl #4
  400df8:	eb05 040e 	add.w	r4, r5, lr
  400dfc:	f845 100e 	str.w	r1, [r5, lr]
  400e00:	6062      	str	r2, [r4, #4]
  400e02:	60a3      	str	r3, [r4, #8]
  400e04:	9906      	ldr	r1, [sp, #24]
  400e06:	60e1      	str	r1, [r4, #12]
  400e08:	3601      	adds	r6, #1
  400e0a:	4566      	cmp	r6, ip
  400e0c:	d005      	beq.n	400e1a <pio_handler_set+0x5a>
  400e0e:	4611      	mov	r1, r2
  400e10:	461a      	mov	r2, r3
  400e12:	4b06      	ldr	r3, [pc, #24]	; (400e2c <pio_handler_set+0x6c>)
  400e14:	4798      	blx	r3
  400e16:	2000      	movs	r0, #0
  400e18:	bdf8      	pop	{r3, r4, r5, r6, r7, pc}
  400e1a:	4902      	ldr	r1, [pc, #8]	; (400e24 <pio_handler_set+0x64>)
  400e1c:	600e      	str	r6, [r1, #0]
  400e1e:	e7f6      	b.n	400e0e <pio_handler_set+0x4e>
  400e20:	2001      	movs	r0, #1
  400e22:	bdf8      	pop	{r3, r4, r5, r6, r7, pc}
  400e24:	20400c60 	.word	0x20400c60
  400e28:	20400bf0 	.word	0x20400bf0
  400e2c:	00400d31 	.word	0x00400d31

00400e30 <PIOA_Handler>:
  400e30:	b508      	push	{r3, lr}
  400e32:	210a      	movs	r1, #10
  400e34:	4801      	ldr	r0, [pc, #4]	; (400e3c <PIOA_Handler+0xc>)
  400e36:	4b02      	ldr	r3, [pc, #8]	; (400e40 <PIOA_Handler+0x10>)
  400e38:	4798      	blx	r3
  400e3a:	bd08      	pop	{r3, pc}
  400e3c:	400e0e00 	.word	0x400e0e00
  400e40:	00400d71 	.word	0x00400d71

00400e44 <PIOB_Handler>:
  400e44:	b508      	push	{r3, lr}
  400e46:	210b      	movs	r1, #11
  400e48:	4801      	ldr	r0, [pc, #4]	; (400e50 <PIOB_Handler+0xc>)
  400e4a:	4b02      	ldr	r3, [pc, #8]	; (400e54 <PIOB_Handler+0x10>)
  400e4c:	4798      	blx	r3
  400e4e:	bd08      	pop	{r3, pc}
  400e50:	400e1000 	.word	0x400e1000
  400e54:	00400d71 	.word	0x00400d71

00400e58 <PIOC_Handler>:
  400e58:	b508      	push	{r3, lr}
  400e5a:	210c      	movs	r1, #12
  400e5c:	4801      	ldr	r0, [pc, #4]	; (400e64 <PIOC_Handler+0xc>)
  400e5e:	4b02      	ldr	r3, [pc, #8]	; (400e68 <PIOC_Handler+0x10>)
  400e60:	4798      	blx	r3
  400e62:	bd08      	pop	{r3, pc}
  400e64:	400e1200 	.word	0x400e1200
  400e68:	00400d71 	.word	0x00400d71

00400e6c <PIOD_Handler>:
  400e6c:	b508      	push	{r3, lr}
  400e6e:	2110      	movs	r1, #16
  400e70:	4801      	ldr	r0, [pc, #4]	; (400e78 <PIOD_Handler+0xc>)
  400e72:	4b02      	ldr	r3, [pc, #8]	; (400e7c <PIOD_Handler+0x10>)
  400e74:	4798      	blx	r3
  400e76:	bd08      	pop	{r3, pc}
  400e78:	400e1400 	.word	0x400e1400
  400e7c:	00400d71 	.word	0x00400d71

00400e80 <PIOE_Handler>:
  400e80:	b508      	push	{r3, lr}
  400e82:	2111      	movs	r1, #17
  400e84:	4801      	ldr	r0, [pc, #4]	; (400e8c <PIOE_Handler+0xc>)
  400e86:	4b02      	ldr	r3, [pc, #8]	; (400e90 <PIOE_Handler+0x10>)
  400e88:	4798      	blx	r3
  400e8a:	bd08      	pop	{r3, pc}
  400e8c:	400e1600 	.word	0x400e1600
  400e90:	00400d71 	.word	0x00400d71

00400e94 <pmc_mck_set_division>:
  400e94:	2803      	cmp	r0, #3
  400e96:	d011      	beq.n	400ebc <pmc_mck_set_division+0x28>
  400e98:	2804      	cmp	r0, #4
  400e9a:	d012      	beq.n	400ec2 <pmc_mck_set_division+0x2e>
  400e9c:	2802      	cmp	r0, #2
  400e9e:	bf0c      	ite	eq
  400ea0:	f44f 7180 	moveq.w	r1, #256	; 0x100
  400ea4:	2100      	movne	r1, #0
  400ea6:	4a08      	ldr	r2, [pc, #32]	; (400ec8 <pmc_mck_set_division+0x34>)
  400ea8:	6b13      	ldr	r3, [r2, #48]	; 0x30
  400eaa:	f423 7340 	bic.w	r3, r3, #768	; 0x300
  400eae:	430b      	orrs	r3, r1
  400eb0:	6313      	str	r3, [r2, #48]	; 0x30
  400eb2:	6e93      	ldr	r3, [r2, #104]	; 0x68
  400eb4:	f013 0f08 	tst.w	r3, #8
  400eb8:	d0fb      	beq.n	400eb2 <pmc_mck_set_division+0x1e>
  400eba:	4770      	bx	lr
  400ebc:	f44f 7140 	mov.w	r1, #768	; 0x300
  400ec0:	e7f1      	b.n	400ea6 <pmc_mck_set_division+0x12>
  400ec2:	f44f 7100 	mov.w	r1, #512	; 0x200
  400ec6:	e7ee      	b.n	400ea6 <pmc_mck_set_division+0x12>
  400ec8:	400e0600 	.word	0x400e0600

00400ecc <pmc_switch_mck_to_pllack>:
  400ecc:	4a17      	ldr	r2, [pc, #92]	; (400f2c <pmc_switch_mck_to_pllack+0x60>)
  400ece:	6b13      	ldr	r3, [r2, #48]	; 0x30
  400ed0:	f023 0370 	bic.w	r3, r3, #112	; 0x70
  400ed4:	4318      	orrs	r0, r3
  400ed6:	6310      	str	r0, [r2, #48]	; 0x30
  400ed8:	6e93      	ldr	r3, [r2, #104]	; 0x68
  400eda:	f013 0f08 	tst.w	r3, #8
  400ede:	d10a      	bne.n	400ef6 <pmc_switch_mck_to_pllack+0x2a>
  400ee0:	f44f 5380 	mov.w	r3, #4096	; 0x1000
  400ee4:	4911      	ldr	r1, [pc, #68]	; (400f2c <pmc_switch_mck_to_pllack+0x60>)
  400ee6:	6e8a      	ldr	r2, [r1, #104]	; 0x68
  400ee8:	f012 0f08 	tst.w	r2, #8
  400eec:	d103      	bne.n	400ef6 <pmc_switch_mck_to_pllack+0x2a>
  400eee:	3b01      	subs	r3, #1
  400ef0:	d1f9      	bne.n	400ee6 <pmc_switch_mck_to_pllack+0x1a>
  400ef2:	2001      	movs	r0, #1
  400ef4:	4770      	bx	lr
  400ef6:	4a0d      	ldr	r2, [pc, #52]	; (400f2c <pmc_switch_mck_to_pllack+0x60>)
  400ef8:	6b13      	ldr	r3, [r2, #48]	; 0x30
  400efa:	f023 0303 	bic.w	r3, r3, #3
  400efe:	f043 0302 	orr.w	r3, r3, #2
  400f02:	6313      	str	r3, [r2, #48]	; 0x30
  400f04:	6e93      	ldr	r3, [r2, #104]	; 0x68
  400f06:	f013 0f08 	tst.w	r3, #8
  400f0a:	d10a      	bne.n	400f22 <pmc_switch_mck_to_pllack+0x56>
  400f0c:	f44f 5380 	mov.w	r3, #4096	; 0x1000
  400f10:	4906      	ldr	r1, [pc, #24]	; (400f2c <pmc_switch_mck_to_pllack+0x60>)
  400f12:	6e8a      	ldr	r2, [r1, #104]	; 0x68
  400f14:	f012 0f08 	tst.w	r2, #8
  400f18:	d105      	bne.n	400f26 <pmc_switch_mck_to_pllack+0x5a>
  400f1a:	3b01      	subs	r3, #1
  400f1c:	d1f9      	bne.n	400f12 <pmc_switch_mck_to_pllack+0x46>
  400f1e:	2001      	movs	r0, #1
  400f20:	4770      	bx	lr
  400f22:	2000      	movs	r0, #0
  400f24:	4770      	bx	lr
  400f26:	2000      	movs	r0, #0
  400f28:	4770      	bx	lr
  400f2a:	bf00      	nop
  400f2c:	400e0600 	.word	0x400e0600

00400f30 <pmc_switch_mainck_to_xtal>:
  400f30:	b9a0      	cbnz	r0, 400f5c <pmc_switch_mainck_to_xtal+0x2c>
  400f32:	480e      	ldr	r0, [pc, #56]	; (400f6c <pmc_switch_mainck_to_xtal+0x3c>)
  400f34:	6a03      	ldr	r3, [r0, #32]
  400f36:	0209      	lsls	r1, r1, #8
  400f38:	b289      	uxth	r1, r1
  400f3a:	4a0d      	ldr	r2, [pc, #52]	; (400f70 <pmc_switch_mainck_to_xtal+0x40>)
  400f3c:	401a      	ands	r2, r3
  400f3e:	4b0d      	ldr	r3, [pc, #52]	; (400f74 <pmc_switch_mainck_to_xtal+0x44>)
  400f40:	4313      	orrs	r3, r2
  400f42:	4319      	orrs	r1, r3
  400f44:	6201      	str	r1, [r0, #32]
  400f46:	4602      	mov	r2, r0
  400f48:	6e93      	ldr	r3, [r2, #104]	; 0x68
  400f4a:	f013 0f01 	tst.w	r3, #1
  400f4e:	d0fb      	beq.n	400f48 <pmc_switch_mainck_to_xtal+0x18>
  400f50:	4a06      	ldr	r2, [pc, #24]	; (400f6c <pmc_switch_mainck_to_xtal+0x3c>)
  400f52:	6a11      	ldr	r1, [r2, #32]
  400f54:	4b08      	ldr	r3, [pc, #32]	; (400f78 <pmc_switch_mainck_to_xtal+0x48>)
  400f56:	430b      	orrs	r3, r1
  400f58:	6213      	str	r3, [r2, #32]
  400f5a:	4770      	bx	lr
  400f5c:	4903      	ldr	r1, [pc, #12]	; (400f6c <pmc_switch_mainck_to_xtal+0x3c>)
  400f5e:	6a0b      	ldr	r3, [r1, #32]
  400f60:	4a06      	ldr	r2, [pc, #24]	; (400f7c <pmc_switch_mainck_to_xtal+0x4c>)
  400f62:	401a      	ands	r2, r3
  400f64:	4b06      	ldr	r3, [pc, #24]	; (400f80 <pmc_switch_mainck_to_xtal+0x50>)
  400f66:	4313      	orrs	r3, r2
  400f68:	620b      	str	r3, [r1, #32]
  400f6a:	4770      	bx	lr
  400f6c:	400e0600 	.word	0x400e0600
  400f70:	ffc8fffc 	.word	0xffc8fffc
  400f74:	00370001 	.word	0x00370001
  400f78:	01370000 	.word	0x01370000
  400f7c:	fec8fffc 	.word	0xfec8fffc
  400f80:	01370002 	.word	0x01370002

00400f84 <pmc_osc_is_ready_mainck>:
  400f84:	4b02      	ldr	r3, [pc, #8]	; (400f90 <pmc_osc_is_ready_mainck+0xc>)
  400f86:	6e98      	ldr	r0, [r3, #104]	; 0x68
  400f88:	f400 3080 	and.w	r0, r0, #65536	; 0x10000
  400f8c:	4770      	bx	lr
  400f8e:	bf00      	nop
  400f90:	400e0600 	.word	0x400e0600

00400f94 <pmc_disable_pllack>:
  400f94:	f04f 5200 	mov.w	r2, #536870912	; 0x20000000
  400f98:	4b01      	ldr	r3, [pc, #4]	; (400fa0 <pmc_disable_pllack+0xc>)
  400f9a:	629a      	str	r2, [r3, #40]	; 0x28
  400f9c:	4770      	bx	lr
  400f9e:	bf00      	nop
  400fa0:	400e0600 	.word	0x400e0600

00400fa4 <pmc_is_locked_pllack>:
  400fa4:	4b02      	ldr	r3, [pc, #8]	; (400fb0 <pmc_is_locked_pllack+0xc>)
  400fa6:	6e98      	ldr	r0, [r3, #104]	; 0x68
  400fa8:	f000 0002 	and.w	r0, r0, #2
  400fac:	4770      	bx	lr
  400fae:	bf00      	nop
  400fb0:	400e0600 	.word	0x400e0600

00400fb4 <pmc_enable_periph_clk>:
  400fb4:	283f      	cmp	r0, #63	; 0x3f
  400fb6:	d81e      	bhi.n	400ff6 <pmc_enable_periph_clk+0x42>
  400fb8:	281f      	cmp	r0, #31
  400fba:	d80c      	bhi.n	400fd6 <pmc_enable_periph_clk+0x22>
  400fbc:	4b11      	ldr	r3, [pc, #68]	; (401004 <pmc_enable_periph_clk+0x50>)
  400fbe:	699a      	ldr	r2, [r3, #24]
  400fc0:	2301      	movs	r3, #1
  400fc2:	4083      	lsls	r3, r0
  400fc4:	4393      	bics	r3, r2
  400fc6:	d018      	beq.n	400ffa <pmc_enable_periph_clk+0x46>
  400fc8:	2301      	movs	r3, #1
  400fca:	fa03 f000 	lsl.w	r0, r3, r0
  400fce:	4b0d      	ldr	r3, [pc, #52]	; (401004 <pmc_enable_periph_clk+0x50>)
  400fd0:	6118      	str	r0, [r3, #16]
  400fd2:	2000      	movs	r0, #0
  400fd4:	4770      	bx	lr
  400fd6:	3820      	subs	r0, #32
  400fd8:	4b0a      	ldr	r3, [pc, #40]	; (401004 <pmc_enable_periph_clk+0x50>)
  400fda:	f8d3 2108 	ldr.w	r2, [r3, #264]	; 0x108
  400fde:	2301      	movs	r3, #1
  400fe0:	4083      	lsls	r3, r0
  400fe2:	4393      	bics	r3, r2
  400fe4:	d00b      	beq.n	400ffe <pmc_enable_periph_clk+0x4a>
  400fe6:	2301      	movs	r3, #1
  400fe8:	fa03 f000 	lsl.w	r0, r3, r0
  400fec:	4b05      	ldr	r3, [pc, #20]	; (401004 <pmc_enable_periph_clk+0x50>)
  400fee:	f8c3 0100 	str.w	r0, [r3, #256]	; 0x100
  400ff2:	2000      	movs	r0, #0
  400ff4:	4770      	bx	lr
  400ff6:	2001      	movs	r0, #1
  400ff8:	4770      	bx	lr
  400ffa:	2000      	movs	r0, #0
  400ffc:	4770      	bx	lr
  400ffe:	2000      	movs	r0, #0
  401000:	4770      	bx	lr
  401002:	bf00      	nop
  401004:	400e0600 	.word	0x400e0600

00401008 <pmc_set_flash_in_wait_mode>:
  401008:	4770      	bx	lr
	...

0040100c <pmc_enable_waitmode>:
  40100c:	4a10      	ldr	r2, [pc, #64]	; (401050 <pmc_enable_waitmode+0x44>)
  40100e:	6f13      	ldr	r3, [r2, #112]	; 0x70
  401010:	f423 03c0 	bic.w	r3, r3, #6291456	; 0x600000
  401014:	f443 0380 	orr.w	r3, r3, #4194304	; 0x400000
  401018:	6713      	str	r3, [r2, #112]	; 0x70
  40101a:	6a11      	ldr	r1, [r2, #32]
  40101c:	4b0d      	ldr	r3, [pc, #52]	; (401054 <pmc_enable_waitmode+0x48>)
  40101e:	430b      	orrs	r3, r1
  401020:	6213      	str	r3, [r2, #32]
  401022:	6e93      	ldr	r3, [r2, #104]	; 0x68
  401024:	f013 0f08 	tst.w	r3, #8
  401028:	d0fb      	beq.n	401022 <pmc_enable_waitmode+0x16>
  40102a:	f44f 73fa 	mov.w	r3, #500	; 0x1f4
  40102e:	bf00      	nop
  401030:	3b01      	subs	r3, #1
  401032:	d1fc      	bne.n	40102e <pmc_enable_waitmode+0x22>
  401034:	4a06      	ldr	r2, [pc, #24]	; (401050 <pmc_enable_waitmode+0x44>)
  401036:	6a13      	ldr	r3, [r2, #32]
  401038:	f013 0f08 	tst.w	r3, #8
  40103c:	d0fb      	beq.n	401036 <pmc_enable_waitmode+0x2a>
  40103e:	4a04      	ldr	r2, [pc, #16]	; (401050 <pmc_enable_waitmode+0x44>)
  401040:	6f13      	ldr	r3, [r2, #112]	; 0x70
  401042:	f423 03c0 	bic.w	r3, r3, #6291456	; 0x600000
  401046:	f443 0380 	orr.w	r3, r3, #4194304	; 0x400000
  40104a:	6713      	str	r3, [r2, #112]	; 0x70
  40104c:	4770      	bx	lr
  40104e:	bf00      	nop
  401050:	400e0600 	.word	0x400e0600
  401054:	00370004 	.word	0x00370004

00401058 <pmc_sleep>:
  401058:	e92d 43f8 	stmdb	sp!, {r3, r4, r5, r6, r7, r8, r9, lr}
  40105c:	1e43      	subs	r3, r0, #1
  40105e:	2b04      	cmp	r3, #4
  401060:	f200 8107 	bhi.w	401272 <pmc_sleep+0x21a>
  401064:	e8df f013 	tbh	[pc, r3, lsl #1]
  401068:	00050005 	.word	0x00050005
  40106c:	00150015 	.word	0x00150015
  401070:	00f6      	.short	0x00f6
  401072:	4a81      	ldr	r2, [pc, #516]	; (401278 <pmc_sleep+0x220>)
  401074:	6913      	ldr	r3, [r2, #16]
  401076:	f023 0304 	bic.w	r3, r3, #4
  40107a:	6113      	str	r3, [r2, #16]
  40107c:	2201      	movs	r2, #1
  40107e:	4b7f      	ldr	r3, [pc, #508]	; (40127c <pmc_sleep+0x224>)
  401080:	701a      	strb	r2, [r3, #0]
  401082:	f3bf 8f5f 	dmb	sy
  401086:	b662      	cpsie	i
  401088:	f3bf 8f4f 	dsb	sy
  40108c:	bf30      	wfi
  40108e:	e8bd 83f8 	ldmia.w	sp!, {r3, r4, r5, r6, r7, r8, r9, pc}
  401092:	4604      	mov	r4, r0
  401094:	2803      	cmp	r0, #3
  401096:	bf0c      	ite	eq
  401098:	2000      	moveq	r0, #0
  40109a:	f44f 1000 	movne.w	r0, #2097152	; 0x200000
  40109e:	4b78      	ldr	r3, [pc, #480]	; (401280 <pmc_sleep+0x228>)
  4010a0:	4798      	blx	r3
  4010a2:	b672      	cpsid	i
  4010a4:	f3bf 8f5f 	dmb	sy
  4010a8:	2200      	movs	r2, #0
  4010aa:	4b74      	ldr	r3, [pc, #464]	; (40127c <pmc_sleep+0x224>)
  4010ac:	701a      	strb	r2, [r3, #0]
  4010ae:	2201      	movs	r2, #1
  4010b0:	4b74      	ldr	r3, [pc, #464]	; (401284 <pmc_sleep+0x22c>)
  4010b2:	701a      	strb	r2, [r3, #0]
  4010b4:	4b74      	ldr	r3, [pc, #464]	; (401288 <pmc_sleep+0x230>)
  4010b6:	6a1f      	ldr	r7, [r3, #32]
  4010b8:	6b1d      	ldr	r5, [r3, #48]	; 0x30
  4010ba:	4a74      	ldr	r2, [pc, #464]	; (40128c <pmc_sleep+0x234>)
  4010bc:	f8d2 8000 	ldr.w	r8, [r2]
  4010c0:	6a9e      	ldr	r6, [r3, #40]	; 0x28
  4010c2:	4a73      	ldr	r2, [pc, #460]	; (401290 <pmc_sleep+0x238>)
  4010c4:	433a      	orrs	r2, r7
  4010c6:	621a      	str	r2, [r3, #32]
  4010c8:	f005 0903 	and.w	r9, r5, #3
  4010cc:	f1b9 0f01 	cmp.w	r9, #1
  4010d0:	f240 8089 	bls.w	4011e6 <pmc_sleep+0x18e>
  4010d4:	f025 0103 	bic.w	r1, r5, #3
  4010d8:	f041 0101 	orr.w	r1, r1, #1
  4010dc:	6319      	str	r1, [r3, #48]	; 0x30
  4010de:	461a      	mov	r2, r3
  4010e0:	6e93      	ldr	r3, [r2, #104]	; 0x68
  4010e2:	f013 0f08 	tst.w	r3, #8
  4010e6:	d0fb      	beq.n	4010e0 <pmc_sleep+0x88>
  4010e8:	f011 0f70 	tst.w	r1, #112	; 0x70
  4010ec:	d008      	beq.n	401100 <pmc_sleep+0xa8>
  4010ee:	f021 0170 	bic.w	r1, r1, #112	; 0x70
  4010f2:	4b65      	ldr	r3, [pc, #404]	; (401288 <pmc_sleep+0x230>)
  4010f4:	6319      	str	r1, [r3, #48]	; 0x30
  4010f6:	461a      	mov	r2, r3
  4010f8:	6e93      	ldr	r3, [r2, #104]	; 0x68
  4010fa:	f013 0f08 	tst.w	r3, #8
  4010fe:	d0fb      	beq.n	4010f8 <pmc_sleep+0xa0>
  401100:	4b64      	ldr	r3, [pc, #400]	; (401294 <pmc_sleep+0x23c>)
  401102:	4798      	blx	r3
  401104:	4a60      	ldr	r2, [pc, #384]	; (401288 <pmc_sleep+0x230>)
  401106:	6e93      	ldr	r3, [r2, #104]	; 0x68
  401108:	f413 3f00 	tst.w	r3, #131072	; 0x20000
  40110c:	d0fb      	beq.n	401106 <pmc_sleep+0xae>
  40110e:	4a5e      	ldr	r2, [pc, #376]	; (401288 <pmc_sleep+0x230>)
  401110:	6a11      	ldr	r1, [r2, #32]
  401112:	4b61      	ldr	r3, [pc, #388]	; (401298 <pmc_sleep+0x240>)
  401114:	400b      	ands	r3, r1
  401116:	f443 135c 	orr.w	r3, r3, #3604480	; 0x370000
  40111a:	6213      	str	r3, [r2, #32]
  40111c:	6e93      	ldr	r3, [r2, #104]	; 0x68
  40111e:	f413 3f80 	tst.w	r3, #65536	; 0x10000
  401122:	d0fb      	beq.n	40111c <pmc_sleep+0xc4>
  401124:	f428 6370 	bic.w	r3, r8, #3840	; 0xf00
  401128:	4a58      	ldr	r2, [pc, #352]	; (40128c <pmc_sleep+0x234>)
  40112a:	6013      	str	r3, [r2, #0]
  40112c:	2c04      	cmp	r4, #4
  40112e:	d05c      	beq.n	4011ea <pmc_sleep+0x192>
  401130:	4c52      	ldr	r4, [pc, #328]	; (40127c <pmc_sleep+0x224>)
  401132:	2301      	movs	r3, #1
  401134:	7023      	strb	r3, [r4, #0]
  401136:	f3bf 8f5f 	dmb	sy
  40113a:	b662      	cpsie	i
  40113c:	4b57      	ldr	r3, [pc, #348]	; (40129c <pmc_sleep+0x244>)
  40113e:	4798      	blx	r3
  401140:	b672      	cpsid	i
  401142:	f3bf 8f5f 	dmb	sy
  401146:	2300      	movs	r3, #0
  401148:	7023      	strb	r3, [r4, #0]
  40114a:	f017 0f02 	tst.w	r7, #2
  40114e:	d055      	beq.n	4011fc <pmc_sleep+0x1a4>
  401150:	4a4d      	ldr	r2, [pc, #308]	; (401288 <pmc_sleep+0x230>)
  401152:	6a13      	ldr	r3, [r2, #32]
  401154:	4952      	ldr	r1, [pc, #328]	; (4012a0 <pmc_sleep+0x248>)
  401156:	4019      	ands	r1, r3
  401158:	4b52      	ldr	r3, [pc, #328]	; (4012a4 <pmc_sleep+0x24c>)
  40115a:	430b      	orrs	r3, r1
  40115c:	6213      	str	r3, [r2, #32]
  40115e:	6a11      	ldr	r1, [r2, #32]
  401160:	4b51      	ldr	r3, [pc, #324]	; (4012a8 <pmc_sleep+0x250>)
  401162:	400b      	ands	r3, r1
  401164:	f443 135c 	orr.w	r3, r3, #3604480	; 0x370000
  401168:	6213      	str	r3, [r2, #32]
  40116a:	4b50      	ldr	r3, [pc, #320]	; (4012ac <pmc_sleep+0x254>)
  40116c:	4033      	ands	r3, r6
  40116e:	2b00      	cmp	r3, #0
  401170:	d06e      	beq.n	401250 <pmc_sleep+0x1f8>
  401172:	f046 5600 	orr.w	r6, r6, #536870912	; 0x20000000
  401176:	4b44      	ldr	r3, [pc, #272]	; (401288 <pmc_sleep+0x230>)
  401178:	629e      	str	r6, [r3, #40]	; 0x28
  40117a:	2102      	movs	r1, #2
  40117c:	f1b9 0f02 	cmp.w	r9, #2
  401180:	d104      	bne.n	40118c <pmc_sleep+0x134>
  401182:	4a41      	ldr	r2, [pc, #260]	; (401288 <pmc_sleep+0x230>)
  401184:	6e93      	ldr	r3, [r2, #104]	; 0x68
  401186:	f013 0f02 	tst.w	r3, #2
  40118a:	d0fb      	beq.n	401184 <pmc_sleep+0x12c>
  40118c:	4a3e      	ldr	r2, [pc, #248]	; (401288 <pmc_sleep+0x230>)
  40118e:	6b13      	ldr	r3, [r2, #48]	; 0x30
  401190:	f023 0370 	bic.w	r3, r3, #112	; 0x70
  401194:	f005 0070 	and.w	r0, r5, #112	; 0x70
  401198:	4303      	orrs	r3, r0
  40119a:	6313      	str	r3, [r2, #48]	; 0x30
  40119c:	6e93      	ldr	r3, [r2, #104]	; 0x68
  40119e:	f013 0f08 	tst.w	r3, #8
  4011a2:	d0fb      	beq.n	40119c <pmc_sleep+0x144>
  4011a4:	4b39      	ldr	r3, [pc, #228]	; (40128c <pmc_sleep+0x234>)
  4011a6:	f8c3 8000 	str.w	r8, [r3]
  4011aa:	f5a3 63c0 	sub.w	r3, r3, #1536	; 0x600
  4011ae:	631d      	str	r5, [r3, #48]	; 0x30
  4011b0:	461a      	mov	r2, r3
  4011b2:	6e93      	ldr	r3, [r2, #104]	; 0x68
  4011b4:	f013 0f08 	tst.w	r3, #8
  4011b8:	d0fb      	beq.n	4011b2 <pmc_sleep+0x15a>
  4011ba:	4a33      	ldr	r2, [pc, #204]	; (401288 <pmc_sleep+0x230>)
  4011bc:	6e93      	ldr	r3, [r2, #104]	; 0x68
  4011be:	420b      	tst	r3, r1
  4011c0:	d0fc      	beq.n	4011bc <pmc_sleep+0x164>
  4011c2:	2200      	movs	r2, #0
  4011c4:	4b2f      	ldr	r3, [pc, #188]	; (401284 <pmc_sleep+0x22c>)
  4011c6:	701a      	strb	r2, [r3, #0]
  4011c8:	4b39      	ldr	r3, [pc, #228]	; (4012b0 <pmc_sleep+0x258>)
  4011ca:	681b      	ldr	r3, [r3, #0]
  4011cc:	b11b      	cbz	r3, 4011d6 <pmc_sleep+0x17e>
  4011ce:	4798      	blx	r3
  4011d0:	2200      	movs	r2, #0
  4011d2:	4b37      	ldr	r3, [pc, #220]	; (4012b0 <pmc_sleep+0x258>)
  4011d4:	601a      	str	r2, [r3, #0]
  4011d6:	2201      	movs	r2, #1
  4011d8:	4b28      	ldr	r3, [pc, #160]	; (40127c <pmc_sleep+0x224>)
  4011da:	701a      	strb	r2, [r3, #0]
  4011dc:	f3bf 8f5f 	dmb	sy
  4011e0:	b662      	cpsie	i
  4011e2:	e8bd 83f8 	ldmia.w	sp!, {r3, r4, r5, r6, r7, r8, r9, pc}
  4011e6:	4629      	mov	r1, r5
  4011e8:	e77e      	b.n	4010e8 <pmc_sleep+0x90>
  4011ea:	f5a2 62c0 	sub.w	r2, r2, #1536	; 0x600
  4011ee:	6a11      	ldr	r1, [r2, #32]
  4011f0:	4b30      	ldr	r3, [pc, #192]	; (4012b4 <pmc_sleep+0x25c>)
  4011f2:	400b      	ands	r3, r1
  4011f4:	f443 135c 	orr.w	r3, r3, #3604480	; 0x370000
  4011f8:	6213      	str	r3, [r2, #32]
  4011fa:	e799      	b.n	401130 <pmc_sleep+0xd8>
  4011fc:	f017 0f01 	tst.w	r7, #1
  401200:	d0b3      	beq.n	40116a <pmc_sleep+0x112>
  401202:	4b21      	ldr	r3, [pc, #132]	; (401288 <pmc_sleep+0x230>)
  401204:	6a1b      	ldr	r3, [r3, #32]
  401206:	f013 0f01 	tst.w	r3, #1
  40120a:	d10b      	bne.n	401224 <pmc_sleep+0x1cc>
  40120c:	491e      	ldr	r1, [pc, #120]	; (401288 <pmc_sleep+0x230>)
  40120e:	6a0b      	ldr	r3, [r1, #32]
  401210:	4a29      	ldr	r2, [pc, #164]	; (4012b8 <pmc_sleep+0x260>)
  401212:	401a      	ands	r2, r3
  401214:	4b29      	ldr	r3, [pc, #164]	; (4012bc <pmc_sleep+0x264>)
  401216:	4313      	orrs	r3, r2
  401218:	620b      	str	r3, [r1, #32]
  40121a:	460a      	mov	r2, r1
  40121c:	6e93      	ldr	r3, [r2, #104]	; 0x68
  40121e:	f013 0f01 	tst.w	r3, #1
  401222:	d0fb      	beq.n	40121c <pmc_sleep+0x1c4>
  401224:	4b18      	ldr	r3, [pc, #96]	; (401288 <pmc_sleep+0x230>)
  401226:	6a1b      	ldr	r3, [r3, #32]
  401228:	f013 7f80 	tst.w	r3, #16777216	; 0x1000000
  40122c:	d108      	bne.n	401240 <pmc_sleep+0x1e8>
  40122e:	4a16      	ldr	r2, [pc, #88]	; (401288 <pmc_sleep+0x230>)
  401230:	6a11      	ldr	r1, [r2, #32]
  401232:	4b23      	ldr	r3, [pc, #140]	; (4012c0 <pmc_sleep+0x268>)
  401234:	430b      	orrs	r3, r1
  401236:	6213      	str	r3, [r2, #32]
  401238:	6e93      	ldr	r3, [r2, #104]	; 0x68
  40123a:	f413 3f80 	tst.w	r3, #65536	; 0x10000
  40123e:	d0fb      	beq.n	401238 <pmc_sleep+0x1e0>
  401240:	4a11      	ldr	r2, [pc, #68]	; (401288 <pmc_sleep+0x230>)
  401242:	6a11      	ldr	r1, [r2, #32]
  401244:	4b18      	ldr	r3, [pc, #96]	; (4012a8 <pmc_sleep+0x250>)
  401246:	400b      	ands	r3, r1
  401248:	f443 135c 	orr.w	r3, r3, #3604480	; 0x370000
  40124c:	6213      	str	r3, [r2, #32]
  40124e:	e78c      	b.n	40116a <pmc_sleep+0x112>
  401250:	2100      	movs	r1, #0
  401252:	e793      	b.n	40117c <pmc_sleep+0x124>
  401254:	4a08      	ldr	r2, [pc, #32]	; (401278 <pmc_sleep+0x220>)
  401256:	6913      	ldr	r3, [r2, #16]
  401258:	f043 0304 	orr.w	r3, r3, #4
  40125c:	6113      	str	r3, [r2, #16]
  40125e:	4a19      	ldr	r2, [pc, #100]	; (4012c4 <pmc_sleep+0x26c>)
  401260:	4b19      	ldr	r3, [pc, #100]	; (4012c8 <pmc_sleep+0x270>)
  401262:	601a      	str	r2, [r3, #0]
  401264:	2201      	movs	r2, #1
  401266:	4b05      	ldr	r3, [pc, #20]	; (40127c <pmc_sleep+0x224>)
  401268:	701a      	strb	r2, [r3, #0]
  40126a:	f3bf 8f5f 	dmb	sy
  40126e:	b662      	cpsie	i
  401270:	bf30      	wfi
  401272:	e8bd 83f8 	ldmia.w	sp!, {r3, r4, r5, r6, r7, r8, r9, pc}
  401276:	bf00      	nop
  401278:	e000ed00 	.word	0xe000ed00
  40127c:	20400018 	.word	0x20400018
  401280:	00401009 	.word	0x00401009
  401284:	20400c64 	.word	0x20400c64
  401288:	400e0600 	.word	0x400e0600
  40128c:	400e0c00 	.word	0x400e0c00
  401290:	00370008 	.word	0x00370008
  401294:	00400f95 	.word	0x00400f95
  401298:	fec8ffff 	.word	0xfec8ffff
  40129c:	0040100d 	.word	0x0040100d
  4012a0:	fec8fffc 	.word	0xfec8fffc
  4012a4:	01370002 	.word	0x01370002
  4012a8:	ffc8ff87 	.word	0xffc8ff87
  4012ac:	07ff0000 	.word	0x07ff0000
  4012b0:	20400c68 	.word	0x20400c68
  4012b4:	ffc8fffe 	.word	0xffc8fffe
  4012b8:	ffc8fffc 	.word	0xffc8fffc
  4012bc:	00370001 	.word	0x00370001
  4012c0:	01370000 	.word	0x01370000
  4012c4:	a5000004 	.word	0xa5000004
  4012c8:	400e1810 	.word	0x400e1810

004012cc <Dummy_Handler>:
  4012cc:	e7fe      	b.n	4012cc <Dummy_Handler>
	...

004012d0 <Reset_Handler>:
  4012d0:	b500      	push	{lr}
  4012d2:	b083      	sub	sp, #12
  4012d4:	4b25      	ldr	r3, [pc, #148]	; (40136c <Reset_Handler+0x9c>)
  4012d6:	4a26      	ldr	r2, [pc, #152]	; (401370 <Reset_Handler+0xa0>)
  4012d8:	429a      	cmp	r2, r3
  4012da:	d010      	beq.n	4012fe <Reset_Handler+0x2e>
  4012dc:	4b25      	ldr	r3, [pc, #148]	; (401374 <Reset_Handler+0xa4>)
  4012de:	4a23      	ldr	r2, [pc, #140]	; (40136c <Reset_Handler+0x9c>)
  4012e0:	429a      	cmp	r2, r3
  4012e2:	d20c      	bcs.n	4012fe <Reset_Handler+0x2e>
  4012e4:	3b01      	subs	r3, #1
  4012e6:	1a9b      	subs	r3, r3, r2
  4012e8:	f023 0303 	bic.w	r3, r3, #3
  4012ec:	3304      	adds	r3, #4
  4012ee:	4413      	add	r3, r2
  4012f0:	491f      	ldr	r1, [pc, #124]	; (401370 <Reset_Handler+0xa0>)
  4012f2:	f851 0b04 	ldr.w	r0, [r1], #4
  4012f6:	f842 0b04 	str.w	r0, [r2], #4
  4012fa:	429a      	cmp	r2, r3
  4012fc:	d1f9      	bne.n	4012f2 <Reset_Handler+0x22>
  4012fe:	4b1e      	ldr	r3, [pc, #120]	; (401378 <Reset_Handler+0xa8>)
  401300:	4a1e      	ldr	r2, [pc, #120]	; (40137c <Reset_Handler+0xac>)
  401302:	429a      	cmp	r2, r3
  401304:	d20a      	bcs.n	40131c <Reset_Handler+0x4c>
  401306:	3b01      	subs	r3, #1
  401308:	1a9b      	subs	r3, r3, r2
  40130a:	f023 0303 	bic.w	r3, r3, #3
  40130e:	3304      	adds	r3, #4
  401310:	4413      	add	r3, r2
  401312:	2100      	movs	r1, #0
  401314:	f842 1b04 	str.w	r1, [r2], #4
  401318:	4293      	cmp	r3, r2
  40131a:	d1fb      	bne.n	401314 <Reset_Handler+0x44>
  40131c:	4a18      	ldr	r2, [pc, #96]	; (401380 <Reset_Handler+0xb0>)
  40131e:	4b19      	ldr	r3, [pc, #100]	; (401384 <Reset_Handler+0xb4>)
  401320:	f023 037f 	bic.w	r3, r3, #127	; 0x7f
  401324:	6093      	str	r3, [r2, #8]
  401326:	f3ef 8310 	mrs	r3, PRIMASK
  40132a:	fab3 f383 	clz	r3, r3
  40132e:	095b      	lsrs	r3, r3, #5
  401330:	9301      	str	r3, [sp, #4]
  401332:	b672      	cpsid	i
  401334:	f3bf 8f5f 	dmb	sy
  401338:	2200      	movs	r2, #0
  40133a:	4b13      	ldr	r3, [pc, #76]	; (401388 <Reset_Handler+0xb8>)
  40133c:	701a      	strb	r2, [r3, #0]
  40133e:	9901      	ldr	r1, [sp, #4]
  401340:	4a12      	ldr	r2, [pc, #72]	; (40138c <Reset_Handler+0xbc>)
  401342:	6813      	ldr	r3, [r2, #0]
  401344:	f443 0370 	orr.w	r3, r3, #15728640	; 0xf00000
  401348:	6013      	str	r3, [r2, #0]
  40134a:	f3bf 8f4f 	dsb	sy
  40134e:	f3bf 8f6f 	isb	sy
  401352:	b129      	cbz	r1, 401360 <Reset_Handler+0x90>
  401354:	2201      	movs	r2, #1
  401356:	4b0c      	ldr	r3, [pc, #48]	; (401388 <Reset_Handler+0xb8>)
  401358:	701a      	strb	r2, [r3, #0]
  40135a:	f3bf 8f5f 	dmb	sy
  40135e:	b662      	cpsie	i
  401360:	4b0b      	ldr	r3, [pc, #44]	; (401390 <Reset_Handler+0xc0>)
  401362:	4798      	blx	r3
  401364:	4b0b      	ldr	r3, [pc, #44]	; (401394 <Reset_Handler+0xc4>)
  401366:	4798      	blx	r3
  401368:	e7fe      	b.n	401368 <Reset_Handler+0x98>
  40136a:	bf00      	nop
  40136c:	20400000 	.word	0x20400000
  401370:	0040705c 	.word	0x0040705c
  401374:	204009d0 	.word	0x204009d0
  401378:	20400d5c 	.word	0x20400d5c
  40137c:	204009d0 	.word	0x204009d0
  401380:	e000ed00 	.word	0xe000ed00
  401384:	00400000 	.word	0x00400000
  401388:	20400018 	.word	0x20400018
  40138c:	e000ed88 	.word	0xe000ed88
  401390:	004024c9 	.word	0x004024c9
  401394:	00401859 	.word	0x00401859

00401398 <SystemCoreClockUpdate>:
  401398:	4b3b      	ldr	r3, [pc, #236]	; (401488 <SystemCoreClockUpdate+0xf0>)
  40139a:	6b1b      	ldr	r3, [r3, #48]	; 0x30
  40139c:	f003 0303 	and.w	r3, r3, #3
  4013a0:	2b01      	cmp	r3, #1
  4013a2:	d01d      	beq.n	4013e0 <SystemCoreClockUpdate+0x48>
  4013a4:	b183      	cbz	r3, 4013c8 <SystemCoreClockUpdate+0x30>
  4013a6:	2b02      	cmp	r3, #2
  4013a8:	d036      	beq.n	401418 <SystemCoreClockUpdate+0x80>
  4013aa:	4b37      	ldr	r3, [pc, #220]	; (401488 <SystemCoreClockUpdate+0xf0>)
  4013ac:	6b1b      	ldr	r3, [r3, #48]	; 0x30
  4013ae:	f003 0370 	and.w	r3, r3, #112	; 0x70
  4013b2:	2b70      	cmp	r3, #112	; 0x70
  4013b4:	d05f      	beq.n	401476 <SystemCoreClockUpdate+0xde>
  4013b6:	4b34      	ldr	r3, [pc, #208]	; (401488 <SystemCoreClockUpdate+0xf0>)
  4013b8:	6b1a      	ldr	r2, [r3, #48]	; 0x30
  4013ba:	4934      	ldr	r1, [pc, #208]	; (40148c <SystemCoreClockUpdate+0xf4>)
  4013bc:	f3c2 1202 	ubfx	r2, r2, #4, #3
  4013c0:	680b      	ldr	r3, [r1, #0]
  4013c2:	40d3      	lsrs	r3, r2
  4013c4:	600b      	str	r3, [r1, #0]
  4013c6:	4770      	bx	lr
  4013c8:	4b31      	ldr	r3, [pc, #196]	; (401490 <SystemCoreClockUpdate+0xf8>)
  4013ca:	695b      	ldr	r3, [r3, #20]
  4013cc:	f013 0f80 	tst.w	r3, #128	; 0x80
  4013d0:	bf14      	ite	ne
  4013d2:	f44f 4200 	movne.w	r2, #32768	; 0x8000
  4013d6:	f44f 42fa 	moveq.w	r2, #32000	; 0x7d00
  4013da:	4b2c      	ldr	r3, [pc, #176]	; (40148c <SystemCoreClockUpdate+0xf4>)
  4013dc:	601a      	str	r2, [r3, #0]
  4013de:	e7e4      	b.n	4013aa <SystemCoreClockUpdate+0x12>
  4013e0:	4b29      	ldr	r3, [pc, #164]	; (401488 <SystemCoreClockUpdate+0xf0>)
  4013e2:	6a1b      	ldr	r3, [r3, #32]
  4013e4:	f013 7f80 	tst.w	r3, #16777216	; 0x1000000
  4013e8:	d003      	beq.n	4013f2 <SystemCoreClockUpdate+0x5a>
  4013ea:	4a2a      	ldr	r2, [pc, #168]	; (401494 <SystemCoreClockUpdate+0xfc>)
  4013ec:	4b27      	ldr	r3, [pc, #156]	; (40148c <SystemCoreClockUpdate+0xf4>)
  4013ee:	601a      	str	r2, [r3, #0]
  4013f0:	e7db      	b.n	4013aa <SystemCoreClockUpdate+0x12>
  4013f2:	4a29      	ldr	r2, [pc, #164]	; (401498 <SystemCoreClockUpdate+0x100>)
  4013f4:	4b25      	ldr	r3, [pc, #148]	; (40148c <SystemCoreClockUpdate+0xf4>)
  4013f6:	601a      	str	r2, [r3, #0]
  4013f8:	4b23      	ldr	r3, [pc, #140]	; (401488 <SystemCoreClockUpdate+0xf0>)
  4013fa:	6a1b      	ldr	r3, [r3, #32]
  4013fc:	f003 0370 	and.w	r3, r3, #112	; 0x70
  401400:	2b10      	cmp	r3, #16
  401402:	d005      	beq.n	401410 <SystemCoreClockUpdate+0x78>
  401404:	2b20      	cmp	r3, #32
  401406:	d1d0      	bne.n	4013aa <SystemCoreClockUpdate+0x12>
  401408:	4a22      	ldr	r2, [pc, #136]	; (401494 <SystemCoreClockUpdate+0xfc>)
  40140a:	4b20      	ldr	r3, [pc, #128]	; (40148c <SystemCoreClockUpdate+0xf4>)
  40140c:	601a      	str	r2, [r3, #0]
  40140e:	e7cc      	b.n	4013aa <SystemCoreClockUpdate+0x12>
  401410:	4a22      	ldr	r2, [pc, #136]	; (40149c <SystemCoreClockUpdate+0x104>)
  401412:	4b1e      	ldr	r3, [pc, #120]	; (40148c <SystemCoreClockUpdate+0xf4>)
  401414:	601a      	str	r2, [r3, #0]
  401416:	e7c8      	b.n	4013aa <SystemCoreClockUpdate+0x12>
  401418:	4b1b      	ldr	r3, [pc, #108]	; (401488 <SystemCoreClockUpdate+0xf0>)
  40141a:	6a1b      	ldr	r3, [r3, #32]
  40141c:	f013 7f80 	tst.w	r3, #16777216	; 0x1000000
  401420:	d016      	beq.n	401450 <SystemCoreClockUpdate+0xb8>
  401422:	4a1c      	ldr	r2, [pc, #112]	; (401494 <SystemCoreClockUpdate+0xfc>)
  401424:	4b19      	ldr	r3, [pc, #100]	; (40148c <SystemCoreClockUpdate+0xf4>)
  401426:	601a      	str	r2, [r3, #0]
  401428:	4b17      	ldr	r3, [pc, #92]	; (401488 <SystemCoreClockUpdate+0xf0>)
  40142a:	6b1b      	ldr	r3, [r3, #48]	; 0x30
  40142c:	f003 0303 	and.w	r3, r3, #3
  401430:	2b02      	cmp	r3, #2
  401432:	d1ba      	bne.n	4013aa <SystemCoreClockUpdate+0x12>
  401434:	4a14      	ldr	r2, [pc, #80]	; (401488 <SystemCoreClockUpdate+0xf0>)
  401436:	6a91      	ldr	r1, [r2, #40]	; 0x28
  401438:	6a92      	ldr	r2, [r2, #40]	; 0x28
  40143a:	4814      	ldr	r0, [pc, #80]	; (40148c <SystemCoreClockUpdate+0xf4>)
  40143c:	f3c1 410a 	ubfx	r1, r1, #16, #11
  401440:	6803      	ldr	r3, [r0, #0]
  401442:	fb01 3303 	mla	r3, r1, r3, r3
  401446:	b2d2      	uxtb	r2, r2
  401448:	fbb3 f3f2 	udiv	r3, r3, r2
  40144c:	6003      	str	r3, [r0, #0]
  40144e:	e7ac      	b.n	4013aa <SystemCoreClockUpdate+0x12>
  401450:	4a11      	ldr	r2, [pc, #68]	; (401498 <SystemCoreClockUpdate+0x100>)
  401452:	4b0e      	ldr	r3, [pc, #56]	; (40148c <SystemCoreClockUpdate+0xf4>)
  401454:	601a      	str	r2, [r3, #0]
  401456:	4b0c      	ldr	r3, [pc, #48]	; (401488 <SystemCoreClockUpdate+0xf0>)
  401458:	6a1b      	ldr	r3, [r3, #32]
  40145a:	f003 0370 	and.w	r3, r3, #112	; 0x70
  40145e:	2b10      	cmp	r3, #16
  401460:	d005      	beq.n	40146e <SystemCoreClockUpdate+0xd6>
  401462:	2b20      	cmp	r3, #32
  401464:	d1e0      	bne.n	401428 <SystemCoreClockUpdate+0x90>
  401466:	4a0b      	ldr	r2, [pc, #44]	; (401494 <SystemCoreClockUpdate+0xfc>)
  401468:	4b08      	ldr	r3, [pc, #32]	; (40148c <SystemCoreClockUpdate+0xf4>)
  40146a:	601a      	str	r2, [r3, #0]
  40146c:	e7dc      	b.n	401428 <SystemCoreClockUpdate+0x90>
  40146e:	4a0b      	ldr	r2, [pc, #44]	; (40149c <SystemCoreClockUpdate+0x104>)
  401470:	4b06      	ldr	r3, [pc, #24]	; (40148c <SystemCoreClockUpdate+0xf4>)
  401472:	601a      	str	r2, [r3, #0]
  401474:	e7d8      	b.n	401428 <SystemCoreClockUpdate+0x90>
  401476:	4a05      	ldr	r2, [pc, #20]	; (40148c <SystemCoreClockUpdate+0xf4>)
  401478:	6813      	ldr	r3, [r2, #0]
  40147a:	4909      	ldr	r1, [pc, #36]	; (4014a0 <SystemCoreClockUpdate+0x108>)
  40147c:	fba1 1303 	umull	r1, r3, r1, r3
  401480:	085b      	lsrs	r3, r3, #1
  401482:	6013      	str	r3, [r2, #0]
  401484:	4770      	bx	lr
  401486:	bf00      	nop
  401488:	400e0600 	.word	0x400e0600
  40148c:	2040001c 	.word	0x2040001c
  401490:	400e1810 	.word	0x400e1810
  401494:	00b71b00 	.word	0x00b71b00
  401498:	003d0900 	.word	0x003d0900
  40149c:	007a1200 	.word	0x007a1200
  4014a0:	aaaaaaab 	.word	0xaaaaaaab

004014a4 <system_init_flash>:
  4014a4:	4b16      	ldr	r3, [pc, #88]	; (401500 <system_init_flash+0x5c>)
  4014a6:	4298      	cmp	r0, r3
  4014a8:	d913      	bls.n	4014d2 <system_init_flash+0x2e>
  4014aa:	4b16      	ldr	r3, [pc, #88]	; (401504 <system_init_flash+0x60>)
  4014ac:	4298      	cmp	r0, r3
  4014ae:	d915      	bls.n	4014dc <system_init_flash+0x38>
  4014b0:	4b15      	ldr	r3, [pc, #84]	; (401508 <system_init_flash+0x64>)
  4014b2:	4298      	cmp	r0, r3
  4014b4:	d916      	bls.n	4014e4 <system_init_flash+0x40>
  4014b6:	4b15      	ldr	r3, [pc, #84]	; (40150c <system_init_flash+0x68>)
  4014b8:	4298      	cmp	r0, r3
  4014ba:	d917      	bls.n	4014ec <system_init_flash+0x48>
  4014bc:	4b14      	ldr	r3, [pc, #80]	; (401510 <system_init_flash+0x6c>)
  4014be:	4298      	cmp	r0, r3
  4014c0:	d918      	bls.n	4014f4 <system_init_flash+0x50>
  4014c2:	4b14      	ldr	r3, [pc, #80]	; (401514 <system_init_flash+0x70>)
  4014c4:	4298      	cmp	r0, r3
  4014c6:	bf94      	ite	ls
  4014c8:	4a13      	ldrls	r2, [pc, #76]	; (401518 <system_init_flash+0x74>)
  4014ca:	4a14      	ldrhi	r2, [pc, #80]	; (40151c <system_init_flash+0x78>)
  4014cc:	4b14      	ldr	r3, [pc, #80]	; (401520 <system_init_flash+0x7c>)
  4014ce:	601a      	str	r2, [r3, #0]
  4014d0:	4770      	bx	lr
  4014d2:	f04f 6280 	mov.w	r2, #67108864	; 0x4000000
  4014d6:	4b12      	ldr	r3, [pc, #72]	; (401520 <system_init_flash+0x7c>)
  4014d8:	601a      	str	r2, [r3, #0]
  4014da:	4770      	bx	lr
  4014dc:	4a11      	ldr	r2, [pc, #68]	; (401524 <system_init_flash+0x80>)
  4014de:	4b10      	ldr	r3, [pc, #64]	; (401520 <system_init_flash+0x7c>)
  4014e0:	601a      	str	r2, [r3, #0]
  4014e2:	4770      	bx	lr
  4014e4:	4a10      	ldr	r2, [pc, #64]	; (401528 <system_init_flash+0x84>)
  4014e6:	4b0e      	ldr	r3, [pc, #56]	; (401520 <system_init_flash+0x7c>)
  4014e8:	601a      	str	r2, [r3, #0]
  4014ea:	4770      	bx	lr
  4014ec:	4a0f      	ldr	r2, [pc, #60]	; (40152c <system_init_flash+0x88>)
  4014ee:	4b0c      	ldr	r3, [pc, #48]	; (401520 <system_init_flash+0x7c>)
  4014f0:	601a      	str	r2, [r3, #0]
  4014f2:	4770      	bx	lr
  4014f4:	f04f 2204 	mov.w	r2, #67109888	; 0x4000400
  4014f8:	4b09      	ldr	r3, [pc, #36]	; (401520 <system_init_flash+0x7c>)
  4014fa:	601a      	str	r2, [r3, #0]
  4014fc:	4770      	bx	lr
  4014fe:	bf00      	nop
  401500:	015ef3bf 	.word	0x015ef3bf
  401504:	02bde77f 	.word	0x02bde77f
  401508:	041cdb3f 	.word	0x041cdb3f
  40150c:	057bceff 	.word	0x057bceff
  401510:	06dac2bf 	.word	0x06dac2bf
  401514:	0839b67f 	.word	0x0839b67f
  401518:	04000500 	.word	0x04000500
  40151c:	04000600 	.word	0x04000600
  401520:	400e0c00 	.word	0x400e0c00
  401524:	04000100 	.word	0x04000100
  401528:	04000200 	.word	0x04000200
  40152c:	04000300 	.word	0x04000300

00401530 <_sbrk>:
  401530:	4b0a      	ldr	r3, [pc, #40]	; (40155c <_sbrk+0x2c>)
  401532:	681b      	ldr	r3, [r3, #0]
  401534:	b153      	cbz	r3, 40154c <_sbrk+0x1c>
  401536:	4b09      	ldr	r3, [pc, #36]	; (40155c <_sbrk+0x2c>)
  401538:	681b      	ldr	r3, [r3, #0]
  40153a:	181a      	adds	r2, r3, r0
  40153c:	4908      	ldr	r1, [pc, #32]	; (401560 <_sbrk+0x30>)
  40153e:	4291      	cmp	r1, r2
  401540:	db08      	blt.n	401554 <_sbrk+0x24>
  401542:	4610      	mov	r0, r2
  401544:	4a05      	ldr	r2, [pc, #20]	; (40155c <_sbrk+0x2c>)
  401546:	6010      	str	r0, [r2, #0]
  401548:	4618      	mov	r0, r3
  40154a:	4770      	bx	lr
  40154c:	4a05      	ldr	r2, [pc, #20]	; (401564 <_sbrk+0x34>)
  40154e:	4b03      	ldr	r3, [pc, #12]	; (40155c <_sbrk+0x2c>)
  401550:	601a      	str	r2, [r3, #0]
  401552:	e7f0      	b.n	401536 <_sbrk+0x6>
  401554:	f04f 30ff 	mov.w	r0, #4294967295
  401558:	4770      	bx	lr
  40155a:	bf00      	nop
  40155c:	20400c6c 	.word	0x20400c6c
  401560:	2045fffc 	.word	0x2045fffc
  401564:	20402f60 	.word	0x20402f60

00401568 <but_callback>:
void io_init(void);
void pisca_led(int n);

void but_callback(void)
{	
	but_flag = 1;
  401568:	2201      	movs	r2, #1
  40156a:	4b01      	ldr	r3, [pc, #4]	; (401570 <but_callback+0x8>)
  40156c:	701a      	strb	r2, [r3, #0]
  40156e:	4770      	bx	lr
  401570:	20400d30 	.word	0x20400d30

00401574 <but_callback2>:
}

void but_callback2(void)
{
	but_flag = 2;
  401574:	2202      	movs	r2, #2
  401576:	4b01      	ldr	r3, [pc, #4]	; (40157c <but_callback2+0x8>)
  401578:	701a      	strb	r2, [r3, #0]
  40157a:	4770      	bx	lr
  40157c:	20400d30 	.word	0x20400d30

00401580 <but_callback3>:
}

void but_callback3(void)
{
	but_flag = 3;
  401580:	2203      	movs	r2, #3
  401582:	4b01      	ldr	r3, [pc, #4]	; (401588 <but_callback3+0x8>)
  401584:	701a      	strb	r2, [r3, #0]
  401586:	4770      	bx	lr
  401588:	20400d30 	.word	0x20400d30
  40158c:	00000000 	.word	0x00000000

00401590 <pisca_led>:
}

void pisca_led(int n){
  401590:	e92d 4ff0 	stmdb	sp!, {r4, r5, r6, r7, r8, r9, sl, fp, lr}
  401594:	ed2d 8b02 	vpush	{d8}
  401598:	b083      	sub	sp, #12
  for (int i=0;i<n;i++){
  40159a:	f1b0 0b00 	subs.w	fp, r0, #0
  40159e:	f340 808d 	ble.w	4016bc <pisca_led+0x12c>
  4015a2:	2400      	movs	r4, #0
	gfx_mono_draw_filled_rect(5, 5, (i+1)*4, 10, GFX_PIXEL_SET);
  4015a4:	f04f 0a01 	mov.w	sl, #1
	if(but_flag == 2){
  4015a8:	4e4d      	ldr	r6, [pc, #308]	; (4016e0 <pisca_led+0x150>)
		i = n;
		but_flag = 0;
	}
	if(but_flag == 3){
		delay += 100;
  4015aa:	4d4e      	ldr	r5, [pc, #312]	; (4016e4 <pisca_led+0x154>)
		if(delay > 1000){
			delay = 1000;
		}
		freq = (double) 1000 / (2 * delay);
  4015ac:	ed9f 8b4a 	vldr	d8, [pc, #296]	; 4016d8 <pisca_led+0x148>
		sprintf(show_display, "Freq: %.2fHz", freq);
		gfx_mono_draw_string(show_display, 5,16, &sysfont);
		but_flag = 0;
	}
    pio_clear(LED1_PIO, LED1_PIO_IDX_MASK);
    delay_ms(delay);
  4015b0:	4f4d      	ldr	r7, [pc, #308]	; (4016e8 <pisca_led+0x158>)
  4015b2:	e036      	b.n	401622 <pisca_led+0x92>
		but_flag = 0;
  4015b4:	2300      	movs	r3, #0
  4015b6:	7033      	strb	r3, [r6, #0]
		i = n;
  4015b8:	465c      	mov	r4, fp
  4015ba:	e042      	b.n	401642 <pisca_led+0xb2>
		delay += 100;
  4015bc:	682b      	ldr	r3, [r5, #0]
  4015be:	3364      	adds	r3, #100	; 0x64
		if(delay > 1000){
  4015c0:	f5b3 7f7a 	cmp.w	r3, #1000	; 0x3e8
			delay = 1000;
  4015c4:	bfc8      	it	gt
  4015c6:	f44f 737a 	movgt.w	r3, #1000	; 0x3e8
  4015ca:	602b      	str	r3, [r5, #0]
		freq = (double) 1000 / (2 * delay);
  4015cc:	6828      	ldr	r0, [r5, #0]
  4015ce:	0040      	lsls	r0, r0, #1
  4015d0:	4b46      	ldr	r3, [pc, #280]	; (4016ec <pisca_led+0x15c>)
  4015d2:	4798      	blx	r3
  4015d4:	4602      	mov	r2, r0
  4015d6:	460b      	mov	r3, r1
  4015d8:	ec51 0b18 	vmov	r0, r1, d8
  4015dc:	f8df 8130 	ldr.w	r8, [pc, #304]	; 401710 <pisca_led+0x180>
  4015e0:	47c0      	blx	r8
  4015e2:	4602      	mov	r2, r0
  4015e4:	460b      	mov	r3, r1
  4015e6:	4942      	ldr	r1, [pc, #264]	; (4016f0 <pisca_led+0x160>)
  4015e8:	e9c1 2300 	strd	r2, r3, [r1]
		sprintf(show_display, "Freq: %.2fHz", freq);
  4015ec:	f8df 8124 	ldr.w	r8, [pc, #292]	; 401714 <pisca_led+0x184>
  4015f0:	4940      	ldr	r1, [pc, #256]	; (4016f4 <pisca_led+0x164>)
  4015f2:	4640      	mov	r0, r8
  4015f4:	f8df 9120 	ldr.w	r9, [pc, #288]	; 401718 <pisca_led+0x188>
  4015f8:	47c8      	blx	r9
		gfx_mono_draw_string(show_display, 5,16, &sysfont);
  4015fa:	4b3f      	ldr	r3, [pc, #252]	; (4016f8 <pisca_led+0x168>)
  4015fc:	2210      	movs	r2, #16
  4015fe:	2105      	movs	r1, #5
  401600:	4640      	mov	r0, r8
  401602:	f8df 8118 	ldr.w	r8, [pc, #280]	; 40171c <pisca_led+0x18c>
  401606:	47c0      	blx	r8
		but_flag = 0;
  401608:	2300      	movs	r3, #0
  40160a:	7033      	strb	r3, [r6, #0]
  40160c:	e01d      	b.n	40164a <pisca_led+0xba>
    delay_ms(delay);
  40160e:	2033      	movs	r0, #51	; 0x33
  401610:	4b3a      	ldr	r3, [pc, #232]	; (4016fc <pisca_led+0x16c>)
  401612:	4798      	blx	r3
  401614:	e035      	b.n	401682 <pisca_led+0xf2>
    pio_set(LED1_PIO, LED1_PIO_IDX_MASK);
    delay_ms(delay);
  401616:	2033      	movs	r0, #51	; 0x33
  401618:	4b38      	ldr	r3, [pc, #224]	; (4016fc <pisca_led+0x16c>)
  40161a:	4798      	blx	r3
  for (int i=0;i<n;i++){
  40161c:	3401      	adds	r4, #1
  40161e:	45a3      	cmp	fp, r4
  401620:	dd4c      	ble.n	4016bc <pisca_led+0x12c>
	gfx_mono_draw_filled_rect(5, 5, (i+1)*4, 10, GFX_PIXEL_SET);
  401622:	1c62      	adds	r2, r4, #1
  401624:	0092      	lsls	r2, r2, #2
  401626:	f8cd a000 	str.w	sl, [sp]
  40162a:	230a      	movs	r3, #10
  40162c:	f002 02fc 	and.w	r2, r2, #252	; 0xfc
  401630:	2105      	movs	r1, #5
  401632:	4608      	mov	r0, r1
  401634:	f8df 80d4 	ldr.w	r8, [pc, #212]	; 40170c <pisca_led+0x17c>
  401638:	47c0      	blx	r8
	if(but_flag == 2){
  40163a:	7833      	ldrb	r3, [r6, #0]
  40163c:	b2db      	uxtb	r3, r3
  40163e:	2b02      	cmp	r3, #2
  401640:	d0b8      	beq.n	4015b4 <pisca_led+0x24>
	if(but_flag == 3){
  401642:	7833      	ldrb	r3, [r6, #0]
  401644:	b2db      	uxtb	r3, r3
  401646:	2b03      	cmp	r3, #3
  401648:	d0b8      	beq.n	4015bc <pisca_led+0x2c>
    pio_clear(LED1_PIO, LED1_PIO_IDX_MASK);
  40164a:	4651      	mov	r1, sl
  40164c:	482c      	ldr	r0, [pc, #176]	; (401700 <pisca_led+0x170>)
  40164e:	4b2d      	ldr	r3, [pc, #180]	; (401704 <pisca_led+0x174>)
  401650:	4798      	blx	r3
    delay_ms(delay);
  401652:	6828      	ldr	r0, [r5, #0]
  401654:	2800      	cmp	r0, #0
  401656:	d0da      	beq.n	40160e <pisca_led+0x7e>
  401658:	17c3      	asrs	r3, r0, #31
  40165a:	fba0 0107 	umull	r0, r1, r0, r7
  40165e:	fb07 1103 	mla	r1, r7, r3, r1
  401662:	f241 722c 	movw	r2, #5932	; 0x172c
  401666:	2300      	movs	r3, #0
  401668:	f241 782b 	movw	r8, #5931	; 0x172b
  40166c:	f04f 0900 	mov.w	r9, #0
  401670:	eb10 0008 	adds.w	r0, r0, r8
  401674:	eb41 0109 	adc.w	r1, r1, r9
  401678:	f8df 80a4 	ldr.w	r8, [pc, #164]	; 401720 <pisca_led+0x190>
  40167c:	47c0      	blx	r8
  40167e:	4b1f      	ldr	r3, [pc, #124]	; (4016fc <pisca_led+0x16c>)
  401680:	4798      	blx	r3
    pio_set(LED1_PIO, LED1_PIO_IDX_MASK);
  401682:	4651      	mov	r1, sl
  401684:	481e      	ldr	r0, [pc, #120]	; (401700 <pisca_led+0x170>)
  401686:	4b20      	ldr	r3, [pc, #128]	; (401708 <pisca_led+0x178>)
  401688:	4798      	blx	r3
    delay_ms(delay);
  40168a:	6828      	ldr	r0, [r5, #0]
  40168c:	2800      	cmp	r0, #0
  40168e:	d0c2      	beq.n	401616 <pisca_led+0x86>
  401690:	17c3      	asrs	r3, r0, #31
  401692:	fba0 0107 	umull	r0, r1, r0, r7
  401696:	fb07 1103 	mla	r1, r7, r3, r1
  40169a:	f241 722c 	movw	r2, #5932	; 0x172c
  40169e:	2300      	movs	r3, #0
  4016a0:	f241 782b 	movw	r8, #5931	; 0x172b
  4016a4:	f04f 0900 	mov.w	r9, #0
  4016a8:	eb10 0008 	adds.w	r0, r0, r8
  4016ac:	eb41 0109 	adc.w	r1, r1, r9
  4016b0:	f8df 806c 	ldr.w	r8, [pc, #108]	; 401720 <pisca_led+0x190>
  4016b4:	47c0      	blx	r8
  4016b6:	4b11      	ldr	r3, [pc, #68]	; (4016fc <pisca_led+0x16c>)
  4016b8:	4798      	blx	r3
  4016ba:	e7af      	b.n	40161c <pisca_led+0x8c>
  }
  gfx_mono_draw_filled_rect(5, 5, 120, 10, GFX_PIXEL_CLR);
  4016bc:	2300      	movs	r3, #0
  4016be:	9300      	str	r3, [sp, #0]
  4016c0:	230a      	movs	r3, #10
  4016c2:	2278      	movs	r2, #120	; 0x78
  4016c4:	2105      	movs	r1, #5
  4016c6:	4608      	mov	r0, r1
  4016c8:	4c10      	ldr	r4, [pc, #64]	; (40170c <pisca_led+0x17c>)
  4016ca:	47a0      	blx	r4
}
  4016cc:	b003      	add	sp, #12
  4016ce:	ecbd 8b02 	vpop	{d8}
  4016d2:	e8bd 8ff0 	ldmia.w	sp!, {r4, r5, r6, r7, r8, r9, sl, fp, pc}
  4016d6:	bf00      	nop
  4016d8:	00000000 	.word	0x00000000
  4016dc:	408f4000 	.word	0x408f4000
  4016e0:	20400d30 	.word	0x20400d30
  4016e4:	20400020 	.word	0x20400020
  4016e8:	11e1a300 	.word	0x11e1a300
  4016ec:	00401cc9 	.word	0x00401cc9
  4016f0:	20400d28 	.word	0x20400d28
  4016f4:	00406d98 	.word	0x00406d98
  4016f8:	2040000c 	.word	0x2040000c
  4016fc:	20400001 	.word	0x20400001
  401700:	400e0e00 	.word	0x400e0e00
  401704:	00400b93 	.word	0x00400b93
  401708:	00400b8f 	.word	0x00400b8f
  40170c:	004004e5 	.word	0x004004e5
  401710:	00401fe9 	.word	0x00401fe9
  401714:	20400ca8 	.word	0x20400ca8
  401718:	004025b5 	.word	0x004025b5
  40171c:	004005c9 	.word	0x004005c9
  401720:	004021b9 	.word	0x004021b9

00401724 <io_init>:

void io_init(void)
{
  401724:	e92d 43f0 	stmdb	sp!, {r4, r5, r6, r7, r8, r9, lr}
  401728:	b083      	sub	sp, #12

  // Configura led
	pmc_enable_periph_clk(LED1_PIO_ID);
  40172a:	200a      	movs	r0, #10
  40172c:	f8df 8120 	ldr.w	r8, [pc, #288]	; 401850 <io_init+0x12c>
  401730:	47c0      	blx	r8
	pio_configure(LED1_PIO, PIO_OUTPUT_0, LED1_PIO_IDX_MASK, PIO_DEFAULT);
  401732:	4c3c      	ldr	r4, [pc, #240]	; (401824 <io_init+0x100>)
  401734:	2300      	movs	r3, #0
  401736:	2201      	movs	r2, #1
  401738:	f04f 5140 	mov.w	r1, #805306368	; 0x30000000
  40173c:	4620      	mov	r0, r4
  40173e:	4f3a      	ldr	r7, [pc, #232]	; (401828 <io_init+0x104>)
  401740:	47b8      	blx	r7

	pmc_enable_periph_clk(BUT1_PIO_ID);
  401742:	2010      	movs	r0, #16
  401744:	47c0      	blx	r8
	pio_configure(BUT1_PIO, PIO_INPUT, BUT1_PIO_IDX_MASK, PIO_PULLUP | PIO_DEBOUNCE);
  401746:	4e39      	ldr	r6, [pc, #228]	; (40182c <io_init+0x108>)
  401748:	2309      	movs	r3, #9
  40174a:	f04f 5280 	mov.w	r2, #268435456	; 0x10000000
  40174e:	f04f 5120 	mov.w	r1, #671088640	; 0x28000000
  401752:	4630      	mov	r0, r6
  401754:	47b8      	blx	r7
	pio_set_debounce_filter(BUT1_PIO, BUT1_PIO_IDX_MASK, 60);
  401756:	223c      	movs	r2, #60	; 0x3c
  401758:	f04f 5180 	mov.w	r1, #268435456	; 0x10000000
  40175c:	4630      	mov	r0, r6
  40175e:	f8df 90f4 	ldr.w	r9, [pc, #244]	; 401854 <io_init+0x130>
  401762:	47c8      	blx	r9

	pmc_enable_periph_clk(BUT2_PIO_ID);
  401764:	200c      	movs	r0, #12
  401766:	47c0      	blx	r8
	pio_configure(BUT2_PIO, PIO_INPUT, BUT2_PIO_IDX_MASK, PIO_PULLUP | PIO_DEBOUNCE);
  401768:	4d31      	ldr	r5, [pc, #196]	; (401830 <io_init+0x10c>)
  40176a:	2309      	movs	r3, #9
  40176c:	f04f 4200 	mov.w	r2, #2147483648	; 0x80000000
  401770:	f04f 5120 	mov.w	r1, #671088640	; 0x28000000
  401774:	4628      	mov	r0, r5
  401776:	47b8      	blx	r7
	pio_set_debounce_filter(BUT2_PIO, BUT2_PIO_IDX_MASK, 60);
  401778:	223c      	movs	r2, #60	; 0x3c
  40177a:	f04f 4100 	mov.w	r1, #2147483648	; 0x80000000
  40177e:	4628      	mov	r0, r5
  401780:	47c8      	blx	r9
	
	pmc_enable_periph_clk(BUT3_PIO_ID);
  401782:	200a      	movs	r0, #10
  401784:	47c0      	blx	r8
	pio_configure(BUT3_PIO, PIO_INPUT, BUT3_PIO_IDX_MASK, PIO_PULLUP | PIO_DEBOUNCE);
  401786:	2309      	movs	r3, #9
  401788:	f44f 2200 	mov.w	r2, #524288	; 0x80000
  40178c:	f04f 5120 	mov.w	r1, #671088640	; 0x28000000
  401790:	4620      	mov	r0, r4
  401792:	47b8      	blx	r7
	pio_set_debounce_filter(BUT3_PIO, BUT3_PIO_IDX_MASK, 60);
  401794:	223c      	movs	r2, #60	; 0x3c
  401796:	f44f 2100 	mov.w	r1, #524288	; 0x80000
  40179a:	4620      	mov	r0, r4
  40179c:	47c8      	blx	r9

  // Configura interrupo no pino referente ao botao e associa
  // funo de callback caso uma interrupo for gerada
  // a funo de callback  a: but_callback()
  pio_handler_set(BUT1_PIO,
  40179e:	4b25      	ldr	r3, [pc, #148]	; (401834 <io_init+0x110>)
  4017a0:	9300      	str	r3, [sp, #0]
  4017a2:	2350      	movs	r3, #80	; 0x50
  4017a4:	f04f 5280 	mov.w	r2, #268435456	; 0x10000000
  4017a8:	2110      	movs	r1, #16
  4017aa:	4630      	mov	r0, r6
  4017ac:	4f22      	ldr	r7, [pc, #136]	; (401838 <io_init+0x114>)
  4017ae:	47b8      	blx	r7
                  BUT1_PIO_ID,
                  BUT1_PIO_IDX_MASK,
				  PIO_IT_FALL_EDGE,
                  but_callback);
				  
  pio_handler_set(BUT2_PIO,
  4017b0:	4b22      	ldr	r3, [pc, #136]	; (40183c <io_init+0x118>)
  4017b2:	9300      	str	r3, [sp, #0]
  4017b4:	2350      	movs	r3, #80	; 0x50
  4017b6:	f04f 4200 	mov.w	r2, #2147483648	; 0x80000000
  4017ba:	210c      	movs	r1, #12
  4017bc:	4628      	mov	r0, r5
  4017be:	47b8      	blx	r7
                  BUT2_PIO_ID,
                  BUT2_PIO_IDX_MASK,
				  PIO_IT_FALL_EDGE,
                  but_callback2);

  pio_handler_set(BUT3_PIO,
  4017c0:	4b1f      	ldr	r3, [pc, #124]	; (401840 <io_init+0x11c>)
  4017c2:	9300      	str	r3, [sp, #0]
  4017c4:	2350      	movs	r3, #80	; 0x50
  4017c6:	f44f 2200 	mov.w	r2, #524288	; 0x80000
  4017ca:	210a      	movs	r1, #10
  4017cc:	4620      	mov	r0, r4
  4017ce:	47b8      	blx	r7
				  PIO_IT_FALL_EDGE,
                  but_callback3);


  // Ativa interrupo e limpa primeira IRQ gerada na ativacao
  pio_enable_interrupt(BUT1_PIO, BUT1_PIO_IDX_MASK);
  4017d0:	f04f 5180 	mov.w	r1, #268435456	; 0x10000000
  4017d4:	4630      	mov	r0, r6
  4017d6:	4f1b      	ldr	r7, [pc, #108]	; (401844 <io_init+0x120>)
  4017d8:	47b8      	blx	r7
  pio_get_interrupt_status(BUT1_PIO);
  4017da:	4630      	mov	r0, r6
  4017dc:	4e1a      	ldr	r6, [pc, #104]	; (401848 <io_init+0x124>)
  4017de:	47b0      	blx	r6
  
  pio_enable_interrupt(BUT2_PIO, BUT2_PIO_IDX_MASK);
  4017e0:	f04f 4100 	mov.w	r1, #2147483648	; 0x80000000
  4017e4:	4628      	mov	r0, r5
  4017e6:	47b8      	blx	r7
  pio_get_interrupt_status(BUT2_PIO);
  4017e8:	4628      	mov	r0, r5
  4017ea:	47b0      	blx	r6
  
  pio_enable_interrupt(BUT3_PIO, BUT3_PIO_IDX_MASK);
  4017ec:	f44f 2100 	mov.w	r1, #524288	; 0x80000
  4017f0:	4620      	mov	r0, r4
  4017f2:	47b8      	blx	r7
  pio_get_interrupt_status(BUT3_PIO);
  4017f4:	4620      	mov	r0, r4
  4017f6:	47b0      	blx	r6
    \param [in]      IRQn  External interrupt number. Value cannot be negative.
 */
__STATIC_INLINE void NVIC_EnableIRQ(IRQn_Type IRQn)
{
/*  NVIC->ISER[((uint32_t)(IRQn) >> 5)] = (1 << ((uint32_t)(IRQn) & 0x1F));  enable interrupt */
  NVIC->ISER[(uint32_t)((int32_t)IRQn) >> 5] = (uint32_t)(1 << ((uint32_t)((int32_t)IRQn) & (uint32_t)0x1F)); /* enable interrupt */
  4017f8:	4b14      	ldr	r3, [pc, #80]	; (40184c <io_init+0x128>)
  4017fa:	f44f 3280 	mov.w	r2, #65536	; 0x10000
  4017fe:	601a      	str	r2, [r3, #0]
__STATIC_INLINE void NVIC_SetPriority(IRQn_Type IRQn, uint32_t priority)
{
  if(IRQn < 0) {
    SCB->SHPR[((uint32_t)(IRQn) & 0xF)-4] = ((priority << (8 - __NVIC_PRIO_BITS)) & 0xff); } /* set Priority for Cortex-M  System Interrupts */
  else {
    NVIC->IP[(uint32_t)(IRQn)]            = ((priority << (8 - __NVIC_PRIO_BITS)) & 0xff); } /* set Priority for device specific Interrupts  */
  401800:	22c0      	movs	r2, #192	; 0xc0
  401802:	f883 2310 	strb.w	r2, [r3, #784]	; 0x310
  NVIC->ISER[(uint32_t)((int32_t)IRQn) >> 5] = (uint32_t)(1 << ((uint32_t)((int32_t)IRQn) & (uint32_t)0x1F)); /* enable interrupt */
  401806:	f44f 5280 	mov.w	r2, #4096	; 0x1000
  40180a:	601a      	str	r2, [r3, #0]
    NVIC->IP[(uint32_t)(IRQn)]            = ((priority << (8 - __NVIC_PRIO_BITS)) & 0xff); } /* set Priority for device specific Interrupts  */
  40180c:	2280      	movs	r2, #128	; 0x80
  40180e:	f883 230c 	strb.w	r2, [r3, #780]	; 0x30c
  NVIC->ISER[(uint32_t)((int32_t)IRQn) >> 5] = (uint32_t)(1 << ((uint32_t)((int32_t)IRQn) & (uint32_t)0x1F)); /* enable interrupt */
  401812:	f44f 6280 	mov.w	r2, #1024	; 0x400
  401816:	601a      	str	r2, [r3, #0]
    NVIC->IP[(uint32_t)(IRQn)]            = ((priority << (8 - __NVIC_PRIO_BITS)) & 0xff); } /* set Priority for device specific Interrupts  */
  401818:	22a0      	movs	r2, #160	; 0xa0
  40181a:	f883 230a 	strb.w	r2, [r3, #778]	; 0x30a
  NVIC_EnableIRQ(BUT2_PIO_ID);
  NVIC_SetPriority(BUT2_PIO_ID, 4); // Prioridade 4
  
    NVIC_EnableIRQ(BUT3_PIO_ID);
  NVIC_SetPriority(BUT3_PIO_ID, 5); // Prioridade 5
}
  40181e:	b003      	add	sp, #12
  401820:	e8bd 83f0 	ldmia.w	sp!, {r4, r5, r6, r7, r8, r9, pc}
  401824:	400e0e00 	.word	0x400e0e00
  401828:	00400ca1 	.word	0x00400ca1
  40182c:	400e1400 	.word	0x400e1400
  401830:	400e1200 	.word	0x400e1200
  401834:	00401569 	.word	0x00401569
  401838:	00400dc1 	.word	0x00400dc1
  40183c:	00401575 	.word	0x00401575
  401840:	00401581 	.word	0x00401581
  401844:	00400d63 	.word	0x00400d63
  401848:	00400d67 	.word	0x00400d67
  40184c:	e000e100 	.word	0xe000e100
  401850:	00400fb5 	.word	0x00400fb5
  401854:	00400b75 	.word	0x00400b75

00401858 <main>:

int main (void)
{
  401858:	e92d 4880 	stmdb	sp!, {r7, fp, lr}
  40185c:	b083      	sub	sp, #12
	board_init();
  40185e:	4b59      	ldr	r3, [pc, #356]	; (4019c4 <main+0x16c>)
  401860:	4798      	blx	r3
	sysclk_init();
  401862:	4b59      	ldr	r3, [pc, #356]	; (4019c8 <main+0x170>)
  401864:	4798      	blx	r3
	delay_init();
	io_init();
  401866:	4b59      	ldr	r3, [pc, #356]	; (4019cc <main+0x174>)
  401868:	4798      	blx	r3
  // Init OLED
	gfx_mono_ssd1306_init();
  40186a:	4b59      	ldr	r3, [pc, #356]	; (4019d0 <main+0x178>)
  40186c:	4798      	blx	r3
	
	freq = (double) 1000 / (2 * delay);
  40186e:	4b59      	ldr	r3, [pc, #356]	; (4019d4 <main+0x17c>)
  401870:	6818      	ldr	r0, [r3, #0]
  401872:	0040      	lsls	r0, r0, #1
  401874:	4b58      	ldr	r3, [pc, #352]	; (4019d8 <main+0x180>)
  401876:	4798      	blx	r3
  401878:	4602      	mov	r2, r0
  40187a:	460b      	mov	r3, r1
  40187c:	2000      	movs	r0, #0
  40187e:	4957      	ldr	r1, [pc, #348]	; (4019dc <main+0x184>)
  401880:	4c57      	ldr	r4, [pc, #348]	; (4019e0 <main+0x188>)
  401882:	47a0      	blx	r4
  401884:	4602      	mov	r2, r0
  401886:	460b      	mov	r3, r1
  401888:	4956      	ldr	r1, [pc, #344]	; (4019e4 <main+0x18c>)
  40188a:	e9c1 2300 	strd	r2, r3, [r1]
	sprintf(show_display, "Freq: %.2fHz", freq);
  40188e:	4c56      	ldr	r4, [pc, #344]	; (4019e8 <main+0x190>)
  401890:	4956      	ldr	r1, [pc, #344]	; (4019ec <main+0x194>)
  401892:	4620      	mov	r0, r4
  401894:	4d56      	ldr	r5, [pc, #344]	; (4019f0 <main+0x198>)
  401896:	47a8      	blx	r5
	gfx_mono_draw_string(show_display, 5,16, &sysfont);
  401898:	4b56      	ldr	r3, [pc, #344]	; (4019f4 <main+0x19c>)
  40189a:	2210      	movs	r2, #16
  40189c:	2105      	movs	r1, #5
  40189e:	4620      	mov	r0, r4
  4018a0:	4c55      	ldr	r4, [pc, #340]	; (4019f8 <main+0x1a0>)
  4018a2:	47a0      	blx	r4
	pio_set(LED1_PIO, LED1_PIO_IDX_MASK);
  4018a4:	2101      	movs	r1, #1
  4018a6:	4855      	ldr	r0, [pc, #340]	; (4019fc <main+0x1a4>)
  4018a8:	4b55      	ldr	r3, [pc, #340]	; (401a00 <main+0x1a8>)
  4018aa:	4798      	blx	r3
	gfx_mono_draw_rect(4, 4, 122, 12, GFX_PIXEL_SET);
  4018ac:	2301      	movs	r3, #1
  4018ae:	9300      	str	r3, [sp, #0]
  4018b0:	230c      	movs	r3, #12
  4018b2:	227a      	movs	r2, #122	; 0x7a
  4018b4:	2104      	movs	r1, #4
  4018b6:	4608      	mov	r0, r1
  4018b8:	4c52      	ldr	r4, [pc, #328]	; (401a04 <main+0x1ac>)
  4018ba:	47a0      	blx	r4
  /* Insert application code here, after the board has been initialized. */
	while(1) {
			if (but_flag == 1) {
  4018bc:	4c52      	ldr	r4, [pc, #328]	; (401a08 <main+0x1b0>)
				but_flag = 0;
				delay_ms(1000);
  4018be:	f8df 915c 	ldr.w	r9, [pc, #348]	; 401a1c <main+0x1c4>
				if (pio_get(BUT1_PIO, PIO_INPUT, BUT1_PIO_IDX_MASK)) {
  4018c2:	f8df 815c 	ldr.w	r8, [pc, #348]	; 401a20 <main+0x1c8>
  4018c6:	4f51      	ldr	r7, [pc, #324]	; (401a0c <main+0x1b4>)
					delay += 100;
					if(delay > 1000){
						delay = 1000;
					}
				}
				freq = (double) 1000 / (2 * delay);
  4018c8:	f04f 0a00 	mov.w	sl, #0
  4018cc:	f8df b10c 	ldr.w	fp, [pc, #268]	; 4019dc <main+0x184>
  4018d0:	e065      	b.n	40199e <main+0x146>
				but_flag = 0;
  4018d2:	2300      	movs	r3, #0
  4018d4:	7023      	strb	r3, [r4, #0]
				delay_ms(1000);
  4018d6:	484e      	ldr	r0, [pc, #312]	; (401a10 <main+0x1b8>)
  4018d8:	47c8      	blx	r9
				if (pio_get(BUT1_PIO, PIO_INPUT, BUT1_PIO_IDX_MASK)) {
  4018da:	f04f 5280 	mov.w	r2, #268435456	; 0x10000000
  4018de:	f04f 5120 	mov.w	r1, #671088640	; 0x28000000
  4018e2:	4640      	mov	r0, r8
  4018e4:	47b8      	blx	r7
  4018e6:	2800      	cmp	r0, #0
  4018e8:	d029      	beq.n	40193e <main+0xe6>
					delay -= 100;
  4018ea:	4b3a      	ldr	r3, [pc, #232]	; (4019d4 <main+0x17c>)
  4018ec:	681b      	ldr	r3, [r3, #0]
  4018ee:	3b64      	subs	r3, #100	; 0x64
					if(delay < 100){
  4018f0:	2b63      	cmp	r3, #99	; 0x63
  4018f2:	dd20      	ble.n	401936 <main+0xde>
					delay -= 100;
  4018f4:	4a37      	ldr	r2, [pc, #220]	; (4019d4 <main+0x17c>)
  4018f6:	6013      	str	r3, [r2, #0]
				freq = (double) 1000 / (2 * delay);
  4018f8:	4b36      	ldr	r3, [pc, #216]	; (4019d4 <main+0x17c>)
  4018fa:	6818      	ldr	r0, [r3, #0]
  4018fc:	0040      	lsls	r0, r0, #1
  4018fe:	4b36      	ldr	r3, [pc, #216]	; (4019d8 <main+0x180>)
  401900:	4798      	blx	r3
  401902:	4602      	mov	r2, r0
  401904:	460b      	mov	r3, r1
  401906:	4650      	mov	r0, sl
  401908:	4659      	mov	r1, fp
  40190a:	4d35      	ldr	r5, [pc, #212]	; (4019e0 <main+0x188>)
  40190c:	47a8      	blx	r5
  40190e:	4602      	mov	r2, r0
  401910:	460b      	mov	r3, r1
  401912:	4934      	ldr	r1, [pc, #208]	; (4019e4 <main+0x18c>)
  401914:	e9c1 2300 	strd	r2, r3, [r1]
				sprintf(show_display, "Freq: %.2fHz", freq);
  401918:	4d33      	ldr	r5, [pc, #204]	; (4019e8 <main+0x190>)
  40191a:	4934      	ldr	r1, [pc, #208]	; (4019ec <main+0x194>)
  40191c:	4628      	mov	r0, r5
  40191e:	4e34      	ldr	r6, [pc, #208]	; (4019f0 <main+0x198>)
  401920:	47b0      	blx	r6
				gfx_mono_draw_string(show_display, 5,16, &sysfont);
  401922:	4b34      	ldr	r3, [pc, #208]	; (4019f4 <main+0x19c>)
  401924:	2210      	movs	r2, #16
  401926:	2105      	movs	r1, #5
  401928:	4628      	mov	r0, r5
  40192a:	4d33      	ldr	r5, [pc, #204]	; (4019f8 <main+0x1a0>)
  40192c:	47a8      	blx	r5
				pisca_led(30);
  40192e:	201e      	movs	r0, #30
  401930:	4b38      	ldr	r3, [pc, #224]	; (401a14 <main+0x1bc>)
  401932:	4798      	blx	r3
  401934:	e037      	b.n	4019a6 <main+0x14e>
						delay = 100;
  401936:	2264      	movs	r2, #100	; 0x64
  401938:	4b26      	ldr	r3, [pc, #152]	; (4019d4 <main+0x17c>)
  40193a:	601a      	str	r2, [r3, #0]
  40193c:	e7dc      	b.n	4018f8 <main+0xa0>
					delay += 100;
  40193e:	4b25      	ldr	r3, [pc, #148]	; (4019d4 <main+0x17c>)
  401940:	681b      	ldr	r3, [r3, #0]
  401942:	3364      	adds	r3, #100	; 0x64
					if(delay > 1000){
  401944:	f5b3 7f7a 	cmp.w	r3, #1000	; 0x3e8
  401948:	dc02      	bgt.n	401950 <main+0xf8>
					delay += 100;
  40194a:	4a22      	ldr	r2, [pc, #136]	; (4019d4 <main+0x17c>)
  40194c:	6013      	str	r3, [r2, #0]
  40194e:	e7d3      	b.n	4018f8 <main+0xa0>
						delay = 1000;
  401950:	f44f 727a 	mov.w	r2, #1000	; 0x3e8
  401954:	4b1f      	ldr	r3, [pc, #124]	; (4019d4 <main+0x17c>)
  401956:	601a      	str	r2, [r3, #0]
  401958:	e7ce      	b.n	4018f8 <main+0xa0>
		   }
			if(but_flag == 3){
				but_flag = 0;
				delay += 100;
				if(delay > 1000){
					delay = 1000;
  40195a:	f44f 727a 	mov.w	r2, #1000	; 0x3e8
  40195e:	4b1d      	ldr	r3, [pc, #116]	; (4019d4 <main+0x17c>)
  401960:	601a      	str	r2, [r3, #0]
				}
				freq = (double) 1000 / (2 * delay);
  401962:	4b1c      	ldr	r3, [pc, #112]	; (4019d4 <main+0x17c>)
  401964:	6818      	ldr	r0, [r3, #0]
  401966:	0040      	lsls	r0, r0, #1
  401968:	4b1b      	ldr	r3, [pc, #108]	; (4019d8 <main+0x180>)
  40196a:	4798      	blx	r3
  40196c:	4602      	mov	r2, r0
  40196e:	460b      	mov	r3, r1
  401970:	4650      	mov	r0, sl
  401972:	4659      	mov	r1, fp
  401974:	4d1a      	ldr	r5, [pc, #104]	; (4019e0 <main+0x188>)
  401976:	47a8      	blx	r5
  401978:	4602      	mov	r2, r0
  40197a:	460b      	mov	r3, r1
  40197c:	4919      	ldr	r1, [pc, #100]	; (4019e4 <main+0x18c>)
  40197e:	e9c1 2300 	strd	r2, r3, [r1]
				sprintf(show_display, "Freq: %.2fHz", freq);
  401982:	4d19      	ldr	r5, [pc, #100]	; (4019e8 <main+0x190>)
  401984:	4919      	ldr	r1, [pc, #100]	; (4019ec <main+0x194>)
  401986:	4628      	mov	r0, r5
  401988:	4e19      	ldr	r6, [pc, #100]	; (4019f0 <main+0x198>)
  40198a:	47b0      	blx	r6
				gfx_mono_draw_string(show_display, 5,16, &sysfont);
  40198c:	4b19      	ldr	r3, [pc, #100]	; (4019f4 <main+0x19c>)
  40198e:	2210      	movs	r2, #16
  401990:	2105      	movs	r1, #5
  401992:	4628      	mov	r0, r5
  401994:	4d18      	ldr	r5, [pc, #96]	; (4019f8 <main+0x1a0>)
  401996:	47a8      	blx	r5
			}
		   
		   // Entra em sleep mode
		   pmc_sleep(SAM_PM_SMODE_SLEEP_WFI); // (1)
  401998:	2002      	movs	r0, #2
  40199a:	4b1f      	ldr	r3, [pc, #124]	; (401a18 <main+0x1c0>)
  40199c:	4798      	blx	r3
			if (but_flag == 1) {
  40199e:	7823      	ldrb	r3, [r4, #0]
  4019a0:	b2db      	uxtb	r3, r3
  4019a2:	2b01      	cmp	r3, #1
  4019a4:	d095      	beq.n	4018d2 <main+0x7a>
			if(but_flag == 3){
  4019a6:	7823      	ldrb	r3, [r4, #0]
  4019a8:	b2db      	uxtb	r3, r3
  4019aa:	2b03      	cmp	r3, #3
  4019ac:	d1f4      	bne.n	401998 <main+0x140>
				but_flag = 0;
  4019ae:	2300      	movs	r3, #0
  4019b0:	7023      	strb	r3, [r4, #0]
				delay += 100;
  4019b2:	4b08      	ldr	r3, [pc, #32]	; (4019d4 <main+0x17c>)
  4019b4:	681b      	ldr	r3, [r3, #0]
  4019b6:	3364      	adds	r3, #100	; 0x64
				if(delay > 1000){
  4019b8:	f5b3 7f7a 	cmp.w	r3, #1000	; 0x3e8
  4019bc:	dccd      	bgt.n	40195a <main+0x102>
				delay += 100;
  4019be:	4a05      	ldr	r2, [pc, #20]	; (4019d4 <main+0x17c>)
  4019c0:	6013      	str	r3, [r2, #0]
  4019c2:	e7ce      	b.n	401962 <main+0x10a>
  4019c4:	00400a35 	.word	0x00400a35
  4019c8:	004009c5 	.word	0x004009c5
  4019cc:	00401725 	.word	0x00401725
  4019d0:	00400661 	.word	0x00400661
  4019d4:	20400020 	.word	0x20400020
  4019d8:	00401cc9 	.word	0x00401cc9
  4019dc:	408f4000 	.word	0x408f4000
  4019e0:	00401fe9 	.word	0x00401fe9
  4019e4:	20400d28 	.word	0x20400d28
  4019e8:	20400ca8 	.word	0x20400ca8
  4019ec:	00406d98 	.word	0x00406d98
  4019f0:	004025b5 	.word	0x004025b5
  4019f4:	2040000c 	.word	0x2040000c
  4019f8:	004005c9 	.word	0x004005c9
  4019fc:	400e0e00 	.word	0x400e0e00
  401a00:	00400b8f 	.word	0x00400b8f
  401a04:	00400495 	.word	0x00400495
  401a08:	20400d30 	.word	0x20400d30
  401a0c:	00400b97 	.word	0x00400b97
  401a10:	0303af6b 	.word	0x0303af6b
  401a14:	00401591 	.word	0x00401591
  401a18:	00401059 	.word	0x00401059
  401a1c:	20400001 	.word	0x20400001
  401a20:	400e1400 	.word	0x400e1400

00401a24 <__aeabi_drsub>:
  401a24:	f081 4100 	eor.w	r1, r1, #2147483648	; 0x80000000
  401a28:	e002      	b.n	401a30 <__adddf3>
  401a2a:	bf00      	nop

00401a2c <__aeabi_dsub>:
  401a2c:	f083 4300 	eor.w	r3, r3, #2147483648	; 0x80000000

00401a30 <__adddf3>:
  401a30:	b530      	push	{r4, r5, lr}
  401a32:	ea4f 0441 	mov.w	r4, r1, lsl #1
  401a36:	ea4f 0543 	mov.w	r5, r3, lsl #1
  401a3a:	ea94 0f05 	teq	r4, r5
  401a3e:	bf08      	it	eq
  401a40:	ea90 0f02 	teqeq	r0, r2
  401a44:	bf1f      	itttt	ne
  401a46:	ea54 0c00 	orrsne.w	ip, r4, r0
  401a4a:	ea55 0c02 	orrsne.w	ip, r5, r2
  401a4e:	ea7f 5c64 	mvnsne.w	ip, r4, asr #21
  401a52:	ea7f 5c65 	mvnsne.w	ip, r5, asr #21
  401a56:	f000 80e2 	beq.w	401c1e <__adddf3+0x1ee>
  401a5a:	ea4f 5454 	mov.w	r4, r4, lsr #21
  401a5e:	ebd4 5555 	rsbs	r5, r4, r5, lsr #21
  401a62:	bfb8      	it	lt
  401a64:	426d      	neglt	r5, r5
  401a66:	dd0c      	ble.n	401a82 <__adddf3+0x52>
  401a68:	442c      	add	r4, r5
  401a6a:	ea80 0202 	eor.w	r2, r0, r2
  401a6e:	ea81 0303 	eor.w	r3, r1, r3
  401a72:	ea82 0000 	eor.w	r0, r2, r0
  401a76:	ea83 0101 	eor.w	r1, r3, r1
  401a7a:	ea80 0202 	eor.w	r2, r0, r2
  401a7e:	ea81 0303 	eor.w	r3, r1, r3
  401a82:	2d36      	cmp	r5, #54	; 0x36
  401a84:	bf88      	it	hi
  401a86:	bd30      	pophi	{r4, r5, pc}
  401a88:	f011 4f00 	tst.w	r1, #2147483648	; 0x80000000
  401a8c:	ea4f 3101 	mov.w	r1, r1, lsl #12
  401a90:	f44f 1c80 	mov.w	ip, #1048576	; 0x100000
  401a94:	ea4c 3111 	orr.w	r1, ip, r1, lsr #12
  401a98:	d002      	beq.n	401aa0 <__adddf3+0x70>
  401a9a:	4240      	negs	r0, r0
  401a9c:	eb61 0141 	sbc.w	r1, r1, r1, lsl #1
  401aa0:	f013 4f00 	tst.w	r3, #2147483648	; 0x80000000
  401aa4:	ea4f 3303 	mov.w	r3, r3, lsl #12
  401aa8:	ea4c 3313 	orr.w	r3, ip, r3, lsr #12
  401aac:	d002      	beq.n	401ab4 <__adddf3+0x84>
  401aae:	4252      	negs	r2, r2
  401ab0:	eb63 0343 	sbc.w	r3, r3, r3, lsl #1
  401ab4:	ea94 0f05 	teq	r4, r5
  401ab8:	f000 80a7 	beq.w	401c0a <__adddf3+0x1da>
  401abc:	f1a4 0401 	sub.w	r4, r4, #1
  401ac0:	f1d5 0e20 	rsbs	lr, r5, #32
  401ac4:	db0d      	blt.n	401ae2 <__adddf3+0xb2>
  401ac6:	fa02 fc0e 	lsl.w	ip, r2, lr
  401aca:	fa22 f205 	lsr.w	r2, r2, r5
  401ace:	1880      	adds	r0, r0, r2
  401ad0:	f141 0100 	adc.w	r1, r1, #0
  401ad4:	fa03 f20e 	lsl.w	r2, r3, lr
  401ad8:	1880      	adds	r0, r0, r2
  401ada:	fa43 f305 	asr.w	r3, r3, r5
  401ade:	4159      	adcs	r1, r3
  401ae0:	e00e      	b.n	401b00 <__adddf3+0xd0>
  401ae2:	f1a5 0520 	sub.w	r5, r5, #32
  401ae6:	f10e 0e20 	add.w	lr, lr, #32
  401aea:	2a01      	cmp	r2, #1
  401aec:	fa03 fc0e 	lsl.w	ip, r3, lr
  401af0:	bf28      	it	cs
  401af2:	f04c 0c02 	orrcs.w	ip, ip, #2
  401af6:	fa43 f305 	asr.w	r3, r3, r5
  401afa:	18c0      	adds	r0, r0, r3
  401afc:	eb51 71e3 	adcs.w	r1, r1, r3, asr #31
  401b00:	f001 4500 	and.w	r5, r1, #2147483648	; 0x80000000
  401b04:	d507      	bpl.n	401b16 <__adddf3+0xe6>
  401b06:	f04f 0e00 	mov.w	lr, #0
  401b0a:	f1dc 0c00 	rsbs	ip, ip, #0
  401b0e:	eb7e 0000 	sbcs.w	r0, lr, r0
  401b12:	eb6e 0101 	sbc.w	r1, lr, r1
  401b16:	f5b1 1f80 	cmp.w	r1, #1048576	; 0x100000
  401b1a:	d31b      	bcc.n	401b54 <__adddf3+0x124>
  401b1c:	f5b1 1f00 	cmp.w	r1, #2097152	; 0x200000
  401b20:	d30c      	bcc.n	401b3c <__adddf3+0x10c>
  401b22:	0849      	lsrs	r1, r1, #1
  401b24:	ea5f 0030 	movs.w	r0, r0, rrx
  401b28:	ea4f 0c3c 	mov.w	ip, ip, rrx
  401b2c:	f104 0401 	add.w	r4, r4, #1
  401b30:	ea4f 5244 	mov.w	r2, r4, lsl #21
  401b34:	f512 0f80 	cmn.w	r2, #4194304	; 0x400000
  401b38:	f080 809a 	bcs.w	401c70 <__adddf3+0x240>
  401b3c:	f1bc 4f00 	cmp.w	ip, #2147483648	; 0x80000000
  401b40:	bf08      	it	eq
  401b42:	ea5f 0c50 	movseq.w	ip, r0, lsr #1
  401b46:	f150 0000 	adcs.w	r0, r0, #0
  401b4a:	eb41 5104 	adc.w	r1, r1, r4, lsl #20
  401b4e:	ea41 0105 	orr.w	r1, r1, r5
  401b52:	bd30      	pop	{r4, r5, pc}
  401b54:	ea5f 0c4c 	movs.w	ip, ip, lsl #1
  401b58:	4140      	adcs	r0, r0
  401b5a:	eb41 0101 	adc.w	r1, r1, r1
  401b5e:	f411 1f80 	tst.w	r1, #1048576	; 0x100000
  401b62:	f1a4 0401 	sub.w	r4, r4, #1
  401b66:	d1e9      	bne.n	401b3c <__adddf3+0x10c>
  401b68:	f091 0f00 	teq	r1, #0
  401b6c:	bf04      	itt	eq
  401b6e:	4601      	moveq	r1, r0
  401b70:	2000      	moveq	r0, #0
  401b72:	fab1 f381 	clz	r3, r1
  401b76:	bf08      	it	eq
  401b78:	3320      	addeq	r3, #32
  401b7a:	f1a3 030b 	sub.w	r3, r3, #11
  401b7e:	f1b3 0220 	subs.w	r2, r3, #32
  401b82:	da0c      	bge.n	401b9e <__adddf3+0x16e>
  401b84:	320c      	adds	r2, #12
  401b86:	dd08      	ble.n	401b9a <__adddf3+0x16a>
  401b88:	f102 0c14 	add.w	ip, r2, #20
  401b8c:	f1c2 020c 	rsb	r2, r2, #12
  401b90:	fa01 f00c 	lsl.w	r0, r1, ip
  401b94:	fa21 f102 	lsr.w	r1, r1, r2
  401b98:	e00c      	b.n	401bb4 <__adddf3+0x184>
  401b9a:	f102 0214 	add.w	r2, r2, #20
  401b9e:	bfd8      	it	le
  401ba0:	f1c2 0c20 	rsble	ip, r2, #32
  401ba4:	fa01 f102 	lsl.w	r1, r1, r2
  401ba8:	fa20 fc0c 	lsr.w	ip, r0, ip
  401bac:	bfdc      	itt	le
  401bae:	ea41 010c 	orrle.w	r1, r1, ip
  401bb2:	4090      	lslle	r0, r2
  401bb4:	1ae4      	subs	r4, r4, r3
  401bb6:	bfa2      	ittt	ge
  401bb8:	eb01 5104 	addge.w	r1, r1, r4, lsl #20
  401bbc:	4329      	orrge	r1, r5
  401bbe:	bd30      	popge	{r4, r5, pc}
  401bc0:	ea6f 0404 	mvn.w	r4, r4
  401bc4:	3c1f      	subs	r4, #31
  401bc6:	da1c      	bge.n	401c02 <__adddf3+0x1d2>
  401bc8:	340c      	adds	r4, #12
  401bca:	dc0e      	bgt.n	401bea <__adddf3+0x1ba>
  401bcc:	f104 0414 	add.w	r4, r4, #20
  401bd0:	f1c4 0220 	rsb	r2, r4, #32
  401bd4:	fa20 f004 	lsr.w	r0, r0, r4
  401bd8:	fa01 f302 	lsl.w	r3, r1, r2
  401bdc:	ea40 0003 	orr.w	r0, r0, r3
  401be0:	fa21 f304 	lsr.w	r3, r1, r4
  401be4:	ea45 0103 	orr.w	r1, r5, r3
  401be8:	bd30      	pop	{r4, r5, pc}
  401bea:	f1c4 040c 	rsb	r4, r4, #12
  401bee:	f1c4 0220 	rsb	r2, r4, #32
  401bf2:	fa20 f002 	lsr.w	r0, r0, r2
  401bf6:	fa01 f304 	lsl.w	r3, r1, r4
  401bfa:	ea40 0003 	orr.w	r0, r0, r3
  401bfe:	4629      	mov	r1, r5
  401c00:	bd30      	pop	{r4, r5, pc}
  401c02:	fa21 f004 	lsr.w	r0, r1, r4
  401c06:	4629      	mov	r1, r5
  401c08:	bd30      	pop	{r4, r5, pc}
  401c0a:	f094 0f00 	teq	r4, #0
  401c0e:	f483 1380 	eor.w	r3, r3, #1048576	; 0x100000
  401c12:	bf06      	itte	eq
  401c14:	f481 1180 	eoreq.w	r1, r1, #1048576	; 0x100000
  401c18:	3401      	addeq	r4, #1
  401c1a:	3d01      	subne	r5, #1
  401c1c:	e74e      	b.n	401abc <__adddf3+0x8c>
  401c1e:	ea7f 5c64 	mvns.w	ip, r4, asr #21
  401c22:	bf18      	it	ne
  401c24:	ea7f 5c65 	mvnsne.w	ip, r5, asr #21
  401c28:	d029      	beq.n	401c7e <__adddf3+0x24e>
  401c2a:	ea94 0f05 	teq	r4, r5
  401c2e:	bf08      	it	eq
  401c30:	ea90 0f02 	teqeq	r0, r2
  401c34:	d005      	beq.n	401c42 <__adddf3+0x212>
  401c36:	ea54 0c00 	orrs.w	ip, r4, r0
  401c3a:	bf04      	itt	eq
  401c3c:	4619      	moveq	r1, r3
  401c3e:	4610      	moveq	r0, r2
  401c40:	bd30      	pop	{r4, r5, pc}
  401c42:	ea91 0f03 	teq	r1, r3
  401c46:	bf1e      	ittt	ne
  401c48:	2100      	movne	r1, #0
  401c4a:	2000      	movne	r0, #0
  401c4c:	bd30      	popne	{r4, r5, pc}
  401c4e:	ea5f 5c54 	movs.w	ip, r4, lsr #21
  401c52:	d105      	bne.n	401c60 <__adddf3+0x230>
  401c54:	0040      	lsls	r0, r0, #1
  401c56:	4149      	adcs	r1, r1
  401c58:	bf28      	it	cs
  401c5a:	f041 4100 	orrcs.w	r1, r1, #2147483648	; 0x80000000
  401c5e:	bd30      	pop	{r4, r5, pc}
  401c60:	f514 0480 	adds.w	r4, r4, #4194304	; 0x400000
  401c64:	bf3c      	itt	cc
  401c66:	f501 1180 	addcc.w	r1, r1, #1048576	; 0x100000
  401c6a:	bd30      	popcc	{r4, r5, pc}
  401c6c:	f001 4500 	and.w	r5, r1, #2147483648	; 0x80000000
  401c70:	f045 41fe 	orr.w	r1, r5, #2130706432	; 0x7f000000
  401c74:	f441 0170 	orr.w	r1, r1, #15728640	; 0xf00000
  401c78:	f04f 0000 	mov.w	r0, #0
  401c7c:	bd30      	pop	{r4, r5, pc}
  401c7e:	ea7f 5c64 	mvns.w	ip, r4, asr #21
  401c82:	bf1a      	itte	ne
  401c84:	4619      	movne	r1, r3
  401c86:	4610      	movne	r0, r2
  401c88:	ea7f 5c65 	mvnseq.w	ip, r5, asr #21
  401c8c:	bf1c      	itt	ne
  401c8e:	460b      	movne	r3, r1
  401c90:	4602      	movne	r2, r0
  401c92:	ea50 3401 	orrs.w	r4, r0, r1, lsl #12
  401c96:	bf06      	itte	eq
  401c98:	ea52 3503 	orrseq.w	r5, r2, r3, lsl #12
  401c9c:	ea91 0f03 	teqeq	r1, r3
  401ca0:	f441 2100 	orrne.w	r1, r1, #524288	; 0x80000
  401ca4:	bd30      	pop	{r4, r5, pc}
  401ca6:	bf00      	nop

00401ca8 <__aeabi_ui2d>:
  401ca8:	f090 0f00 	teq	r0, #0
  401cac:	bf04      	itt	eq
  401cae:	2100      	moveq	r1, #0
  401cb0:	4770      	bxeq	lr
  401cb2:	b530      	push	{r4, r5, lr}
  401cb4:	f44f 6480 	mov.w	r4, #1024	; 0x400
  401cb8:	f104 0432 	add.w	r4, r4, #50	; 0x32
  401cbc:	f04f 0500 	mov.w	r5, #0
  401cc0:	f04f 0100 	mov.w	r1, #0
  401cc4:	e750      	b.n	401b68 <__adddf3+0x138>
  401cc6:	bf00      	nop

00401cc8 <__aeabi_i2d>:
  401cc8:	f090 0f00 	teq	r0, #0
  401ccc:	bf04      	itt	eq
  401cce:	2100      	moveq	r1, #0
  401cd0:	4770      	bxeq	lr
  401cd2:	b530      	push	{r4, r5, lr}
  401cd4:	f44f 6480 	mov.w	r4, #1024	; 0x400
  401cd8:	f104 0432 	add.w	r4, r4, #50	; 0x32
  401cdc:	f010 4500 	ands.w	r5, r0, #2147483648	; 0x80000000
  401ce0:	bf48      	it	mi
  401ce2:	4240      	negmi	r0, r0
  401ce4:	f04f 0100 	mov.w	r1, #0
  401ce8:	e73e      	b.n	401b68 <__adddf3+0x138>
  401cea:	bf00      	nop

00401cec <__aeabi_f2d>:
  401cec:	0042      	lsls	r2, r0, #1
  401cee:	ea4f 01e2 	mov.w	r1, r2, asr #3
  401cf2:	ea4f 0131 	mov.w	r1, r1, rrx
  401cf6:	ea4f 7002 	mov.w	r0, r2, lsl #28
  401cfa:	bf1f      	itttt	ne
  401cfc:	f012 437f 	andsne.w	r3, r2, #4278190080	; 0xff000000
  401d00:	f093 4f7f 	teqne	r3, #4278190080	; 0xff000000
  401d04:	f081 5160 	eorne.w	r1, r1, #939524096	; 0x38000000
  401d08:	4770      	bxne	lr
  401d0a:	f092 0f00 	teq	r2, #0
  401d0e:	bf14      	ite	ne
  401d10:	f093 4f7f 	teqne	r3, #4278190080	; 0xff000000
  401d14:	4770      	bxeq	lr
  401d16:	b530      	push	{r4, r5, lr}
  401d18:	f44f 7460 	mov.w	r4, #896	; 0x380
  401d1c:	f001 4500 	and.w	r5, r1, #2147483648	; 0x80000000
  401d20:	f021 4100 	bic.w	r1, r1, #2147483648	; 0x80000000
  401d24:	e720      	b.n	401b68 <__adddf3+0x138>
  401d26:	bf00      	nop

00401d28 <__aeabi_ul2d>:
  401d28:	ea50 0201 	orrs.w	r2, r0, r1
  401d2c:	bf08      	it	eq
  401d2e:	4770      	bxeq	lr
  401d30:	b530      	push	{r4, r5, lr}
  401d32:	f04f 0500 	mov.w	r5, #0
  401d36:	e00a      	b.n	401d4e <__aeabi_l2d+0x16>

00401d38 <__aeabi_l2d>:
  401d38:	ea50 0201 	orrs.w	r2, r0, r1
  401d3c:	bf08      	it	eq
  401d3e:	4770      	bxeq	lr
  401d40:	b530      	push	{r4, r5, lr}
  401d42:	f011 4500 	ands.w	r5, r1, #2147483648	; 0x80000000
  401d46:	d502      	bpl.n	401d4e <__aeabi_l2d+0x16>
  401d48:	4240      	negs	r0, r0
  401d4a:	eb61 0141 	sbc.w	r1, r1, r1, lsl #1
  401d4e:	f44f 6480 	mov.w	r4, #1024	; 0x400
  401d52:	f104 0432 	add.w	r4, r4, #50	; 0x32
  401d56:	ea5f 5c91 	movs.w	ip, r1, lsr #22
  401d5a:	f43f aedc 	beq.w	401b16 <__adddf3+0xe6>
  401d5e:	f04f 0203 	mov.w	r2, #3
  401d62:	ea5f 0cdc 	movs.w	ip, ip, lsr #3
  401d66:	bf18      	it	ne
  401d68:	3203      	addne	r2, #3
  401d6a:	ea5f 0cdc 	movs.w	ip, ip, lsr #3
  401d6e:	bf18      	it	ne
  401d70:	3203      	addne	r2, #3
  401d72:	eb02 02dc 	add.w	r2, r2, ip, lsr #3
  401d76:	f1c2 0320 	rsb	r3, r2, #32
  401d7a:	fa00 fc03 	lsl.w	ip, r0, r3
  401d7e:	fa20 f002 	lsr.w	r0, r0, r2
  401d82:	fa01 fe03 	lsl.w	lr, r1, r3
  401d86:	ea40 000e 	orr.w	r0, r0, lr
  401d8a:	fa21 f102 	lsr.w	r1, r1, r2
  401d8e:	4414      	add	r4, r2
  401d90:	e6c1      	b.n	401b16 <__adddf3+0xe6>
  401d92:	bf00      	nop

00401d94 <__aeabi_dmul>:
  401d94:	b570      	push	{r4, r5, r6, lr}
  401d96:	f04f 0cff 	mov.w	ip, #255	; 0xff
  401d9a:	f44c 6ce0 	orr.w	ip, ip, #1792	; 0x700
  401d9e:	ea1c 5411 	ands.w	r4, ip, r1, lsr #20
  401da2:	bf1d      	ittte	ne
  401da4:	ea1c 5513 	andsne.w	r5, ip, r3, lsr #20
  401da8:	ea94 0f0c 	teqne	r4, ip
  401dac:	ea95 0f0c 	teqne	r5, ip
  401db0:	f000 f8de 	bleq	401f70 <__aeabi_dmul+0x1dc>
  401db4:	442c      	add	r4, r5
  401db6:	ea81 0603 	eor.w	r6, r1, r3
  401dba:	ea21 514c 	bic.w	r1, r1, ip, lsl #21
  401dbe:	ea23 534c 	bic.w	r3, r3, ip, lsl #21
  401dc2:	ea50 3501 	orrs.w	r5, r0, r1, lsl #12
  401dc6:	bf18      	it	ne
  401dc8:	ea52 3503 	orrsne.w	r5, r2, r3, lsl #12
  401dcc:	f441 1180 	orr.w	r1, r1, #1048576	; 0x100000
  401dd0:	f443 1380 	orr.w	r3, r3, #1048576	; 0x100000
  401dd4:	d038      	beq.n	401e48 <__aeabi_dmul+0xb4>
  401dd6:	fba0 ce02 	umull	ip, lr, r0, r2
  401dda:	f04f 0500 	mov.w	r5, #0
  401dde:	fbe1 e502 	umlal	lr, r5, r1, r2
  401de2:	f006 4200 	and.w	r2, r6, #2147483648	; 0x80000000
  401de6:	fbe0 e503 	umlal	lr, r5, r0, r3
  401dea:	f04f 0600 	mov.w	r6, #0
  401dee:	fbe1 5603 	umlal	r5, r6, r1, r3
  401df2:	f09c 0f00 	teq	ip, #0
  401df6:	bf18      	it	ne
  401df8:	f04e 0e01 	orrne.w	lr, lr, #1
  401dfc:	f1a4 04ff 	sub.w	r4, r4, #255	; 0xff
  401e00:	f5b6 7f00 	cmp.w	r6, #512	; 0x200
  401e04:	f564 7440 	sbc.w	r4, r4, #768	; 0x300
  401e08:	d204      	bcs.n	401e14 <__aeabi_dmul+0x80>
  401e0a:	ea5f 0e4e 	movs.w	lr, lr, lsl #1
  401e0e:	416d      	adcs	r5, r5
  401e10:	eb46 0606 	adc.w	r6, r6, r6
  401e14:	ea42 21c6 	orr.w	r1, r2, r6, lsl #11
  401e18:	ea41 5155 	orr.w	r1, r1, r5, lsr #21
  401e1c:	ea4f 20c5 	mov.w	r0, r5, lsl #11
  401e20:	ea40 505e 	orr.w	r0, r0, lr, lsr #21
  401e24:	ea4f 2ece 	mov.w	lr, lr, lsl #11
  401e28:	f1b4 0cfd 	subs.w	ip, r4, #253	; 0xfd
  401e2c:	bf88      	it	hi
  401e2e:	f5bc 6fe0 	cmphi.w	ip, #1792	; 0x700
  401e32:	d81e      	bhi.n	401e72 <__aeabi_dmul+0xde>
  401e34:	f1be 4f00 	cmp.w	lr, #2147483648	; 0x80000000
  401e38:	bf08      	it	eq
  401e3a:	ea5f 0e50 	movseq.w	lr, r0, lsr #1
  401e3e:	f150 0000 	adcs.w	r0, r0, #0
  401e42:	eb41 5104 	adc.w	r1, r1, r4, lsl #20
  401e46:	bd70      	pop	{r4, r5, r6, pc}
  401e48:	f006 4600 	and.w	r6, r6, #2147483648	; 0x80000000
  401e4c:	ea46 0101 	orr.w	r1, r6, r1
  401e50:	ea40 0002 	orr.w	r0, r0, r2
  401e54:	ea81 0103 	eor.w	r1, r1, r3
  401e58:	ebb4 045c 	subs.w	r4, r4, ip, lsr #1
  401e5c:	bfc2      	ittt	gt
  401e5e:	ebd4 050c 	rsbsgt	r5, r4, ip
  401e62:	ea41 5104 	orrgt.w	r1, r1, r4, lsl #20
  401e66:	bd70      	popgt	{r4, r5, r6, pc}
  401e68:	f441 1180 	orr.w	r1, r1, #1048576	; 0x100000
  401e6c:	f04f 0e00 	mov.w	lr, #0
  401e70:	3c01      	subs	r4, #1
  401e72:	f300 80ab 	bgt.w	401fcc <__aeabi_dmul+0x238>
  401e76:	f114 0f36 	cmn.w	r4, #54	; 0x36
  401e7a:	bfde      	ittt	le
  401e7c:	2000      	movle	r0, #0
  401e7e:	f001 4100 	andle.w	r1, r1, #2147483648	; 0x80000000
  401e82:	bd70      	pople	{r4, r5, r6, pc}
  401e84:	f1c4 0400 	rsb	r4, r4, #0
  401e88:	3c20      	subs	r4, #32
  401e8a:	da35      	bge.n	401ef8 <__aeabi_dmul+0x164>
  401e8c:	340c      	adds	r4, #12
  401e8e:	dc1b      	bgt.n	401ec8 <__aeabi_dmul+0x134>
  401e90:	f104 0414 	add.w	r4, r4, #20
  401e94:	f1c4 0520 	rsb	r5, r4, #32
  401e98:	fa00 f305 	lsl.w	r3, r0, r5
  401e9c:	fa20 f004 	lsr.w	r0, r0, r4
  401ea0:	fa01 f205 	lsl.w	r2, r1, r5
  401ea4:	ea40 0002 	orr.w	r0, r0, r2
  401ea8:	f001 4200 	and.w	r2, r1, #2147483648	; 0x80000000
  401eac:	f021 4100 	bic.w	r1, r1, #2147483648	; 0x80000000
  401eb0:	eb10 70d3 	adds.w	r0, r0, r3, lsr #31
  401eb4:	fa21 f604 	lsr.w	r6, r1, r4
  401eb8:	eb42 0106 	adc.w	r1, r2, r6
  401ebc:	ea5e 0e43 	orrs.w	lr, lr, r3, lsl #1
  401ec0:	bf08      	it	eq
  401ec2:	ea20 70d3 	biceq.w	r0, r0, r3, lsr #31
  401ec6:	bd70      	pop	{r4, r5, r6, pc}
  401ec8:	f1c4 040c 	rsb	r4, r4, #12
  401ecc:	f1c4 0520 	rsb	r5, r4, #32
  401ed0:	fa00 f304 	lsl.w	r3, r0, r4
  401ed4:	fa20 f005 	lsr.w	r0, r0, r5
  401ed8:	fa01 f204 	lsl.w	r2, r1, r4
  401edc:	ea40 0002 	orr.w	r0, r0, r2
  401ee0:	f001 4100 	and.w	r1, r1, #2147483648	; 0x80000000
  401ee4:	eb10 70d3 	adds.w	r0, r0, r3, lsr #31
  401ee8:	f141 0100 	adc.w	r1, r1, #0
  401eec:	ea5e 0e43 	orrs.w	lr, lr, r3, lsl #1
  401ef0:	bf08      	it	eq
  401ef2:	ea20 70d3 	biceq.w	r0, r0, r3, lsr #31
  401ef6:	bd70      	pop	{r4, r5, r6, pc}
  401ef8:	f1c4 0520 	rsb	r5, r4, #32
  401efc:	fa00 f205 	lsl.w	r2, r0, r5
  401f00:	ea4e 0e02 	orr.w	lr, lr, r2
  401f04:	fa20 f304 	lsr.w	r3, r0, r4
  401f08:	fa01 f205 	lsl.w	r2, r1, r5
  401f0c:	ea43 0302 	orr.w	r3, r3, r2
  401f10:	fa21 f004 	lsr.w	r0, r1, r4
  401f14:	f001 4100 	and.w	r1, r1, #2147483648	; 0x80000000
  401f18:	fa21 f204 	lsr.w	r2, r1, r4
  401f1c:	ea20 0002 	bic.w	r0, r0, r2
  401f20:	eb00 70d3 	add.w	r0, r0, r3, lsr #31
  401f24:	ea5e 0e43 	orrs.w	lr, lr, r3, lsl #1
  401f28:	bf08      	it	eq
  401f2a:	ea20 70d3 	biceq.w	r0, r0, r3, lsr #31
  401f2e:	bd70      	pop	{r4, r5, r6, pc}
  401f30:	f094 0f00 	teq	r4, #0
  401f34:	d10f      	bne.n	401f56 <__aeabi_dmul+0x1c2>
  401f36:	f001 4600 	and.w	r6, r1, #2147483648	; 0x80000000
  401f3a:	0040      	lsls	r0, r0, #1
  401f3c:	eb41 0101 	adc.w	r1, r1, r1
  401f40:	f411 1f80 	tst.w	r1, #1048576	; 0x100000
  401f44:	bf08      	it	eq
  401f46:	3c01      	subeq	r4, #1
  401f48:	d0f7      	beq.n	401f3a <__aeabi_dmul+0x1a6>
  401f4a:	ea41 0106 	orr.w	r1, r1, r6
  401f4e:	f095 0f00 	teq	r5, #0
  401f52:	bf18      	it	ne
  401f54:	4770      	bxne	lr
  401f56:	f003 4600 	and.w	r6, r3, #2147483648	; 0x80000000
  401f5a:	0052      	lsls	r2, r2, #1
  401f5c:	eb43 0303 	adc.w	r3, r3, r3
  401f60:	f413 1f80 	tst.w	r3, #1048576	; 0x100000
  401f64:	bf08      	it	eq
  401f66:	3d01      	subeq	r5, #1
  401f68:	d0f7      	beq.n	401f5a <__aeabi_dmul+0x1c6>
  401f6a:	ea43 0306 	orr.w	r3, r3, r6
  401f6e:	4770      	bx	lr
  401f70:	ea94 0f0c 	teq	r4, ip
  401f74:	ea0c 5513 	and.w	r5, ip, r3, lsr #20
  401f78:	bf18      	it	ne
  401f7a:	ea95 0f0c 	teqne	r5, ip
  401f7e:	d00c      	beq.n	401f9a <__aeabi_dmul+0x206>
  401f80:	ea50 0641 	orrs.w	r6, r0, r1, lsl #1
  401f84:	bf18      	it	ne
  401f86:	ea52 0643 	orrsne.w	r6, r2, r3, lsl #1
  401f8a:	d1d1      	bne.n	401f30 <__aeabi_dmul+0x19c>
  401f8c:	ea81 0103 	eor.w	r1, r1, r3
  401f90:	f001 4100 	and.w	r1, r1, #2147483648	; 0x80000000
  401f94:	f04f 0000 	mov.w	r0, #0
  401f98:	bd70      	pop	{r4, r5, r6, pc}
  401f9a:	ea50 0641 	orrs.w	r6, r0, r1, lsl #1
  401f9e:	bf06      	itte	eq
  401fa0:	4610      	moveq	r0, r2
  401fa2:	4619      	moveq	r1, r3
  401fa4:	ea52 0643 	orrsne.w	r6, r2, r3, lsl #1
  401fa8:	d019      	beq.n	401fde <__aeabi_dmul+0x24a>
  401faa:	ea94 0f0c 	teq	r4, ip
  401fae:	d102      	bne.n	401fb6 <__aeabi_dmul+0x222>
  401fb0:	ea50 3601 	orrs.w	r6, r0, r1, lsl #12
  401fb4:	d113      	bne.n	401fde <__aeabi_dmul+0x24a>
  401fb6:	ea95 0f0c 	teq	r5, ip
  401fba:	d105      	bne.n	401fc8 <__aeabi_dmul+0x234>
  401fbc:	ea52 3603 	orrs.w	r6, r2, r3, lsl #12
  401fc0:	bf1c      	itt	ne
  401fc2:	4610      	movne	r0, r2
  401fc4:	4619      	movne	r1, r3
  401fc6:	d10a      	bne.n	401fde <__aeabi_dmul+0x24a>
  401fc8:	ea81 0103 	eor.w	r1, r1, r3
  401fcc:	f001 4100 	and.w	r1, r1, #2147483648	; 0x80000000
  401fd0:	f041 41fe 	orr.w	r1, r1, #2130706432	; 0x7f000000
  401fd4:	f441 0170 	orr.w	r1, r1, #15728640	; 0xf00000
  401fd8:	f04f 0000 	mov.w	r0, #0
  401fdc:	bd70      	pop	{r4, r5, r6, pc}
  401fde:	f041 41fe 	orr.w	r1, r1, #2130706432	; 0x7f000000
  401fe2:	f441 0178 	orr.w	r1, r1, #16252928	; 0xf80000
  401fe6:	bd70      	pop	{r4, r5, r6, pc}

00401fe8 <__aeabi_ddiv>:
  401fe8:	b570      	push	{r4, r5, r6, lr}
  401fea:	f04f 0cff 	mov.w	ip, #255	; 0xff
  401fee:	f44c 6ce0 	orr.w	ip, ip, #1792	; 0x700
  401ff2:	ea1c 5411 	ands.w	r4, ip, r1, lsr #20
  401ff6:	bf1d      	ittte	ne
  401ff8:	ea1c 5513 	andsne.w	r5, ip, r3, lsr #20
  401ffc:	ea94 0f0c 	teqne	r4, ip
  402000:	ea95 0f0c 	teqne	r5, ip
  402004:	f000 f8a7 	bleq	402156 <__aeabi_ddiv+0x16e>
  402008:	eba4 0405 	sub.w	r4, r4, r5
  40200c:	ea81 0e03 	eor.w	lr, r1, r3
  402010:	ea52 3503 	orrs.w	r5, r2, r3, lsl #12
  402014:	ea4f 3101 	mov.w	r1, r1, lsl #12
  402018:	f000 8088 	beq.w	40212c <__aeabi_ddiv+0x144>
  40201c:	ea4f 3303 	mov.w	r3, r3, lsl #12
  402020:	f04f 5580 	mov.w	r5, #268435456	; 0x10000000
  402024:	ea45 1313 	orr.w	r3, r5, r3, lsr #4
  402028:	ea43 6312 	orr.w	r3, r3, r2, lsr #24
  40202c:	ea4f 2202 	mov.w	r2, r2, lsl #8
  402030:	ea45 1511 	orr.w	r5, r5, r1, lsr #4
  402034:	ea45 6510 	orr.w	r5, r5, r0, lsr #24
  402038:	ea4f 2600 	mov.w	r6, r0, lsl #8
  40203c:	f00e 4100 	and.w	r1, lr, #2147483648	; 0x80000000
  402040:	429d      	cmp	r5, r3
  402042:	bf08      	it	eq
  402044:	4296      	cmpeq	r6, r2
  402046:	f144 04fd 	adc.w	r4, r4, #253	; 0xfd
  40204a:	f504 7440 	add.w	r4, r4, #768	; 0x300
  40204e:	d202      	bcs.n	402056 <__aeabi_ddiv+0x6e>
  402050:	085b      	lsrs	r3, r3, #1
  402052:	ea4f 0232 	mov.w	r2, r2, rrx
  402056:	1ab6      	subs	r6, r6, r2
  402058:	eb65 0503 	sbc.w	r5, r5, r3
  40205c:	085b      	lsrs	r3, r3, #1
  40205e:	ea4f 0232 	mov.w	r2, r2, rrx
  402062:	f44f 1080 	mov.w	r0, #1048576	; 0x100000
  402066:	f44f 2c00 	mov.w	ip, #524288	; 0x80000
  40206a:	ebb6 0e02 	subs.w	lr, r6, r2
  40206e:	eb75 0e03 	sbcs.w	lr, r5, r3
  402072:	bf22      	ittt	cs
  402074:	1ab6      	subcs	r6, r6, r2
  402076:	4675      	movcs	r5, lr
  402078:	ea40 000c 	orrcs.w	r0, r0, ip
  40207c:	085b      	lsrs	r3, r3, #1
  40207e:	ea4f 0232 	mov.w	r2, r2, rrx
  402082:	ebb6 0e02 	subs.w	lr, r6, r2
  402086:	eb75 0e03 	sbcs.w	lr, r5, r3
  40208a:	bf22      	ittt	cs
  40208c:	1ab6      	subcs	r6, r6, r2
  40208e:	4675      	movcs	r5, lr
  402090:	ea40 005c 	orrcs.w	r0, r0, ip, lsr #1
  402094:	085b      	lsrs	r3, r3, #1
  402096:	ea4f 0232 	mov.w	r2, r2, rrx
  40209a:	ebb6 0e02 	subs.w	lr, r6, r2
  40209e:	eb75 0e03 	sbcs.w	lr, r5, r3
  4020a2:	bf22      	ittt	cs
  4020a4:	1ab6      	subcs	r6, r6, r2
  4020a6:	4675      	movcs	r5, lr
  4020a8:	ea40 009c 	orrcs.w	r0, r0, ip, lsr #2
  4020ac:	085b      	lsrs	r3, r3, #1
  4020ae:	ea4f 0232 	mov.w	r2, r2, rrx
  4020b2:	ebb6 0e02 	subs.w	lr, r6, r2
  4020b6:	eb75 0e03 	sbcs.w	lr, r5, r3
  4020ba:	bf22      	ittt	cs
  4020bc:	1ab6      	subcs	r6, r6, r2
  4020be:	4675      	movcs	r5, lr
  4020c0:	ea40 00dc 	orrcs.w	r0, r0, ip, lsr #3
  4020c4:	ea55 0e06 	orrs.w	lr, r5, r6
  4020c8:	d018      	beq.n	4020fc <__aeabi_ddiv+0x114>
  4020ca:	ea4f 1505 	mov.w	r5, r5, lsl #4
  4020ce:	ea45 7516 	orr.w	r5, r5, r6, lsr #28
  4020d2:	ea4f 1606 	mov.w	r6, r6, lsl #4
  4020d6:	ea4f 03c3 	mov.w	r3, r3, lsl #3
  4020da:	ea43 7352 	orr.w	r3, r3, r2, lsr #29
  4020de:	ea4f 02c2 	mov.w	r2, r2, lsl #3
  4020e2:	ea5f 1c1c 	movs.w	ip, ip, lsr #4
  4020e6:	d1c0      	bne.n	40206a <__aeabi_ddiv+0x82>
  4020e8:	f411 1f80 	tst.w	r1, #1048576	; 0x100000
  4020ec:	d10b      	bne.n	402106 <__aeabi_ddiv+0x11e>
  4020ee:	ea41 0100 	orr.w	r1, r1, r0
  4020f2:	f04f 0000 	mov.w	r0, #0
  4020f6:	f04f 4c00 	mov.w	ip, #2147483648	; 0x80000000
  4020fa:	e7b6      	b.n	40206a <__aeabi_ddiv+0x82>
  4020fc:	f411 1f80 	tst.w	r1, #1048576	; 0x100000
  402100:	bf04      	itt	eq
  402102:	4301      	orreq	r1, r0
  402104:	2000      	moveq	r0, #0
  402106:	f1b4 0cfd 	subs.w	ip, r4, #253	; 0xfd
  40210a:	bf88      	it	hi
  40210c:	f5bc 6fe0 	cmphi.w	ip, #1792	; 0x700
  402110:	f63f aeaf 	bhi.w	401e72 <__aeabi_dmul+0xde>
  402114:	ebb5 0c03 	subs.w	ip, r5, r3
  402118:	bf04      	itt	eq
  40211a:	ebb6 0c02 	subseq.w	ip, r6, r2
  40211e:	ea5f 0c50 	movseq.w	ip, r0, lsr #1
  402122:	f150 0000 	adcs.w	r0, r0, #0
  402126:	eb41 5104 	adc.w	r1, r1, r4, lsl #20
  40212a:	bd70      	pop	{r4, r5, r6, pc}
  40212c:	f00e 4e00 	and.w	lr, lr, #2147483648	; 0x80000000
  402130:	ea4e 3111 	orr.w	r1, lr, r1, lsr #12
  402134:	eb14 045c 	adds.w	r4, r4, ip, lsr #1
  402138:	bfc2      	ittt	gt
  40213a:	ebd4 050c 	rsbsgt	r5, r4, ip
  40213e:	ea41 5104 	orrgt.w	r1, r1, r4, lsl #20
  402142:	bd70      	popgt	{r4, r5, r6, pc}
  402144:	f441 1180 	orr.w	r1, r1, #1048576	; 0x100000
  402148:	f04f 0e00 	mov.w	lr, #0
  40214c:	3c01      	subs	r4, #1
  40214e:	e690      	b.n	401e72 <__aeabi_dmul+0xde>
  402150:	ea45 0e06 	orr.w	lr, r5, r6
  402154:	e68d      	b.n	401e72 <__aeabi_dmul+0xde>
  402156:	ea0c 5513 	and.w	r5, ip, r3, lsr #20
  40215a:	ea94 0f0c 	teq	r4, ip
  40215e:	bf08      	it	eq
  402160:	ea95 0f0c 	teqeq	r5, ip
  402164:	f43f af3b 	beq.w	401fde <__aeabi_dmul+0x24a>
  402168:	ea94 0f0c 	teq	r4, ip
  40216c:	d10a      	bne.n	402184 <__aeabi_ddiv+0x19c>
  40216e:	ea50 3401 	orrs.w	r4, r0, r1, lsl #12
  402172:	f47f af34 	bne.w	401fde <__aeabi_dmul+0x24a>
  402176:	ea95 0f0c 	teq	r5, ip
  40217a:	f47f af25 	bne.w	401fc8 <__aeabi_dmul+0x234>
  40217e:	4610      	mov	r0, r2
  402180:	4619      	mov	r1, r3
  402182:	e72c      	b.n	401fde <__aeabi_dmul+0x24a>
  402184:	ea95 0f0c 	teq	r5, ip
  402188:	d106      	bne.n	402198 <__aeabi_ddiv+0x1b0>
  40218a:	ea52 3503 	orrs.w	r5, r2, r3, lsl #12
  40218e:	f43f aefd 	beq.w	401f8c <__aeabi_dmul+0x1f8>
  402192:	4610      	mov	r0, r2
  402194:	4619      	mov	r1, r3
  402196:	e722      	b.n	401fde <__aeabi_dmul+0x24a>
  402198:	ea50 0641 	orrs.w	r6, r0, r1, lsl #1
  40219c:	bf18      	it	ne
  40219e:	ea52 0643 	orrsne.w	r6, r2, r3, lsl #1
  4021a2:	f47f aec5 	bne.w	401f30 <__aeabi_dmul+0x19c>
  4021a6:	ea50 0441 	orrs.w	r4, r0, r1, lsl #1
  4021aa:	f47f af0d 	bne.w	401fc8 <__aeabi_dmul+0x234>
  4021ae:	ea52 0543 	orrs.w	r5, r2, r3, lsl #1
  4021b2:	f47f aeeb 	bne.w	401f8c <__aeabi_dmul+0x1f8>
  4021b6:	e712      	b.n	401fde <__aeabi_dmul+0x24a>

004021b8 <__aeabi_uldivmod>:
  4021b8:	b953      	cbnz	r3, 4021d0 <__aeabi_uldivmod+0x18>
  4021ba:	b94a      	cbnz	r2, 4021d0 <__aeabi_uldivmod+0x18>
  4021bc:	2900      	cmp	r1, #0
  4021be:	bf08      	it	eq
  4021c0:	2800      	cmpeq	r0, #0
  4021c2:	bf1c      	itt	ne
  4021c4:	f04f 31ff 	movne.w	r1, #4294967295
  4021c8:	f04f 30ff 	movne.w	r0, #4294967295
  4021cc:	f000 b97a 	b.w	4024c4 <__aeabi_idiv0>
  4021d0:	f1ad 0c08 	sub.w	ip, sp, #8
  4021d4:	e96d ce04 	strd	ip, lr, [sp, #-16]!
  4021d8:	f000 f806 	bl	4021e8 <__udivmoddi4>
  4021dc:	f8dd e004 	ldr.w	lr, [sp, #4]
  4021e0:	e9dd 2302 	ldrd	r2, r3, [sp, #8]
  4021e4:	b004      	add	sp, #16
  4021e6:	4770      	bx	lr

004021e8 <__udivmoddi4>:
  4021e8:	e92d 47f0 	stmdb	sp!, {r4, r5, r6, r7, r8, r9, sl, lr}
  4021ec:	468c      	mov	ip, r1
  4021ee:	460d      	mov	r5, r1
  4021f0:	4604      	mov	r4, r0
  4021f2:	9e08      	ldr	r6, [sp, #32]
  4021f4:	2b00      	cmp	r3, #0
  4021f6:	d151      	bne.n	40229c <__udivmoddi4+0xb4>
  4021f8:	428a      	cmp	r2, r1
  4021fa:	4617      	mov	r7, r2
  4021fc:	d96d      	bls.n	4022da <__udivmoddi4+0xf2>
  4021fe:	fab2 fe82 	clz	lr, r2
  402202:	f1be 0f00 	cmp.w	lr, #0
  402206:	d00b      	beq.n	402220 <__udivmoddi4+0x38>
  402208:	f1ce 0c20 	rsb	ip, lr, #32
  40220c:	fa01 f50e 	lsl.w	r5, r1, lr
  402210:	fa20 fc0c 	lsr.w	ip, r0, ip
  402214:	fa02 f70e 	lsl.w	r7, r2, lr
  402218:	ea4c 0c05 	orr.w	ip, ip, r5
  40221c:	fa00 f40e 	lsl.w	r4, r0, lr
  402220:	ea4f 4a17 	mov.w	sl, r7, lsr #16
  402224:	0c25      	lsrs	r5, r4, #16
  402226:	fbbc f8fa 	udiv	r8, ip, sl
  40222a:	fa1f f987 	uxth.w	r9, r7
  40222e:	fb0a cc18 	mls	ip, sl, r8, ip
  402232:	ea45 450c 	orr.w	r5, r5, ip, lsl #16
  402236:	fb08 f309 	mul.w	r3, r8, r9
  40223a:	42ab      	cmp	r3, r5
  40223c:	d90a      	bls.n	402254 <__udivmoddi4+0x6c>
  40223e:	19ed      	adds	r5, r5, r7
  402240:	f108 32ff 	add.w	r2, r8, #4294967295
  402244:	f080 8123 	bcs.w	40248e <__udivmoddi4+0x2a6>
  402248:	42ab      	cmp	r3, r5
  40224a:	f240 8120 	bls.w	40248e <__udivmoddi4+0x2a6>
  40224e:	f1a8 0802 	sub.w	r8, r8, #2
  402252:	443d      	add	r5, r7
  402254:	1aed      	subs	r5, r5, r3
  402256:	b2a4      	uxth	r4, r4
  402258:	fbb5 f0fa 	udiv	r0, r5, sl
  40225c:	fb0a 5510 	mls	r5, sl, r0, r5
  402260:	ea44 4405 	orr.w	r4, r4, r5, lsl #16
  402264:	fb00 f909 	mul.w	r9, r0, r9
  402268:	45a1      	cmp	r9, r4
  40226a:	d909      	bls.n	402280 <__udivmoddi4+0x98>
  40226c:	19e4      	adds	r4, r4, r7
  40226e:	f100 33ff 	add.w	r3, r0, #4294967295
  402272:	f080 810a 	bcs.w	40248a <__udivmoddi4+0x2a2>
  402276:	45a1      	cmp	r9, r4
  402278:	f240 8107 	bls.w	40248a <__udivmoddi4+0x2a2>
  40227c:	3802      	subs	r0, #2
  40227e:	443c      	add	r4, r7
  402280:	eba4 0409 	sub.w	r4, r4, r9
  402284:	ea40 4008 	orr.w	r0, r0, r8, lsl #16
  402288:	2100      	movs	r1, #0
  40228a:	2e00      	cmp	r6, #0
  40228c:	d061      	beq.n	402352 <__udivmoddi4+0x16a>
  40228e:	fa24 f40e 	lsr.w	r4, r4, lr
  402292:	2300      	movs	r3, #0
  402294:	6034      	str	r4, [r6, #0]
  402296:	6073      	str	r3, [r6, #4]
  402298:	e8bd 87f0 	ldmia.w	sp!, {r4, r5, r6, r7, r8, r9, sl, pc}
  40229c:	428b      	cmp	r3, r1
  40229e:	d907      	bls.n	4022b0 <__udivmoddi4+0xc8>
  4022a0:	2e00      	cmp	r6, #0
  4022a2:	d054      	beq.n	40234e <__udivmoddi4+0x166>
  4022a4:	2100      	movs	r1, #0
  4022a6:	e886 0021 	stmia.w	r6, {r0, r5}
  4022aa:	4608      	mov	r0, r1
  4022ac:	e8bd 87f0 	ldmia.w	sp!, {r4, r5, r6, r7, r8, r9, sl, pc}
  4022b0:	fab3 f183 	clz	r1, r3
  4022b4:	2900      	cmp	r1, #0
  4022b6:	f040 808e 	bne.w	4023d6 <__udivmoddi4+0x1ee>
  4022ba:	42ab      	cmp	r3, r5
  4022bc:	d302      	bcc.n	4022c4 <__udivmoddi4+0xdc>
  4022be:	4282      	cmp	r2, r0
  4022c0:	f200 80fa 	bhi.w	4024b8 <__udivmoddi4+0x2d0>
  4022c4:	1a84      	subs	r4, r0, r2
  4022c6:	eb65 0503 	sbc.w	r5, r5, r3
  4022ca:	2001      	movs	r0, #1
  4022cc:	46ac      	mov	ip, r5
  4022ce:	2e00      	cmp	r6, #0
  4022d0:	d03f      	beq.n	402352 <__udivmoddi4+0x16a>
  4022d2:	e886 1010 	stmia.w	r6, {r4, ip}
  4022d6:	e8bd 87f0 	ldmia.w	sp!, {r4, r5, r6, r7, r8, r9, sl, pc}
  4022da:	b912      	cbnz	r2, 4022e2 <__udivmoddi4+0xfa>
  4022dc:	2701      	movs	r7, #1
  4022de:	fbb7 f7f2 	udiv	r7, r7, r2
  4022e2:	fab7 fe87 	clz	lr, r7
  4022e6:	f1be 0f00 	cmp.w	lr, #0
  4022ea:	d134      	bne.n	402356 <__udivmoddi4+0x16e>
  4022ec:	1beb      	subs	r3, r5, r7
  4022ee:	0c3a      	lsrs	r2, r7, #16
  4022f0:	fa1f fc87 	uxth.w	ip, r7
  4022f4:	2101      	movs	r1, #1
  4022f6:	fbb3 f8f2 	udiv	r8, r3, r2
  4022fa:	0c25      	lsrs	r5, r4, #16
  4022fc:	fb02 3318 	mls	r3, r2, r8, r3
  402300:	ea45 4503 	orr.w	r5, r5, r3, lsl #16
  402304:	fb0c f308 	mul.w	r3, ip, r8
  402308:	42ab      	cmp	r3, r5
  40230a:	d907      	bls.n	40231c <__udivmoddi4+0x134>
  40230c:	19ed      	adds	r5, r5, r7
  40230e:	f108 30ff 	add.w	r0, r8, #4294967295
  402312:	d202      	bcs.n	40231a <__udivmoddi4+0x132>
  402314:	42ab      	cmp	r3, r5
  402316:	f200 80d1 	bhi.w	4024bc <__udivmoddi4+0x2d4>
  40231a:	4680      	mov	r8, r0
  40231c:	1aed      	subs	r5, r5, r3
  40231e:	b2a3      	uxth	r3, r4
  402320:	fbb5 f0f2 	udiv	r0, r5, r2
  402324:	fb02 5510 	mls	r5, r2, r0, r5
  402328:	ea43 4405 	orr.w	r4, r3, r5, lsl #16
  40232c:	fb0c fc00 	mul.w	ip, ip, r0
  402330:	45a4      	cmp	ip, r4
  402332:	d907      	bls.n	402344 <__udivmoddi4+0x15c>
  402334:	19e4      	adds	r4, r4, r7
  402336:	f100 33ff 	add.w	r3, r0, #4294967295
  40233a:	d202      	bcs.n	402342 <__udivmoddi4+0x15a>
  40233c:	45a4      	cmp	ip, r4
  40233e:	f200 80b8 	bhi.w	4024b2 <__udivmoddi4+0x2ca>
  402342:	4618      	mov	r0, r3
  402344:	eba4 040c 	sub.w	r4, r4, ip
  402348:	ea40 4008 	orr.w	r0, r0, r8, lsl #16
  40234c:	e79d      	b.n	40228a <__udivmoddi4+0xa2>
  40234e:	4631      	mov	r1, r6
  402350:	4630      	mov	r0, r6
  402352:	e8bd 87f0 	ldmia.w	sp!, {r4, r5, r6, r7, r8, r9, sl, pc}
  402356:	f1ce 0420 	rsb	r4, lr, #32
  40235a:	fa05 f30e 	lsl.w	r3, r5, lr
  40235e:	fa07 f70e 	lsl.w	r7, r7, lr
  402362:	fa20 f804 	lsr.w	r8, r0, r4
  402366:	0c3a      	lsrs	r2, r7, #16
  402368:	fa25 f404 	lsr.w	r4, r5, r4
  40236c:	ea48 0803 	orr.w	r8, r8, r3
  402370:	fbb4 f1f2 	udiv	r1, r4, r2
  402374:	ea4f 4518 	mov.w	r5, r8, lsr #16
  402378:	fb02 4411 	mls	r4, r2, r1, r4
  40237c:	fa1f fc87 	uxth.w	ip, r7
  402380:	ea45 4504 	orr.w	r5, r5, r4, lsl #16
  402384:	fb01 f30c 	mul.w	r3, r1, ip
  402388:	42ab      	cmp	r3, r5
  40238a:	fa00 f40e 	lsl.w	r4, r0, lr
  40238e:	d909      	bls.n	4023a4 <__udivmoddi4+0x1bc>
  402390:	19ed      	adds	r5, r5, r7
  402392:	f101 30ff 	add.w	r0, r1, #4294967295
  402396:	f080 808a 	bcs.w	4024ae <__udivmoddi4+0x2c6>
  40239a:	42ab      	cmp	r3, r5
  40239c:	f240 8087 	bls.w	4024ae <__udivmoddi4+0x2c6>
  4023a0:	3902      	subs	r1, #2
  4023a2:	443d      	add	r5, r7
  4023a4:	1aeb      	subs	r3, r5, r3
  4023a6:	fa1f f588 	uxth.w	r5, r8
  4023aa:	fbb3 f0f2 	udiv	r0, r3, r2
  4023ae:	fb02 3310 	mls	r3, r2, r0, r3
  4023b2:	ea45 4503 	orr.w	r5, r5, r3, lsl #16
  4023b6:	fb00 f30c 	mul.w	r3, r0, ip
  4023ba:	42ab      	cmp	r3, r5
  4023bc:	d907      	bls.n	4023ce <__udivmoddi4+0x1e6>
  4023be:	19ed      	adds	r5, r5, r7
  4023c0:	f100 38ff 	add.w	r8, r0, #4294967295
  4023c4:	d26f      	bcs.n	4024a6 <__udivmoddi4+0x2be>
  4023c6:	42ab      	cmp	r3, r5
  4023c8:	d96d      	bls.n	4024a6 <__udivmoddi4+0x2be>
  4023ca:	3802      	subs	r0, #2
  4023cc:	443d      	add	r5, r7
  4023ce:	1aeb      	subs	r3, r5, r3
  4023d0:	ea40 4101 	orr.w	r1, r0, r1, lsl #16
  4023d4:	e78f      	b.n	4022f6 <__udivmoddi4+0x10e>
  4023d6:	f1c1 0720 	rsb	r7, r1, #32
  4023da:	fa22 f807 	lsr.w	r8, r2, r7
  4023de:	408b      	lsls	r3, r1
  4023e0:	fa05 f401 	lsl.w	r4, r5, r1
  4023e4:	ea48 0303 	orr.w	r3, r8, r3
  4023e8:	fa20 fe07 	lsr.w	lr, r0, r7
  4023ec:	ea4f 4c13 	mov.w	ip, r3, lsr #16
  4023f0:	40fd      	lsrs	r5, r7
  4023f2:	ea4e 0e04 	orr.w	lr, lr, r4
  4023f6:	fbb5 f9fc 	udiv	r9, r5, ip
  4023fa:	ea4f 441e 	mov.w	r4, lr, lsr #16
  4023fe:	fb0c 5519 	mls	r5, ip, r9, r5
  402402:	fa1f f883 	uxth.w	r8, r3
  402406:	ea44 4505 	orr.w	r5, r4, r5, lsl #16
  40240a:	fb09 f408 	mul.w	r4, r9, r8
  40240e:	42ac      	cmp	r4, r5
  402410:	fa02 f201 	lsl.w	r2, r2, r1
  402414:	fa00 fa01 	lsl.w	sl, r0, r1
  402418:	d908      	bls.n	40242c <__udivmoddi4+0x244>
  40241a:	18ed      	adds	r5, r5, r3
  40241c:	f109 30ff 	add.w	r0, r9, #4294967295
  402420:	d243      	bcs.n	4024aa <__udivmoddi4+0x2c2>
  402422:	42ac      	cmp	r4, r5
  402424:	d941      	bls.n	4024aa <__udivmoddi4+0x2c2>
  402426:	f1a9 0902 	sub.w	r9, r9, #2
  40242a:	441d      	add	r5, r3
  40242c:	1b2d      	subs	r5, r5, r4
  40242e:	fa1f fe8e 	uxth.w	lr, lr
  402432:	fbb5 f0fc 	udiv	r0, r5, ip
  402436:	fb0c 5510 	mls	r5, ip, r0, r5
  40243a:	ea4e 4405 	orr.w	r4, lr, r5, lsl #16
  40243e:	fb00 f808 	mul.w	r8, r0, r8
  402442:	45a0      	cmp	r8, r4
  402444:	d907      	bls.n	402456 <__udivmoddi4+0x26e>
  402446:	18e4      	adds	r4, r4, r3
  402448:	f100 35ff 	add.w	r5, r0, #4294967295
  40244c:	d229      	bcs.n	4024a2 <__udivmoddi4+0x2ba>
  40244e:	45a0      	cmp	r8, r4
  402450:	d927      	bls.n	4024a2 <__udivmoddi4+0x2ba>
  402452:	3802      	subs	r0, #2
  402454:	441c      	add	r4, r3
  402456:	ea40 4009 	orr.w	r0, r0, r9, lsl #16
  40245a:	eba4 0408 	sub.w	r4, r4, r8
  40245e:	fba0 8902 	umull	r8, r9, r0, r2
  402462:	454c      	cmp	r4, r9
  402464:	46c6      	mov	lr, r8
  402466:	464d      	mov	r5, r9
  402468:	d315      	bcc.n	402496 <__udivmoddi4+0x2ae>
  40246a:	d012      	beq.n	402492 <__udivmoddi4+0x2aa>
  40246c:	b156      	cbz	r6, 402484 <__udivmoddi4+0x29c>
  40246e:	ebba 030e 	subs.w	r3, sl, lr
  402472:	eb64 0405 	sbc.w	r4, r4, r5
  402476:	fa04 f707 	lsl.w	r7, r4, r7
  40247a:	40cb      	lsrs	r3, r1
  40247c:	431f      	orrs	r7, r3
  40247e:	40cc      	lsrs	r4, r1
  402480:	6037      	str	r7, [r6, #0]
  402482:	6074      	str	r4, [r6, #4]
  402484:	2100      	movs	r1, #0
  402486:	e8bd 87f0 	ldmia.w	sp!, {r4, r5, r6, r7, r8, r9, sl, pc}
  40248a:	4618      	mov	r0, r3
  40248c:	e6f8      	b.n	402280 <__udivmoddi4+0x98>
  40248e:	4690      	mov	r8, r2
  402490:	e6e0      	b.n	402254 <__udivmoddi4+0x6c>
  402492:	45c2      	cmp	sl, r8
  402494:	d2ea      	bcs.n	40246c <__udivmoddi4+0x284>
  402496:	ebb8 0e02 	subs.w	lr, r8, r2
  40249a:	eb69 0503 	sbc.w	r5, r9, r3
  40249e:	3801      	subs	r0, #1
  4024a0:	e7e4      	b.n	40246c <__udivmoddi4+0x284>
  4024a2:	4628      	mov	r0, r5
  4024a4:	e7d7      	b.n	402456 <__udivmoddi4+0x26e>
  4024a6:	4640      	mov	r0, r8
  4024a8:	e791      	b.n	4023ce <__udivmoddi4+0x1e6>
  4024aa:	4681      	mov	r9, r0
  4024ac:	e7be      	b.n	40242c <__udivmoddi4+0x244>
  4024ae:	4601      	mov	r1, r0
  4024b0:	e778      	b.n	4023a4 <__udivmoddi4+0x1bc>
  4024b2:	3802      	subs	r0, #2
  4024b4:	443c      	add	r4, r7
  4024b6:	e745      	b.n	402344 <__udivmoddi4+0x15c>
  4024b8:	4608      	mov	r0, r1
  4024ba:	e708      	b.n	4022ce <__udivmoddi4+0xe6>
  4024bc:	f1a8 0802 	sub.w	r8, r8, #2
  4024c0:	443d      	add	r5, r7
  4024c2:	e72b      	b.n	40231c <__udivmoddi4+0x134>

004024c4 <__aeabi_idiv0>:
  4024c4:	4770      	bx	lr
  4024c6:	bf00      	nop

004024c8 <__libc_init_array>:
  4024c8:	b570      	push	{r4, r5, r6, lr}
  4024ca:	4e0f      	ldr	r6, [pc, #60]	; (402508 <__libc_init_array+0x40>)
  4024cc:	4d0f      	ldr	r5, [pc, #60]	; (40250c <__libc_init_array+0x44>)
  4024ce:	1b76      	subs	r6, r6, r5
  4024d0:	10b6      	asrs	r6, r6, #2
  4024d2:	bf18      	it	ne
  4024d4:	2400      	movne	r4, #0
  4024d6:	d005      	beq.n	4024e4 <__libc_init_array+0x1c>
  4024d8:	3401      	adds	r4, #1
  4024da:	f855 3b04 	ldr.w	r3, [r5], #4
  4024de:	4798      	blx	r3
  4024e0:	42a6      	cmp	r6, r4
  4024e2:	d1f9      	bne.n	4024d8 <__libc_init_array+0x10>
  4024e4:	4e0a      	ldr	r6, [pc, #40]	; (402510 <__libc_init_array+0x48>)
  4024e6:	4d0b      	ldr	r5, [pc, #44]	; (402514 <__libc_init_array+0x4c>)
  4024e8:	1b76      	subs	r6, r6, r5
  4024ea:	f004 fda1 	bl	407030 <_init>
  4024ee:	10b6      	asrs	r6, r6, #2
  4024f0:	bf18      	it	ne
  4024f2:	2400      	movne	r4, #0
  4024f4:	d006      	beq.n	402504 <__libc_init_array+0x3c>
  4024f6:	3401      	adds	r4, #1
  4024f8:	f855 3b04 	ldr.w	r3, [r5], #4
  4024fc:	4798      	blx	r3
  4024fe:	42a6      	cmp	r6, r4
  402500:	d1f9      	bne.n	4024f6 <__libc_init_array+0x2e>
  402502:	bd70      	pop	{r4, r5, r6, pc}
  402504:	bd70      	pop	{r4, r5, r6, pc}
  402506:	bf00      	nop
  402508:	0040703c 	.word	0x0040703c
  40250c:	0040703c 	.word	0x0040703c
  402510:	00407044 	.word	0x00407044
  402514:	0040703c 	.word	0x0040703c

00402518 <memset>:
  402518:	b470      	push	{r4, r5, r6}
  40251a:	0786      	lsls	r6, r0, #30
  40251c:	d046      	beq.n	4025ac <memset+0x94>
  40251e:	1e54      	subs	r4, r2, #1
  402520:	2a00      	cmp	r2, #0
  402522:	d041      	beq.n	4025a8 <memset+0x90>
  402524:	b2ca      	uxtb	r2, r1
  402526:	4603      	mov	r3, r0
  402528:	e002      	b.n	402530 <memset+0x18>
  40252a:	f114 34ff 	adds.w	r4, r4, #4294967295
  40252e:	d33b      	bcc.n	4025a8 <memset+0x90>
  402530:	f803 2b01 	strb.w	r2, [r3], #1
  402534:	079d      	lsls	r5, r3, #30
  402536:	d1f8      	bne.n	40252a <memset+0x12>
  402538:	2c03      	cmp	r4, #3
  40253a:	d92e      	bls.n	40259a <memset+0x82>
  40253c:	b2cd      	uxtb	r5, r1
  40253e:	ea45 2505 	orr.w	r5, r5, r5, lsl #8
  402542:	2c0f      	cmp	r4, #15
  402544:	ea45 4505 	orr.w	r5, r5, r5, lsl #16
  402548:	d919      	bls.n	40257e <memset+0x66>
  40254a:	f103 0210 	add.w	r2, r3, #16
  40254e:	4626      	mov	r6, r4
  402550:	3e10      	subs	r6, #16
  402552:	2e0f      	cmp	r6, #15
  402554:	f842 5c10 	str.w	r5, [r2, #-16]
  402558:	f842 5c0c 	str.w	r5, [r2, #-12]
  40255c:	f842 5c08 	str.w	r5, [r2, #-8]
  402560:	f842 5c04 	str.w	r5, [r2, #-4]
  402564:	f102 0210 	add.w	r2, r2, #16
  402568:	d8f2      	bhi.n	402550 <memset+0x38>
  40256a:	f1a4 0210 	sub.w	r2, r4, #16
  40256e:	f022 020f 	bic.w	r2, r2, #15
  402572:	f004 040f 	and.w	r4, r4, #15
  402576:	3210      	adds	r2, #16
  402578:	2c03      	cmp	r4, #3
  40257a:	4413      	add	r3, r2
  40257c:	d90d      	bls.n	40259a <memset+0x82>
  40257e:	461e      	mov	r6, r3
  402580:	4622      	mov	r2, r4
  402582:	3a04      	subs	r2, #4
  402584:	2a03      	cmp	r2, #3
  402586:	f846 5b04 	str.w	r5, [r6], #4
  40258a:	d8fa      	bhi.n	402582 <memset+0x6a>
  40258c:	1f22      	subs	r2, r4, #4
  40258e:	f022 0203 	bic.w	r2, r2, #3
  402592:	3204      	adds	r2, #4
  402594:	4413      	add	r3, r2
  402596:	f004 0403 	and.w	r4, r4, #3
  40259a:	b12c      	cbz	r4, 4025a8 <memset+0x90>
  40259c:	b2c9      	uxtb	r1, r1
  40259e:	441c      	add	r4, r3
  4025a0:	f803 1b01 	strb.w	r1, [r3], #1
  4025a4:	429c      	cmp	r4, r3
  4025a6:	d1fb      	bne.n	4025a0 <memset+0x88>
  4025a8:	bc70      	pop	{r4, r5, r6}
  4025aa:	4770      	bx	lr
  4025ac:	4614      	mov	r4, r2
  4025ae:	4603      	mov	r3, r0
  4025b0:	e7c2      	b.n	402538 <memset+0x20>
  4025b2:	bf00      	nop

004025b4 <sprintf>:
  4025b4:	b40e      	push	{r1, r2, r3}
  4025b6:	b5f0      	push	{r4, r5, r6, r7, lr}
  4025b8:	b09c      	sub	sp, #112	; 0x70
  4025ba:	ab21      	add	r3, sp, #132	; 0x84
  4025bc:	490f      	ldr	r1, [pc, #60]	; (4025fc <sprintf+0x48>)
  4025be:	f853 2b04 	ldr.w	r2, [r3], #4
  4025c2:	9301      	str	r3, [sp, #4]
  4025c4:	4605      	mov	r5, r0
  4025c6:	f06f 4400 	mvn.w	r4, #2147483648	; 0x80000000
  4025ca:	6808      	ldr	r0, [r1, #0]
  4025cc:	9502      	str	r5, [sp, #8]
  4025ce:	f44f 7702 	mov.w	r7, #520	; 0x208
  4025d2:	f64f 76ff 	movw	r6, #65535	; 0xffff
  4025d6:	a902      	add	r1, sp, #8
  4025d8:	9506      	str	r5, [sp, #24]
  4025da:	f8ad 7014 	strh.w	r7, [sp, #20]
  4025de:	9404      	str	r4, [sp, #16]
  4025e0:	9407      	str	r4, [sp, #28]
  4025e2:	f8ad 6016 	strh.w	r6, [sp, #22]
  4025e6:	f000 f80b 	bl	402600 <_svfprintf_r>
  4025ea:	9b02      	ldr	r3, [sp, #8]
  4025ec:	2200      	movs	r2, #0
  4025ee:	701a      	strb	r2, [r3, #0]
  4025f0:	b01c      	add	sp, #112	; 0x70
  4025f2:	e8bd 40f0 	ldmia.w	sp!, {r4, r5, r6, r7, lr}
  4025f6:	b003      	add	sp, #12
  4025f8:	4770      	bx	lr
  4025fa:	bf00      	nop
  4025fc:	20400024 	.word	0x20400024

00402600 <_svfprintf_r>:
  402600:	e92d 4ff0 	stmdb	sp!, {r4, r5, r6, r7, r8, r9, sl, fp, lr}
  402604:	b0c3      	sub	sp, #268	; 0x10c
  402606:	460c      	mov	r4, r1
  402608:	910b      	str	r1, [sp, #44]	; 0x2c
  40260a:	4692      	mov	sl, r2
  40260c:	930f      	str	r3, [sp, #60]	; 0x3c
  40260e:	900c      	str	r0, [sp, #48]	; 0x30
  402610:	f002 fa0e 	bl	404a30 <_localeconv_r>
  402614:	6803      	ldr	r3, [r0, #0]
  402616:	931a      	str	r3, [sp, #104]	; 0x68
  402618:	4618      	mov	r0, r3
  40261a:	f003 f8f1 	bl	405800 <strlen>
  40261e:	89a3      	ldrh	r3, [r4, #12]
  402620:	9019      	str	r0, [sp, #100]	; 0x64
  402622:	0619      	lsls	r1, r3, #24
  402624:	d503      	bpl.n	40262e <_svfprintf_r+0x2e>
  402626:	6923      	ldr	r3, [r4, #16]
  402628:	2b00      	cmp	r3, #0
  40262a:	f001 8003 	beq.w	403634 <_svfprintf_r+0x1034>
  40262e:	2300      	movs	r3, #0
  402630:	f10d 09c8 	add.w	r9, sp, #200	; 0xc8
  402634:	9313      	str	r3, [sp, #76]	; 0x4c
  402636:	9315      	str	r3, [sp, #84]	; 0x54
  402638:	9314      	str	r3, [sp, #80]	; 0x50
  40263a:	9327      	str	r3, [sp, #156]	; 0x9c
  40263c:	9326      	str	r3, [sp, #152]	; 0x98
  40263e:	9318      	str	r3, [sp, #96]	; 0x60
  402640:	931b      	str	r3, [sp, #108]	; 0x6c
  402642:	9309      	str	r3, [sp, #36]	; 0x24
  402644:	f8cd 9094 	str.w	r9, [sp, #148]	; 0x94
  402648:	46c8      	mov	r8, r9
  40264a:	9316      	str	r3, [sp, #88]	; 0x58
  40264c:	9317      	str	r3, [sp, #92]	; 0x5c
  40264e:	f89a 3000 	ldrb.w	r3, [sl]
  402652:	4654      	mov	r4, sl
  402654:	b1e3      	cbz	r3, 402690 <_svfprintf_r+0x90>
  402656:	2b25      	cmp	r3, #37	; 0x25
  402658:	d102      	bne.n	402660 <_svfprintf_r+0x60>
  40265a:	e019      	b.n	402690 <_svfprintf_r+0x90>
  40265c:	2b25      	cmp	r3, #37	; 0x25
  40265e:	d003      	beq.n	402668 <_svfprintf_r+0x68>
  402660:	f814 3f01 	ldrb.w	r3, [r4, #1]!
  402664:	2b00      	cmp	r3, #0
  402666:	d1f9      	bne.n	40265c <_svfprintf_r+0x5c>
  402668:	eba4 050a 	sub.w	r5, r4, sl
  40266c:	b185      	cbz	r5, 402690 <_svfprintf_r+0x90>
  40266e:	9b26      	ldr	r3, [sp, #152]	; 0x98
  402670:	9a27      	ldr	r2, [sp, #156]	; 0x9c
  402672:	f8c8 a000 	str.w	sl, [r8]
  402676:	3301      	adds	r3, #1
  402678:	442a      	add	r2, r5
  40267a:	2b07      	cmp	r3, #7
  40267c:	f8c8 5004 	str.w	r5, [r8, #4]
  402680:	9227      	str	r2, [sp, #156]	; 0x9c
  402682:	9326      	str	r3, [sp, #152]	; 0x98
  402684:	dc7f      	bgt.n	402786 <_svfprintf_r+0x186>
  402686:	f108 0808 	add.w	r8, r8, #8
  40268a:	9b09      	ldr	r3, [sp, #36]	; 0x24
  40268c:	442b      	add	r3, r5
  40268e:	9309      	str	r3, [sp, #36]	; 0x24
  402690:	7823      	ldrb	r3, [r4, #0]
  402692:	2b00      	cmp	r3, #0
  402694:	d07f      	beq.n	402796 <_svfprintf_r+0x196>
  402696:	2300      	movs	r3, #0
  402698:	461a      	mov	r2, r3
  40269a:	f88d 3077 	strb.w	r3, [sp, #119]	; 0x77
  40269e:	4619      	mov	r1, r3
  4026a0:	930d      	str	r3, [sp, #52]	; 0x34
  4026a2:	469b      	mov	fp, r3
  4026a4:	f04f 30ff 	mov.w	r0, #4294967295
  4026a8:	7863      	ldrb	r3, [r4, #1]
  4026aa:	900a      	str	r0, [sp, #40]	; 0x28
  4026ac:	f104 0a01 	add.w	sl, r4, #1
  4026b0:	f10a 0a01 	add.w	sl, sl, #1
  4026b4:	f1a3 0020 	sub.w	r0, r3, #32
  4026b8:	2858      	cmp	r0, #88	; 0x58
  4026ba:	f200 83c1 	bhi.w	402e40 <_svfprintf_r+0x840>
  4026be:	e8df f010 	tbh	[pc, r0, lsl #1]
  4026c2:	0238      	.short	0x0238
  4026c4:	03bf03bf 	.word	0x03bf03bf
  4026c8:	03bf0240 	.word	0x03bf0240
  4026cc:	03bf03bf 	.word	0x03bf03bf
  4026d0:	03bf03bf 	.word	0x03bf03bf
  4026d4:	024503bf 	.word	0x024503bf
  4026d8:	03bf0203 	.word	0x03bf0203
  4026dc:	026b005d 	.word	0x026b005d
  4026e0:	028603bf 	.word	0x028603bf
  4026e4:	039d039d 	.word	0x039d039d
  4026e8:	039d039d 	.word	0x039d039d
  4026ec:	039d039d 	.word	0x039d039d
  4026f0:	039d039d 	.word	0x039d039d
  4026f4:	03bf039d 	.word	0x03bf039d
  4026f8:	03bf03bf 	.word	0x03bf03bf
  4026fc:	03bf03bf 	.word	0x03bf03bf
  402700:	03bf03bf 	.word	0x03bf03bf
  402704:	03bf03bf 	.word	0x03bf03bf
  402708:	033703bf 	.word	0x033703bf
  40270c:	03bf0357 	.word	0x03bf0357
  402710:	03bf0357 	.word	0x03bf0357
  402714:	03bf03bf 	.word	0x03bf03bf
  402718:	039803bf 	.word	0x039803bf
  40271c:	03bf03bf 	.word	0x03bf03bf
  402720:	03bf03ad 	.word	0x03bf03ad
  402724:	03bf03bf 	.word	0x03bf03bf
  402728:	03bf03bf 	.word	0x03bf03bf
  40272c:	03bf0259 	.word	0x03bf0259
  402730:	031e03bf 	.word	0x031e03bf
  402734:	03bf03bf 	.word	0x03bf03bf
  402738:	03bf03bf 	.word	0x03bf03bf
  40273c:	03bf03bf 	.word	0x03bf03bf
  402740:	03bf03bf 	.word	0x03bf03bf
  402744:	03bf03bf 	.word	0x03bf03bf
  402748:	02db02c6 	.word	0x02db02c6
  40274c:	03570357 	.word	0x03570357
  402750:	028b0357 	.word	0x028b0357
  402754:	03bf02db 	.word	0x03bf02db
  402758:	029003bf 	.word	0x029003bf
  40275c:	029d03bf 	.word	0x029d03bf
  402760:	02b401cc 	.word	0x02b401cc
  402764:	03bf0208 	.word	0x03bf0208
  402768:	03bf01e1 	.word	0x03bf01e1
  40276c:	03bf007e 	.word	0x03bf007e
  402770:	020d03bf 	.word	0x020d03bf
  402774:	980d      	ldr	r0, [sp, #52]	; 0x34
  402776:	930f      	str	r3, [sp, #60]	; 0x3c
  402778:	4240      	negs	r0, r0
  40277a:	900d      	str	r0, [sp, #52]	; 0x34
  40277c:	f04b 0b04 	orr.w	fp, fp, #4
  402780:	f89a 3000 	ldrb.w	r3, [sl]
  402784:	e794      	b.n	4026b0 <_svfprintf_r+0xb0>
  402786:	aa25      	add	r2, sp, #148	; 0x94
  402788:	990b      	ldr	r1, [sp, #44]	; 0x2c
  40278a:	980c      	ldr	r0, [sp, #48]	; 0x30
  40278c:	f003 f8a6 	bl	4058dc <__ssprint_r>
  402790:	b940      	cbnz	r0, 4027a4 <_svfprintf_r+0x1a4>
  402792:	46c8      	mov	r8, r9
  402794:	e779      	b.n	40268a <_svfprintf_r+0x8a>
  402796:	9b27      	ldr	r3, [sp, #156]	; 0x9c
  402798:	b123      	cbz	r3, 4027a4 <_svfprintf_r+0x1a4>
  40279a:	980c      	ldr	r0, [sp, #48]	; 0x30
  40279c:	990b      	ldr	r1, [sp, #44]	; 0x2c
  40279e:	aa25      	add	r2, sp, #148	; 0x94
  4027a0:	f003 f89c 	bl	4058dc <__ssprint_r>
  4027a4:	9b0b      	ldr	r3, [sp, #44]	; 0x2c
  4027a6:	899b      	ldrh	r3, [r3, #12]
  4027a8:	f013 0f40 	tst.w	r3, #64	; 0x40
  4027ac:	9b09      	ldr	r3, [sp, #36]	; 0x24
  4027ae:	bf18      	it	ne
  4027b0:	f04f 33ff 	movne.w	r3, #4294967295
  4027b4:	9309      	str	r3, [sp, #36]	; 0x24
  4027b6:	9809      	ldr	r0, [sp, #36]	; 0x24
  4027b8:	b043      	add	sp, #268	; 0x10c
  4027ba:	e8bd 8ff0 	ldmia.w	sp!, {r4, r5, r6, r7, r8, r9, sl, fp, pc}
  4027be:	f01b 0f20 	tst.w	fp, #32
  4027c2:	9311      	str	r3, [sp, #68]	; 0x44
  4027c4:	f040 81dd 	bne.w	402b82 <_svfprintf_r+0x582>
  4027c8:	9a0f      	ldr	r2, [sp, #60]	; 0x3c
  4027ca:	f01b 0f10 	tst.w	fp, #16
  4027ce:	4613      	mov	r3, r2
  4027d0:	f040 856e 	bne.w	4032b0 <_svfprintf_r+0xcb0>
  4027d4:	f01b 0f40 	tst.w	fp, #64	; 0x40
  4027d8:	f000 856a 	beq.w	4032b0 <_svfprintf_r+0xcb0>
  4027dc:	8814      	ldrh	r4, [r2, #0]
  4027de:	3204      	adds	r2, #4
  4027e0:	2500      	movs	r5, #0
  4027e2:	2301      	movs	r3, #1
  4027e4:	920f      	str	r2, [sp, #60]	; 0x3c
  4027e6:	2700      	movs	r7, #0
  4027e8:	f88d 7077 	strb.w	r7, [sp, #119]	; 0x77
  4027ec:	990a      	ldr	r1, [sp, #40]	; 0x28
  4027ee:	1c4a      	adds	r2, r1, #1
  4027f0:	f000 8265 	beq.w	402cbe <_svfprintf_r+0x6be>
  4027f4:	f02b 0280 	bic.w	r2, fp, #128	; 0x80
  4027f8:	9207      	str	r2, [sp, #28]
  4027fa:	ea54 0205 	orrs.w	r2, r4, r5
  4027fe:	f040 8264 	bne.w	402cca <_svfprintf_r+0x6ca>
  402802:	2900      	cmp	r1, #0
  402804:	f040 843c 	bne.w	403080 <_svfprintf_r+0xa80>
  402808:	2b00      	cmp	r3, #0
  40280a:	f040 84d7 	bne.w	4031bc <_svfprintf_r+0xbbc>
  40280e:	f01b 0301 	ands.w	r3, fp, #1
  402812:	930e      	str	r3, [sp, #56]	; 0x38
  402814:	f000 8604 	beq.w	403420 <_svfprintf_r+0xe20>
  402818:	ae42      	add	r6, sp, #264	; 0x108
  40281a:	2330      	movs	r3, #48	; 0x30
  40281c:	f806 3d41 	strb.w	r3, [r6, #-65]!
  402820:	9b0a      	ldr	r3, [sp, #40]	; 0x28
  402822:	9a0e      	ldr	r2, [sp, #56]	; 0x38
  402824:	4293      	cmp	r3, r2
  402826:	bfb8      	it	lt
  402828:	4613      	movlt	r3, r2
  40282a:	9308      	str	r3, [sp, #32]
  40282c:	2300      	movs	r3, #0
  40282e:	9312      	str	r3, [sp, #72]	; 0x48
  402830:	b117      	cbz	r7, 402838 <_svfprintf_r+0x238>
  402832:	9b08      	ldr	r3, [sp, #32]
  402834:	3301      	adds	r3, #1
  402836:	9308      	str	r3, [sp, #32]
  402838:	9b07      	ldr	r3, [sp, #28]
  40283a:	f013 0302 	ands.w	r3, r3, #2
  40283e:	9310      	str	r3, [sp, #64]	; 0x40
  402840:	d002      	beq.n	402848 <_svfprintf_r+0x248>
  402842:	9b08      	ldr	r3, [sp, #32]
  402844:	3302      	adds	r3, #2
  402846:	9308      	str	r3, [sp, #32]
  402848:	9b07      	ldr	r3, [sp, #28]
  40284a:	f013 0584 	ands.w	r5, r3, #132	; 0x84
  40284e:	f040 830e 	bne.w	402e6e <_svfprintf_r+0x86e>
  402852:	9b0d      	ldr	r3, [sp, #52]	; 0x34
  402854:	9a08      	ldr	r2, [sp, #32]
  402856:	eba3 0b02 	sub.w	fp, r3, r2
  40285a:	f1bb 0f00 	cmp.w	fp, #0
  40285e:	f340 8306 	ble.w	402e6e <_svfprintf_r+0x86e>
  402862:	f1bb 0f10 	cmp.w	fp, #16
  402866:	9c27      	ldr	r4, [sp, #156]	; 0x9c
  402868:	9a26      	ldr	r2, [sp, #152]	; 0x98
  40286a:	dd29      	ble.n	4028c0 <_svfprintf_r+0x2c0>
  40286c:	4643      	mov	r3, r8
  40286e:	4621      	mov	r1, r4
  402870:	46a8      	mov	r8, r5
  402872:	2710      	movs	r7, #16
  402874:	9c0c      	ldr	r4, [sp, #48]	; 0x30
  402876:	9d0b      	ldr	r5, [sp, #44]	; 0x2c
  402878:	e006      	b.n	402888 <_svfprintf_r+0x288>
  40287a:	f1ab 0b10 	sub.w	fp, fp, #16
  40287e:	f1bb 0f10 	cmp.w	fp, #16
  402882:	f103 0308 	add.w	r3, r3, #8
  402886:	dd18      	ble.n	4028ba <_svfprintf_r+0x2ba>
  402888:	3201      	adds	r2, #1
  40288a:	48b7      	ldr	r0, [pc, #732]	; (402b68 <_svfprintf_r+0x568>)
  40288c:	9226      	str	r2, [sp, #152]	; 0x98
  40288e:	3110      	adds	r1, #16
  402890:	2a07      	cmp	r2, #7
  402892:	9127      	str	r1, [sp, #156]	; 0x9c
  402894:	e883 0081 	stmia.w	r3, {r0, r7}
  402898:	ddef      	ble.n	40287a <_svfprintf_r+0x27a>
  40289a:	aa25      	add	r2, sp, #148	; 0x94
  40289c:	4629      	mov	r1, r5
  40289e:	4620      	mov	r0, r4
  4028a0:	f003 f81c 	bl	4058dc <__ssprint_r>
  4028a4:	2800      	cmp	r0, #0
  4028a6:	f47f af7d 	bne.w	4027a4 <_svfprintf_r+0x1a4>
  4028aa:	f1ab 0b10 	sub.w	fp, fp, #16
  4028ae:	f1bb 0f10 	cmp.w	fp, #16
  4028b2:	9927      	ldr	r1, [sp, #156]	; 0x9c
  4028b4:	9a26      	ldr	r2, [sp, #152]	; 0x98
  4028b6:	464b      	mov	r3, r9
  4028b8:	dce6      	bgt.n	402888 <_svfprintf_r+0x288>
  4028ba:	4645      	mov	r5, r8
  4028bc:	460c      	mov	r4, r1
  4028be:	4698      	mov	r8, r3
  4028c0:	3201      	adds	r2, #1
  4028c2:	4ba9      	ldr	r3, [pc, #676]	; (402b68 <_svfprintf_r+0x568>)
  4028c4:	9226      	str	r2, [sp, #152]	; 0x98
  4028c6:	445c      	add	r4, fp
  4028c8:	2a07      	cmp	r2, #7
  4028ca:	9427      	str	r4, [sp, #156]	; 0x9c
  4028cc:	e888 0808 	stmia.w	r8, {r3, fp}
  4028d0:	f300 8498 	bgt.w	403204 <_svfprintf_r+0xc04>
  4028d4:	f89d 7077 	ldrb.w	r7, [sp, #119]	; 0x77
  4028d8:	f108 0808 	add.w	r8, r8, #8
  4028dc:	b177      	cbz	r7, 4028fc <_svfprintf_r+0x2fc>
  4028de:	9b26      	ldr	r3, [sp, #152]	; 0x98
  4028e0:	3301      	adds	r3, #1
  4028e2:	3401      	adds	r4, #1
  4028e4:	f10d 0177 	add.w	r1, sp, #119	; 0x77
  4028e8:	2201      	movs	r2, #1
  4028ea:	2b07      	cmp	r3, #7
  4028ec:	9427      	str	r4, [sp, #156]	; 0x9c
  4028ee:	9326      	str	r3, [sp, #152]	; 0x98
  4028f0:	e888 0006 	stmia.w	r8, {r1, r2}
  4028f4:	f300 83db 	bgt.w	4030ae <_svfprintf_r+0xaae>
  4028f8:	f108 0808 	add.w	r8, r8, #8
  4028fc:	9b10      	ldr	r3, [sp, #64]	; 0x40
  4028fe:	b16b      	cbz	r3, 40291c <_svfprintf_r+0x31c>
  402900:	9b26      	ldr	r3, [sp, #152]	; 0x98
  402902:	3301      	adds	r3, #1
  402904:	3402      	adds	r4, #2
  402906:	a91e      	add	r1, sp, #120	; 0x78
  402908:	2202      	movs	r2, #2
  40290a:	2b07      	cmp	r3, #7
  40290c:	9427      	str	r4, [sp, #156]	; 0x9c
  40290e:	9326      	str	r3, [sp, #152]	; 0x98
  402910:	e888 0006 	stmia.w	r8, {r1, r2}
  402914:	f300 83d6 	bgt.w	4030c4 <_svfprintf_r+0xac4>
  402918:	f108 0808 	add.w	r8, r8, #8
  40291c:	2d80      	cmp	r5, #128	; 0x80
  40291e:	f000 8315 	beq.w	402f4c <_svfprintf_r+0x94c>
  402922:	9b0a      	ldr	r3, [sp, #40]	; 0x28
  402924:	9a0e      	ldr	r2, [sp, #56]	; 0x38
  402926:	1a9f      	subs	r7, r3, r2
  402928:	2f00      	cmp	r7, #0
  40292a:	dd36      	ble.n	40299a <_svfprintf_r+0x39a>
  40292c:	2f10      	cmp	r7, #16
  40292e:	9b26      	ldr	r3, [sp, #152]	; 0x98
  402930:	4d8e      	ldr	r5, [pc, #568]	; (402b6c <_svfprintf_r+0x56c>)
  402932:	dd27      	ble.n	402984 <_svfprintf_r+0x384>
  402934:	4642      	mov	r2, r8
  402936:	4621      	mov	r1, r4
  402938:	46b0      	mov	r8, r6
  40293a:	f04f 0b10 	mov.w	fp, #16
  40293e:	462e      	mov	r6, r5
  402940:	9c0c      	ldr	r4, [sp, #48]	; 0x30
  402942:	9d0b      	ldr	r5, [sp, #44]	; 0x2c
  402944:	e004      	b.n	402950 <_svfprintf_r+0x350>
  402946:	3f10      	subs	r7, #16
  402948:	2f10      	cmp	r7, #16
  40294a:	f102 0208 	add.w	r2, r2, #8
  40294e:	dd15      	ble.n	40297c <_svfprintf_r+0x37c>
  402950:	3301      	adds	r3, #1
  402952:	3110      	adds	r1, #16
  402954:	2b07      	cmp	r3, #7
  402956:	9127      	str	r1, [sp, #156]	; 0x9c
  402958:	9326      	str	r3, [sp, #152]	; 0x98
  40295a:	e882 0840 	stmia.w	r2, {r6, fp}
  40295e:	ddf2      	ble.n	402946 <_svfprintf_r+0x346>
  402960:	aa25      	add	r2, sp, #148	; 0x94
  402962:	4629      	mov	r1, r5
  402964:	4620      	mov	r0, r4
  402966:	f002 ffb9 	bl	4058dc <__ssprint_r>
  40296a:	2800      	cmp	r0, #0
  40296c:	f47f af1a 	bne.w	4027a4 <_svfprintf_r+0x1a4>
  402970:	3f10      	subs	r7, #16
  402972:	2f10      	cmp	r7, #16
  402974:	9927      	ldr	r1, [sp, #156]	; 0x9c
  402976:	9b26      	ldr	r3, [sp, #152]	; 0x98
  402978:	464a      	mov	r2, r9
  40297a:	dce9      	bgt.n	402950 <_svfprintf_r+0x350>
  40297c:	4635      	mov	r5, r6
  40297e:	460c      	mov	r4, r1
  402980:	4646      	mov	r6, r8
  402982:	4690      	mov	r8, r2
  402984:	3301      	adds	r3, #1
  402986:	443c      	add	r4, r7
  402988:	2b07      	cmp	r3, #7
  40298a:	9427      	str	r4, [sp, #156]	; 0x9c
  40298c:	9326      	str	r3, [sp, #152]	; 0x98
  40298e:	e888 00a0 	stmia.w	r8, {r5, r7}
  402992:	f300 8381 	bgt.w	403098 <_svfprintf_r+0xa98>
  402996:	f108 0808 	add.w	r8, r8, #8
  40299a:	9b07      	ldr	r3, [sp, #28]
  40299c:	05df      	lsls	r7, r3, #23
  40299e:	f100 8268 	bmi.w	402e72 <_svfprintf_r+0x872>
  4029a2:	9b26      	ldr	r3, [sp, #152]	; 0x98
  4029a4:	990e      	ldr	r1, [sp, #56]	; 0x38
  4029a6:	f8c8 6000 	str.w	r6, [r8]
  4029aa:	3301      	adds	r3, #1
  4029ac:	440c      	add	r4, r1
  4029ae:	2b07      	cmp	r3, #7
  4029b0:	9427      	str	r4, [sp, #156]	; 0x9c
  4029b2:	f8c8 1004 	str.w	r1, [r8, #4]
  4029b6:	9326      	str	r3, [sp, #152]	; 0x98
  4029b8:	f300 834d 	bgt.w	403056 <_svfprintf_r+0xa56>
  4029bc:	f108 0808 	add.w	r8, r8, #8
  4029c0:	9b07      	ldr	r3, [sp, #28]
  4029c2:	075b      	lsls	r3, r3, #29
  4029c4:	d53a      	bpl.n	402a3c <_svfprintf_r+0x43c>
  4029c6:	9b0d      	ldr	r3, [sp, #52]	; 0x34
  4029c8:	9a08      	ldr	r2, [sp, #32]
  4029ca:	1a9d      	subs	r5, r3, r2
  4029cc:	2d00      	cmp	r5, #0
  4029ce:	dd35      	ble.n	402a3c <_svfprintf_r+0x43c>
  4029d0:	2d10      	cmp	r5, #16
  4029d2:	9b26      	ldr	r3, [sp, #152]	; 0x98
  4029d4:	dd20      	ble.n	402a18 <_svfprintf_r+0x418>
  4029d6:	2610      	movs	r6, #16
  4029d8:	9f0c      	ldr	r7, [sp, #48]	; 0x30
  4029da:	f8dd b02c 	ldr.w	fp, [sp, #44]	; 0x2c
  4029de:	e004      	b.n	4029ea <_svfprintf_r+0x3ea>
  4029e0:	3d10      	subs	r5, #16
  4029e2:	2d10      	cmp	r5, #16
  4029e4:	f108 0808 	add.w	r8, r8, #8
  4029e8:	dd16      	ble.n	402a18 <_svfprintf_r+0x418>
  4029ea:	3301      	adds	r3, #1
  4029ec:	4a5e      	ldr	r2, [pc, #376]	; (402b68 <_svfprintf_r+0x568>)
  4029ee:	9326      	str	r3, [sp, #152]	; 0x98
  4029f0:	3410      	adds	r4, #16
  4029f2:	2b07      	cmp	r3, #7
  4029f4:	9427      	str	r4, [sp, #156]	; 0x9c
  4029f6:	e888 0044 	stmia.w	r8, {r2, r6}
  4029fa:	ddf1      	ble.n	4029e0 <_svfprintf_r+0x3e0>
  4029fc:	aa25      	add	r2, sp, #148	; 0x94
  4029fe:	4659      	mov	r1, fp
  402a00:	4638      	mov	r0, r7
  402a02:	f002 ff6b 	bl	4058dc <__ssprint_r>
  402a06:	2800      	cmp	r0, #0
  402a08:	f47f aecc 	bne.w	4027a4 <_svfprintf_r+0x1a4>
  402a0c:	3d10      	subs	r5, #16
  402a0e:	2d10      	cmp	r5, #16
  402a10:	9c27      	ldr	r4, [sp, #156]	; 0x9c
  402a12:	9b26      	ldr	r3, [sp, #152]	; 0x98
  402a14:	46c8      	mov	r8, r9
  402a16:	dce8      	bgt.n	4029ea <_svfprintf_r+0x3ea>
  402a18:	3301      	adds	r3, #1
  402a1a:	4a53      	ldr	r2, [pc, #332]	; (402b68 <_svfprintf_r+0x568>)
  402a1c:	9326      	str	r3, [sp, #152]	; 0x98
  402a1e:	442c      	add	r4, r5
  402a20:	2b07      	cmp	r3, #7
  402a22:	9427      	str	r4, [sp, #156]	; 0x9c
  402a24:	e888 0024 	stmia.w	r8, {r2, r5}
  402a28:	dd08      	ble.n	402a3c <_svfprintf_r+0x43c>
  402a2a:	aa25      	add	r2, sp, #148	; 0x94
  402a2c:	990b      	ldr	r1, [sp, #44]	; 0x2c
  402a2e:	980c      	ldr	r0, [sp, #48]	; 0x30
  402a30:	f002 ff54 	bl	4058dc <__ssprint_r>
  402a34:	2800      	cmp	r0, #0
  402a36:	f47f aeb5 	bne.w	4027a4 <_svfprintf_r+0x1a4>
  402a3a:	9c27      	ldr	r4, [sp, #156]	; 0x9c
  402a3c:	9b09      	ldr	r3, [sp, #36]	; 0x24
  402a3e:	9a0d      	ldr	r2, [sp, #52]	; 0x34
  402a40:	9908      	ldr	r1, [sp, #32]
  402a42:	428a      	cmp	r2, r1
  402a44:	bfac      	ite	ge
  402a46:	189b      	addge	r3, r3, r2
  402a48:	185b      	addlt	r3, r3, r1
  402a4a:	9309      	str	r3, [sp, #36]	; 0x24
  402a4c:	2c00      	cmp	r4, #0
  402a4e:	f040 830d 	bne.w	40306c <_svfprintf_r+0xa6c>
  402a52:	2300      	movs	r3, #0
  402a54:	9326      	str	r3, [sp, #152]	; 0x98
  402a56:	46c8      	mov	r8, r9
  402a58:	e5f9      	b.n	40264e <_svfprintf_r+0x4e>
  402a5a:	9311      	str	r3, [sp, #68]	; 0x44
  402a5c:	f01b 0320 	ands.w	r3, fp, #32
  402a60:	f040 81e3 	bne.w	402e2a <_svfprintf_r+0x82a>
  402a64:	f01b 0210 	ands.w	r2, fp, #16
  402a68:	f040 842e 	bne.w	4032c8 <_svfprintf_r+0xcc8>
  402a6c:	f01b 0340 	ands.w	r3, fp, #64	; 0x40
  402a70:	f000 842a 	beq.w	4032c8 <_svfprintf_r+0xcc8>
  402a74:	990f      	ldr	r1, [sp, #60]	; 0x3c
  402a76:	4613      	mov	r3, r2
  402a78:	460a      	mov	r2, r1
  402a7a:	3204      	adds	r2, #4
  402a7c:	880c      	ldrh	r4, [r1, #0]
  402a7e:	920f      	str	r2, [sp, #60]	; 0x3c
  402a80:	2500      	movs	r5, #0
  402a82:	e6b0      	b.n	4027e6 <_svfprintf_r+0x1e6>
  402a84:	9a0f      	ldr	r2, [sp, #60]	; 0x3c
  402a86:	9311      	str	r3, [sp, #68]	; 0x44
  402a88:	6816      	ldr	r6, [r2, #0]
  402a8a:	2400      	movs	r4, #0
  402a8c:	f88d 4077 	strb.w	r4, [sp, #119]	; 0x77
  402a90:	1d15      	adds	r5, r2, #4
  402a92:	2e00      	cmp	r6, #0
  402a94:	f000 86a7 	beq.w	4037e6 <_svfprintf_r+0x11e6>
  402a98:	9a0a      	ldr	r2, [sp, #40]	; 0x28
  402a9a:	1c53      	adds	r3, r2, #1
  402a9c:	f000 8609 	beq.w	4036b2 <_svfprintf_r+0x10b2>
  402aa0:	4621      	mov	r1, r4
  402aa2:	4630      	mov	r0, r6
  402aa4:	f002 fa8c 	bl	404fc0 <memchr>
  402aa8:	2800      	cmp	r0, #0
  402aaa:	f000 86e1 	beq.w	403870 <_svfprintf_r+0x1270>
  402aae:	1b83      	subs	r3, r0, r6
  402ab0:	930e      	str	r3, [sp, #56]	; 0x38
  402ab2:	940a      	str	r4, [sp, #40]	; 0x28
  402ab4:	950f      	str	r5, [sp, #60]	; 0x3c
  402ab6:	f8cd b01c 	str.w	fp, [sp, #28]
  402aba:	ea23 73e3 	bic.w	r3, r3, r3, asr #31
  402abe:	9308      	str	r3, [sp, #32]
  402ac0:	9412      	str	r4, [sp, #72]	; 0x48
  402ac2:	f89d 7077 	ldrb.w	r7, [sp, #119]	; 0x77
  402ac6:	e6b3      	b.n	402830 <_svfprintf_r+0x230>
  402ac8:	f89a 3000 	ldrb.w	r3, [sl]
  402acc:	2201      	movs	r2, #1
  402ace:	212b      	movs	r1, #43	; 0x2b
  402ad0:	e5ee      	b.n	4026b0 <_svfprintf_r+0xb0>
  402ad2:	f04b 0b20 	orr.w	fp, fp, #32
  402ad6:	f89a 3000 	ldrb.w	r3, [sl]
  402ada:	e5e9      	b.n	4026b0 <_svfprintf_r+0xb0>
  402adc:	9311      	str	r3, [sp, #68]	; 0x44
  402ade:	2a00      	cmp	r2, #0
  402ae0:	f040 8795 	bne.w	403a0e <_svfprintf_r+0x140e>
  402ae4:	4b22      	ldr	r3, [pc, #136]	; (402b70 <_svfprintf_r+0x570>)
  402ae6:	9318      	str	r3, [sp, #96]	; 0x60
  402ae8:	f01b 0f20 	tst.w	fp, #32
  402aec:	f040 8111 	bne.w	402d12 <_svfprintf_r+0x712>
  402af0:	9a0f      	ldr	r2, [sp, #60]	; 0x3c
  402af2:	f01b 0f10 	tst.w	fp, #16
  402af6:	4613      	mov	r3, r2
  402af8:	f040 83e1 	bne.w	4032be <_svfprintf_r+0xcbe>
  402afc:	f01b 0f40 	tst.w	fp, #64	; 0x40
  402b00:	f000 83dd 	beq.w	4032be <_svfprintf_r+0xcbe>
  402b04:	3304      	adds	r3, #4
  402b06:	8814      	ldrh	r4, [r2, #0]
  402b08:	930f      	str	r3, [sp, #60]	; 0x3c
  402b0a:	2500      	movs	r5, #0
  402b0c:	f01b 0f01 	tst.w	fp, #1
  402b10:	f000 810c 	beq.w	402d2c <_svfprintf_r+0x72c>
  402b14:	ea54 0305 	orrs.w	r3, r4, r5
  402b18:	f000 8108 	beq.w	402d2c <_svfprintf_r+0x72c>
  402b1c:	2330      	movs	r3, #48	; 0x30
  402b1e:	f89d 2044 	ldrb.w	r2, [sp, #68]	; 0x44
  402b22:	f88d 3078 	strb.w	r3, [sp, #120]	; 0x78
  402b26:	f88d 2079 	strb.w	r2, [sp, #121]	; 0x79
  402b2a:	f04b 0b02 	orr.w	fp, fp, #2
  402b2e:	2302      	movs	r3, #2
  402b30:	e659      	b.n	4027e6 <_svfprintf_r+0x1e6>
  402b32:	f89a 3000 	ldrb.w	r3, [sl]
  402b36:	2900      	cmp	r1, #0
  402b38:	f47f adba 	bne.w	4026b0 <_svfprintf_r+0xb0>
  402b3c:	2201      	movs	r2, #1
  402b3e:	2120      	movs	r1, #32
  402b40:	e5b6      	b.n	4026b0 <_svfprintf_r+0xb0>
  402b42:	f04b 0b01 	orr.w	fp, fp, #1
  402b46:	f89a 3000 	ldrb.w	r3, [sl]
  402b4a:	e5b1      	b.n	4026b0 <_svfprintf_r+0xb0>
  402b4c:	9c0f      	ldr	r4, [sp, #60]	; 0x3c
  402b4e:	6823      	ldr	r3, [r4, #0]
  402b50:	930d      	str	r3, [sp, #52]	; 0x34
  402b52:	4618      	mov	r0, r3
  402b54:	2800      	cmp	r0, #0
  402b56:	4623      	mov	r3, r4
  402b58:	f103 0304 	add.w	r3, r3, #4
  402b5c:	f6ff ae0a 	blt.w	402774 <_svfprintf_r+0x174>
  402b60:	930f      	str	r3, [sp, #60]	; 0x3c
  402b62:	f89a 3000 	ldrb.w	r3, [sl]
  402b66:	e5a3      	b.n	4026b0 <_svfprintf_r+0xb0>
  402b68:	00406df0 	.word	0x00406df0
  402b6c:	00406e00 	.word	0x00406e00
  402b70:	00406dd0 	.word	0x00406dd0
  402b74:	f04b 0b10 	orr.w	fp, fp, #16
  402b78:	f01b 0f20 	tst.w	fp, #32
  402b7c:	9311      	str	r3, [sp, #68]	; 0x44
  402b7e:	f43f ae23 	beq.w	4027c8 <_svfprintf_r+0x1c8>
  402b82:	9d0f      	ldr	r5, [sp, #60]	; 0x3c
  402b84:	3507      	adds	r5, #7
  402b86:	f025 0307 	bic.w	r3, r5, #7
  402b8a:	f103 0208 	add.w	r2, r3, #8
  402b8e:	e9d3 4500 	ldrd	r4, r5, [r3]
  402b92:	920f      	str	r2, [sp, #60]	; 0x3c
  402b94:	2301      	movs	r3, #1
  402b96:	e626      	b.n	4027e6 <_svfprintf_r+0x1e6>
  402b98:	f89a 3000 	ldrb.w	r3, [sl]
  402b9c:	2b2a      	cmp	r3, #42	; 0x2a
  402b9e:	f10a 0401 	add.w	r4, sl, #1
  402ba2:	f000 8727 	beq.w	4039f4 <_svfprintf_r+0x13f4>
  402ba6:	f1a3 0030 	sub.w	r0, r3, #48	; 0x30
  402baa:	2809      	cmp	r0, #9
  402bac:	46a2      	mov	sl, r4
  402bae:	f200 86ad 	bhi.w	40390c <_svfprintf_r+0x130c>
  402bb2:	2300      	movs	r3, #0
  402bb4:	461c      	mov	r4, r3
  402bb6:	f81a 3b01 	ldrb.w	r3, [sl], #1
  402bba:	eb04 0484 	add.w	r4, r4, r4, lsl #2
  402bbe:	eb00 0444 	add.w	r4, r0, r4, lsl #1
  402bc2:	f1a3 0030 	sub.w	r0, r3, #48	; 0x30
  402bc6:	2809      	cmp	r0, #9
  402bc8:	d9f5      	bls.n	402bb6 <_svfprintf_r+0x5b6>
  402bca:	940a      	str	r4, [sp, #40]	; 0x28
  402bcc:	e572      	b.n	4026b4 <_svfprintf_r+0xb4>
  402bce:	f04b 0b80 	orr.w	fp, fp, #128	; 0x80
  402bd2:	f89a 3000 	ldrb.w	r3, [sl]
  402bd6:	e56b      	b.n	4026b0 <_svfprintf_r+0xb0>
  402bd8:	f04b 0b40 	orr.w	fp, fp, #64	; 0x40
  402bdc:	f89a 3000 	ldrb.w	r3, [sl]
  402be0:	e566      	b.n	4026b0 <_svfprintf_r+0xb0>
  402be2:	f89a 3000 	ldrb.w	r3, [sl]
  402be6:	2b6c      	cmp	r3, #108	; 0x6c
  402be8:	bf03      	ittte	eq
  402bea:	f89a 3001 	ldrbeq.w	r3, [sl, #1]
  402bee:	f04b 0b20 	orreq.w	fp, fp, #32
  402bf2:	f10a 0a01 	addeq.w	sl, sl, #1
  402bf6:	f04b 0b10 	orrne.w	fp, fp, #16
  402bfa:	e559      	b.n	4026b0 <_svfprintf_r+0xb0>
  402bfc:	2a00      	cmp	r2, #0
  402bfe:	f040 8711 	bne.w	403a24 <_svfprintf_r+0x1424>
  402c02:	f01b 0f20 	tst.w	fp, #32
  402c06:	f040 84f9 	bne.w	4035fc <_svfprintf_r+0xffc>
  402c0a:	f01b 0f10 	tst.w	fp, #16
  402c0e:	f040 84ac 	bne.w	40356a <_svfprintf_r+0xf6a>
  402c12:	f01b 0f40 	tst.w	fp, #64	; 0x40
  402c16:	f000 84a8 	beq.w	40356a <_svfprintf_r+0xf6a>
  402c1a:	9a0f      	ldr	r2, [sp, #60]	; 0x3c
  402c1c:	6813      	ldr	r3, [r2, #0]
  402c1e:	3204      	adds	r2, #4
  402c20:	920f      	str	r2, [sp, #60]	; 0x3c
  402c22:	f8bd 2024 	ldrh.w	r2, [sp, #36]	; 0x24
  402c26:	801a      	strh	r2, [r3, #0]
  402c28:	e511      	b.n	40264e <_svfprintf_r+0x4e>
  402c2a:	990f      	ldr	r1, [sp, #60]	; 0x3c
  402c2c:	4bb3      	ldr	r3, [pc, #716]	; (402efc <_svfprintf_r+0x8fc>)
  402c2e:	680c      	ldr	r4, [r1, #0]
  402c30:	9318      	str	r3, [sp, #96]	; 0x60
  402c32:	2230      	movs	r2, #48	; 0x30
  402c34:	2378      	movs	r3, #120	; 0x78
  402c36:	3104      	adds	r1, #4
  402c38:	f88d 3079 	strb.w	r3, [sp, #121]	; 0x79
  402c3c:	9311      	str	r3, [sp, #68]	; 0x44
  402c3e:	f04b 0b02 	orr.w	fp, fp, #2
  402c42:	910f      	str	r1, [sp, #60]	; 0x3c
  402c44:	2500      	movs	r5, #0
  402c46:	f88d 2078 	strb.w	r2, [sp, #120]	; 0x78
  402c4a:	2302      	movs	r3, #2
  402c4c:	e5cb      	b.n	4027e6 <_svfprintf_r+0x1e6>
  402c4e:	990f      	ldr	r1, [sp, #60]	; 0x3c
  402c50:	9311      	str	r3, [sp, #68]	; 0x44
  402c52:	680a      	ldr	r2, [r1, #0]
  402c54:	f88d 20a0 	strb.w	r2, [sp, #160]	; 0xa0
  402c58:	2300      	movs	r3, #0
  402c5a:	460a      	mov	r2, r1
  402c5c:	461f      	mov	r7, r3
  402c5e:	f88d 3077 	strb.w	r3, [sp, #119]	; 0x77
  402c62:	3204      	adds	r2, #4
  402c64:	2301      	movs	r3, #1
  402c66:	9308      	str	r3, [sp, #32]
  402c68:	f8cd b01c 	str.w	fp, [sp, #28]
  402c6c:	970a      	str	r7, [sp, #40]	; 0x28
  402c6e:	9712      	str	r7, [sp, #72]	; 0x48
  402c70:	920f      	str	r2, [sp, #60]	; 0x3c
  402c72:	930e      	str	r3, [sp, #56]	; 0x38
  402c74:	ae28      	add	r6, sp, #160	; 0xa0
  402c76:	e5df      	b.n	402838 <_svfprintf_r+0x238>
  402c78:	9311      	str	r3, [sp, #68]	; 0x44
  402c7a:	2a00      	cmp	r2, #0
  402c7c:	f040 86ea 	bne.w	403a54 <_svfprintf_r+0x1454>
  402c80:	f01b 0f20 	tst.w	fp, #32
  402c84:	d15d      	bne.n	402d42 <_svfprintf_r+0x742>
  402c86:	f01b 0f10 	tst.w	fp, #16
  402c8a:	f040 8308 	bne.w	40329e <_svfprintf_r+0xc9e>
  402c8e:	f01b 0f40 	tst.w	fp, #64	; 0x40
  402c92:	f000 8304 	beq.w	40329e <_svfprintf_r+0xc9e>
  402c96:	990f      	ldr	r1, [sp, #60]	; 0x3c
  402c98:	f9b1 4000 	ldrsh.w	r4, [r1]
  402c9c:	3104      	adds	r1, #4
  402c9e:	17e5      	asrs	r5, r4, #31
  402ca0:	4622      	mov	r2, r4
  402ca2:	462b      	mov	r3, r5
  402ca4:	910f      	str	r1, [sp, #60]	; 0x3c
  402ca6:	2a00      	cmp	r2, #0
  402ca8:	f173 0300 	sbcs.w	r3, r3, #0
  402cac:	db58      	blt.n	402d60 <_svfprintf_r+0x760>
  402cae:	990a      	ldr	r1, [sp, #40]	; 0x28
  402cb0:	f89d 7077 	ldrb.w	r7, [sp, #119]	; 0x77
  402cb4:	1c4a      	adds	r2, r1, #1
  402cb6:	f04f 0301 	mov.w	r3, #1
  402cba:	f47f ad9b 	bne.w	4027f4 <_svfprintf_r+0x1f4>
  402cbe:	ea54 0205 	orrs.w	r2, r4, r5
  402cc2:	f000 81df 	beq.w	403084 <_svfprintf_r+0xa84>
  402cc6:	f8cd b01c 	str.w	fp, [sp, #28]
  402cca:	2b01      	cmp	r3, #1
  402ccc:	f000 827b 	beq.w	4031c6 <_svfprintf_r+0xbc6>
  402cd0:	2b02      	cmp	r3, #2
  402cd2:	f040 8206 	bne.w	4030e2 <_svfprintf_r+0xae2>
  402cd6:	9818      	ldr	r0, [sp, #96]	; 0x60
  402cd8:	464e      	mov	r6, r9
  402cda:	0923      	lsrs	r3, r4, #4
  402cdc:	f004 010f 	and.w	r1, r4, #15
  402ce0:	ea43 7305 	orr.w	r3, r3, r5, lsl #28
  402ce4:	092a      	lsrs	r2, r5, #4
  402ce6:	461c      	mov	r4, r3
  402ce8:	4615      	mov	r5, r2
  402cea:	5c43      	ldrb	r3, [r0, r1]
  402cec:	f806 3d01 	strb.w	r3, [r6, #-1]!
  402cf0:	ea54 0305 	orrs.w	r3, r4, r5
  402cf4:	d1f1      	bne.n	402cda <_svfprintf_r+0x6da>
  402cf6:	eba9 0306 	sub.w	r3, r9, r6
  402cfa:	930e      	str	r3, [sp, #56]	; 0x38
  402cfc:	e590      	b.n	402820 <_svfprintf_r+0x220>
  402cfe:	9311      	str	r3, [sp, #68]	; 0x44
  402d00:	2a00      	cmp	r2, #0
  402d02:	f040 86a3 	bne.w	403a4c <_svfprintf_r+0x144c>
  402d06:	4b7e      	ldr	r3, [pc, #504]	; (402f00 <_svfprintf_r+0x900>)
  402d08:	9318      	str	r3, [sp, #96]	; 0x60
  402d0a:	f01b 0f20 	tst.w	fp, #32
  402d0e:	f43f aeef 	beq.w	402af0 <_svfprintf_r+0x4f0>
  402d12:	9d0f      	ldr	r5, [sp, #60]	; 0x3c
  402d14:	3507      	adds	r5, #7
  402d16:	f025 0307 	bic.w	r3, r5, #7
  402d1a:	f103 0208 	add.w	r2, r3, #8
  402d1e:	f01b 0f01 	tst.w	fp, #1
  402d22:	920f      	str	r2, [sp, #60]	; 0x3c
  402d24:	e9d3 4500 	ldrd	r4, r5, [r3]
  402d28:	f47f aef4 	bne.w	402b14 <_svfprintf_r+0x514>
  402d2c:	2302      	movs	r3, #2
  402d2e:	e55a      	b.n	4027e6 <_svfprintf_r+0x1e6>
  402d30:	9311      	str	r3, [sp, #68]	; 0x44
  402d32:	2a00      	cmp	r2, #0
  402d34:	f040 8686 	bne.w	403a44 <_svfprintf_r+0x1444>
  402d38:	f04b 0b10 	orr.w	fp, fp, #16
  402d3c:	f01b 0f20 	tst.w	fp, #32
  402d40:	d0a1      	beq.n	402c86 <_svfprintf_r+0x686>
  402d42:	9d0f      	ldr	r5, [sp, #60]	; 0x3c
  402d44:	3507      	adds	r5, #7
  402d46:	f025 0507 	bic.w	r5, r5, #7
  402d4a:	e9d5 2300 	ldrd	r2, r3, [r5]
  402d4e:	2a00      	cmp	r2, #0
  402d50:	f105 0108 	add.w	r1, r5, #8
  402d54:	461d      	mov	r5, r3
  402d56:	f173 0300 	sbcs.w	r3, r3, #0
  402d5a:	910f      	str	r1, [sp, #60]	; 0x3c
  402d5c:	4614      	mov	r4, r2
  402d5e:	daa6      	bge.n	402cae <_svfprintf_r+0x6ae>
  402d60:	272d      	movs	r7, #45	; 0x2d
  402d62:	4264      	negs	r4, r4
  402d64:	eb65 0545 	sbc.w	r5, r5, r5, lsl #1
  402d68:	f88d 7077 	strb.w	r7, [sp, #119]	; 0x77
  402d6c:	2301      	movs	r3, #1
  402d6e:	e53d      	b.n	4027ec <_svfprintf_r+0x1ec>
  402d70:	9311      	str	r3, [sp, #68]	; 0x44
  402d72:	2a00      	cmp	r2, #0
  402d74:	f040 8662 	bne.w	403a3c <_svfprintf_r+0x143c>
  402d78:	9d0f      	ldr	r5, [sp, #60]	; 0x3c
  402d7a:	3507      	adds	r5, #7
  402d7c:	f025 0307 	bic.w	r3, r5, #7
  402d80:	f103 0208 	add.w	r2, r3, #8
  402d84:	920f      	str	r2, [sp, #60]	; 0x3c
  402d86:	681a      	ldr	r2, [r3, #0]
  402d88:	9215      	str	r2, [sp, #84]	; 0x54
  402d8a:	685b      	ldr	r3, [r3, #4]
  402d8c:	9314      	str	r3, [sp, #80]	; 0x50
  402d8e:	9b14      	ldr	r3, [sp, #80]	; 0x50
  402d90:	9d15      	ldr	r5, [sp, #84]	; 0x54
  402d92:	f023 4400 	bic.w	r4, r3, #2147483648	; 0x80000000
  402d96:	4628      	mov	r0, r5
  402d98:	4621      	mov	r1, r4
  402d9a:	f04f 32ff 	mov.w	r2, #4294967295
  402d9e:	4b59      	ldr	r3, [pc, #356]	; (402f04 <_svfprintf_r+0x904>)
  402da0:	f003 fa98 	bl	4062d4 <__aeabi_dcmpun>
  402da4:	2800      	cmp	r0, #0
  402da6:	f040 834a 	bne.w	40343e <_svfprintf_r+0xe3e>
  402daa:	4628      	mov	r0, r5
  402dac:	4621      	mov	r1, r4
  402dae:	f04f 32ff 	mov.w	r2, #4294967295
  402db2:	4b54      	ldr	r3, [pc, #336]	; (402f04 <_svfprintf_r+0x904>)
  402db4:	f003 fa70 	bl	406298 <__aeabi_dcmple>
  402db8:	2800      	cmp	r0, #0
  402dba:	f040 8340 	bne.w	40343e <_svfprintf_r+0xe3e>
  402dbe:	a815      	add	r0, sp, #84	; 0x54
  402dc0:	c80d      	ldmia	r0, {r0, r2, r3}
  402dc2:	9914      	ldr	r1, [sp, #80]	; 0x50
  402dc4:	f003 fa5e 	bl	406284 <__aeabi_dcmplt>
  402dc8:	2800      	cmp	r0, #0
  402dca:	f040 8530 	bne.w	40382e <_svfprintf_r+0x122e>
  402dce:	f89d 7077 	ldrb.w	r7, [sp, #119]	; 0x77
  402dd2:	4e4d      	ldr	r6, [pc, #308]	; (402f08 <_svfprintf_r+0x908>)
  402dd4:	4b4d      	ldr	r3, [pc, #308]	; (402f0c <_svfprintf_r+0x90c>)
  402dd6:	f02b 0080 	bic.w	r0, fp, #128	; 0x80
  402dda:	9007      	str	r0, [sp, #28]
  402ddc:	9811      	ldr	r0, [sp, #68]	; 0x44
  402dde:	2203      	movs	r2, #3
  402de0:	2100      	movs	r1, #0
  402de2:	9208      	str	r2, [sp, #32]
  402de4:	910a      	str	r1, [sp, #40]	; 0x28
  402de6:	2847      	cmp	r0, #71	; 0x47
  402de8:	bfd8      	it	le
  402dea:	461e      	movle	r6, r3
  402dec:	920e      	str	r2, [sp, #56]	; 0x38
  402dee:	9112      	str	r1, [sp, #72]	; 0x48
  402df0:	e51e      	b.n	402830 <_svfprintf_r+0x230>
  402df2:	f04b 0b08 	orr.w	fp, fp, #8
  402df6:	f89a 3000 	ldrb.w	r3, [sl]
  402dfa:	e459      	b.n	4026b0 <_svfprintf_r+0xb0>
  402dfc:	f1a3 0030 	sub.w	r0, r3, #48	; 0x30
  402e00:	2300      	movs	r3, #0
  402e02:	461c      	mov	r4, r3
  402e04:	f81a 3b01 	ldrb.w	r3, [sl], #1
  402e08:	eb04 0484 	add.w	r4, r4, r4, lsl #2
  402e0c:	eb00 0444 	add.w	r4, r0, r4, lsl #1
  402e10:	f1a3 0030 	sub.w	r0, r3, #48	; 0x30
  402e14:	2809      	cmp	r0, #9
  402e16:	d9f5      	bls.n	402e04 <_svfprintf_r+0x804>
  402e18:	940d      	str	r4, [sp, #52]	; 0x34
  402e1a:	e44b      	b.n	4026b4 <_svfprintf_r+0xb4>
  402e1c:	f04b 0b10 	orr.w	fp, fp, #16
  402e20:	9311      	str	r3, [sp, #68]	; 0x44
  402e22:	f01b 0320 	ands.w	r3, fp, #32
  402e26:	f43f ae1d 	beq.w	402a64 <_svfprintf_r+0x464>
  402e2a:	9d0f      	ldr	r5, [sp, #60]	; 0x3c
  402e2c:	3507      	adds	r5, #7
  402e2e:	f025 0307 	bic.w	r3, r5, #7
  402e32:	f103 0208 	add.w	r2, r3, #8
  402e36:	e9d3 4500 	ldrd	r4, r5, [r3]
  402e3a:	920f      	str	r2, [sp, #60]	; 0x3c
  402e3c:	2300      	movs	r3, #0
  402e3e:	e4d2      	b.n	4027e6 <_svfprintf_r+0x1e6>
  402e40:	9311      	str	r3, [sp, #68]	; 0x44
  402e42:	2a00      	cmp	r2, #0
  402e44:	f040 85e7 	bne.w	403a16 <_svfprintf_r+0x1416>
  402e48:	9a11      	ldr	r2, [sp, #68]	; 0x44
  402e4a:	2a00      	cmp	r2, #0
  402e4c:	f43f aca3 	beq.w	402796 <_svfprintf_r+0x196>
  402e50:	2300      	movs	r3, #0
  402e52:	2101      	movs	r1, #1
  402e54:	461f      	mov	r7, r3
  402e56:	9108      	str	r1, [sp, #32]
  402e58:	f88d 20a0 	strb.w	r2, [sp, #160]	; 0xa0
  402e5c:	f8cd b01c 	str.w	fp, [sp, #28]
  402e60:	f88d 3077 	strb.w	r3, [sp, #119]	; 0x77
  402e64:	930a      	str	r3, [sp, #40]	; 0x28
  402e66:	9312      	str	r3, [sp, #72]	; 0x48
  402e68:	910e      	str	r1, [sp, #56]	; 0x38
  402e6a:	ae28      	add	r6, sp, #160	; 0xa0
  402e6c:	e4e4      	b.n	402838 <_svfprintf_r+0x238>
  402e6e:	9c27      	ldr	r4, [sp, #156]	; 0x9c
  402e70:	e534      	b.n	4028dc <_svfprintf_r+0x2dc>
  402e72:	9b11      	ldr	r3, [sp, #68]	; 0x44
  402e74:	2b65      	cmp	r3, #101	; 0x65
  402e76:	f340 80a7 	ble.w	402fc8 <_svfprintf_r+0x9c8>
  402e7a:	a815      	add	r0, sp, #84	; 0x54
  402e7c:	c80d      	ldmia	r0, {r0, r2, r3}
  402e7e:	9914      	ldr	r1, [sp, #80]	; 0x50
  402e80:	f003 f9f6 	bl	406270 <__aeabi_dcmpeq>
  402e84:	2800      	cmp	r0, #0
  402e86:	f000 8150 	beq.w	40312a <_svfprintf_r+0xb2a>
  402e8a:	9b26      	ldr	r3, [sp, #152]	; 0x98
  402e8c:	4a20      	ldr	r2, [pc, #128]	; (402f10 <_svfprintf_r+0x910>)
  402e8e:	f8c8 2000 	str.w	r2, [r8]
  402e92:	3301      	adds	r3, #1
  402e94:	3401      	adds	r4, #1
  402e96:	2201      	movs	r2, #1
  402e98:	2b07      	cmp	r3, #7
  402e9a:	9427      	str	r4, [sp, #156]	; 0x9c
  402e9c:	9326      	str	r3, [sp, #152]	; 0x98
  402e9e:	f8c8 2004 	str.w	r2, [r8, #4]
  402ea2:	f300 836a 	bgt.w	40357a <_svfprintf_r+0xf7a>
  402ea6:	f108 0808 	add.w	r8, r8, #8
  402eaa:	9b1f      	ldr	r3, [sp, #124]	; 0x7c
  402eac:	9a13      	ldr	r2, [sp, #76]	; 0x4c
  402eae:	9c27      	ldr	r4, [sp, #156]	; 0x9c
  402eb0:	4293      	cmp	r3, r2
  402eb2:	db03      	blt.n	402ebc <_svfprintf_r+0x8bc>
  402eb4:	9b07      	ldr	r3, [sp, #28]
  402eb6:	07dd      	lsls	r5, r3, #31
  402eb8:	f57f ad82 	bpl.w	4029c0 <_svfprintf_r+0x3c0>
  402ebc:	9b26      	ldr	r3, [sp, #152]	; 0x98
  402ebe:	9919      	ldr	r1, [sp, #100]	; 0x64
  402ec0:	9a1a      	ldr	r2, [sp, #104]	; 0x68
  402ec2:	f8c8 2000 	str.w	r2, [r8]
  402ec6:	3301      	adds	r3, #1
  402ec8:	440c      	add	r4, r1
  402eca:	2b07      	cmp	r3, #7
  402ecc:	f8c8 1004 	str.w	r1, [r8, #4]
  402ed0:	9427      	str	r4, [sp, #156]	; 0x9c
  402ed2:	9326      	str	r3, [sp, #152]	; 0x98
  402ed4:	f300 839e 	bgt.w	403614 <_svfprintf_r+0x1014>
  402ed8:	f108 0808 	add.w	r8, r8, #8
  402edc:	9b13      	ldr	r3, [sp, #76]	; 0x4c
  402ede:	1e5e      	subs	r6, r3, #1
  402ee0:	2e00      	cmp	r6, #0
  402ee2:	f77f ad6d 	ble.w	4029c0 <_svfprintf_r+0x3c0>
  402ee6:	2e10      	cmp	r6, #16
  402ee8:	9b26      	ldr	r3, [sp, #152]	; 0x98
  402eea:	4d0a      	ldr	r5, [pc, #40]	; (402f14 <_svfprintf_r+0x914>)
  402eec:	f340 81f5 	ble.w	4032da <_svfprintf_r+0xcda>
  402ef0:	4622      	mov	r2, r4
  402ef2:	2710      	movs	r7, #16
  402ef4:	f8dd b030 	ldr.w	fp, [sp, #48]	; 0x30
  402ef8:	9c0b      	ldr	r4, [sp, #44]	; 0x2c
  402efa:	e013      	b.n	402f24 <_svfprintf_r+0x924>
  402efc:	00406dd0 	.word	0x00406dd0
  402f00:	00406dbc 	.word	0x00406dbc
  402f04:	7fefffff 	.word	0x7fefffff
  402f08:	00406db0 	.word	0x00406db0
  402f0c:	00406dac 	.word	0x00406dac
  402f10:	00406dec 	.word	0x00406dec
  402f14:	00406e00 	.word	0x00406e00
  402f18:	f108 0808 	add.w	r8, r8, #8
  402f1c:	3e10      	subs	r6, #16
  402f1e:	2e10      	cmp	r6, #16
  402f20:	f340 81da 	ble.w	4032d8 <_svfprintf_r+0xcd8>
  402f24:	3301      	adds	r3, #1
  402f26:	3210      	adds	r2, #16
  402f28:	2b07      	cmp	r3, #7
  402f2a:	9227      	str	r2, [sp, #156]	; 0x9c
  402f2c:	9326      	str	r3, [sp, #152]	; 0x98
  402f2e:	e888 00a0 	stmia.w	r8, {r5, r7}
  402f32:	ddf1      	ble.n	402f18 <_svfprintf_r+0x918>
  402f34:	aa25      	add	r2, sp, #148	; 0x94
  402f36:	4621      	mov	r1, r4
  402f38:	4658      	mov	r0, fp
  402f3a:	f002 fccf 	bl	4058dc <__ssprint_r>
  402f3e:	2800      	cmp	r0, #0
  402f40:	f47f ac30 	bne.w	4027a4 <_svfprintf_r+0x1a4>
  402f44:	9a27      	ldr	r2, [sp, #156]	; 0x9c
  402f46:	9b26      	ldr	r3, [sp, #152]	; 0x98
  402f48:	46c8      	mov	r8, r9
  402f4a:	e7e7      	b.n	402f1c <_svfprintf_r+0x91c>
  402f4c:	9b0d      	ldr	r3, [sp, #52]	; 0x34
  402f4e:	9a08      	ldr	r2, [sp, #32]
  402f50:	1a9f      	subs	r7, r3, r2
  402f52:	2f00      	cmp	r7, #0
  402f54:	f77f ace5 	ble.w	402922 <_svfprintf_r+0x322>
  402f58:	2f10      	cmp	r7, #16
  402f5a:	9b26      	ldr	r3, [sp, #152]	; 0x98
  402f5c:	4db6      	ldr	r5, [pc, #728]	; (403238 <_svfprintf_r+0xc38>)
  402f5e:	dd27      	ble.n	402fb0 <_svfprintf_r+0x9b0>
  402f60:	4642      	mov	r2, r8
  402f62:	4621      	mov	r1, r4
  402f64:	46b0      	mov	r8, r6
  402f66:	f04f 0b10 	mov.w	fp, #16
  402f6a:	462e      	mov	r6, r5
  402f6c:	9c0c      	ldr	r4, [sp, #48]	; 0x30
  402f6e:	9d0b      	ldr	r5, [sp, #44]	; 0x2c
  402f70:	e004      	b.n	402f7c <_svfprintf_r+0x97c>
  402f72:	3f10      	subs	r7, #16
  402f74:	2f10      	cmp	r7, #16
  402f76:	f102 0208 	add.w	r2, r2, #8
  402f7a:	dd15      	ble.n	402fa8 <_svfprintf_r+0x9a8>
  402f7c:	3301      	adds	r3, #1
  402f7e:	3110      	adds	r1, #16
  402f80:	2b07      	cmp	r3, #7
  402f82:	9127      	str	r1, [sp, #156]	; 0x9c
  402f84:	9326      	str	r3, [sp, #152]	; 0x98
  402f86:	e882 0840 	stmia.w	r2, {r6, fp}
  402f8a:	ddf2      	ble.n	402f72 <_svfprintf_r+0x972>
  402f8c:	aa25      	add	r2, sp, #148	; 0x94
  402f8e:	4629      	mov	r1, r5
  402f90:	4620      	mov	r0, r4
  402f92:	f002 fca3 	bl	4058dc <__ssprint_r>
  402f96:	2800      	cmp	r0, #0
  402f98:	f47f ac04 	bne.w	4027a4 <_svfprintf_r+0x1a4>
  402f9c:	3f10      	subs	r7, #16
  402f9e:	2f10      	cmp	r7, #16
  402fa0:	9927      	ldr	r1, [sp, #156]	; 0x9c
  402fa2:	9b26      	ldr	r3, [sp, #152]	; 0x98
  402fa4:	464a      	mov	r2, r9
  402fa6:	dce9      	bgt.n	402f7c <_svfprintf_r+0x97c>
  402fa8:	4635      	mov	r5, r6
  402faa:	460c      	mov	r4, r1
  402fac:	4646      	mov	r6, r8
  402fae:	4690      	mov	r8, r2
  402fb0:	3301      	adds	r3, #1
  402fb2:	443c      	add	r4, r7
  402fb4:	2b07      	cmp	r3, #7
  402fb6:	9427      	str	r4, [sp, #156]	; 0x9c
  402fb8:	9326      	str	r3, [sp, #152]	; 0x98
  402fba:	e888 00a0 	stmia.w	r8, {r5, r7}
  402fbe:	f300 8232 	bgt.w	403426 <_svfprintf_r+0xe26>
  402fc2:	f108 0808 	add.w	r8, r8, #8
  402fc6:	e4ac      	b.n	402922 <_svfprintf_r+0x322>
  402fc8:	9b13      	ldr	r3, [sp, #76]	; 0x4c
  402fca:	9f26      	ldr	r7, [sp, #152]	; 0x98
  402fcc:	2b01      	cmp	r3, #1
  402fce:	f340 81fe 	ble.w	4033ce <_svfprintf_r+0xdce>
  402fd2:	3701      	adds	r7, #1
  402fd4:	3401      	adds	r4, #1
  402fd6:	2301      	movs	r3, #1
  402fd8:	2f07      	cmp	r7, #7
  402fda:	9427      	str	r4, [sp, #156]	; 0x9c
  402fdc:	9726      	str	r7, [sp, #152]	; 0x98
  402fde:	f8c8 6000 	str.w	r6, [r8]
  402fe2:	f8c8 3004 	str.w	r3, [r8, #4]
  402fe6:	f300 8203 	bgt.w	4033f0 <_svfprintf_r+0xdf0>
  402fea:	f108 0808 	add.w	r8, r8, #8
  402fee:	9a19      	ldr	r2, [sp, #100]	; 0x64
  402ff0:	9b1a      	ldr	r3, [sp, #104]	; 0x68
  402ff2:	f8c8 3000 	str.w	r3, [r8]
  402ff6:	3701      	adds	r7, #1
  402ff8:	4414      	add	r4, r2
  402ffa:	2f07      	cmp	r7, #7
  402ffc:	9427      	str	r4, [sp, #156]	; 0x9c
  402ffe:	9726      	str	r7, [sp, #152]	; 0x98
  403000:	f8c8 2004 	str.w	r2, [r8, #4]
  403004:	f300 8200 	bgt.w	403408 <_svfprintf_r+0xe08>
  403008:	f108 0808 	add.w	r8, r8, #8
  40300c:	a815      	add	r0, sp, #84	; 0x54
  40300e:	c80d      	ldmia	r0, {r0, r2, r3}
  403010:	9914      	ldr	r1, [sp, #80]	; 0x50
  403012:	f003 f92d 	bl	406270 <__aeabi_dcmpeq>
  403016:	9b13      	ldr	r3, [sp, #76]	; 0x4c
  403018:	2800      	cmp	r0, #0
  40301a:	f040 8101 	bne.w	403220 <_svfprintf_r+0xc20>
  40301e:	3b01      	subs	r3, #1
  403020:	3701      	adds	r7, #1
  403022:	3601      	adds	r6, #1
  403024:	441c      	add	r4, r3
  403026:	2f07      	cmp	r7, #7
  403028:	9726      	str	r7, [sp, #152]	; 0x98
  40302a:	9427      	str	r4, [sp, #156]	; 0x9c
  40302c:	f8c8 6000 	str.w	r6, [r8]
  403030:	f8c8 3004 	str.w	r3, [r8, #4]
  403034:	f300 8127 	bgt.w	403286 <_svfprintf_r+0xc86>
  403038:	f108 0808 	add.w	r8, r8, #8
  40303c:	9a1b      	ldr	r2, [sp, #108]	; 0x6c
  40303e:	f8c8 2004 	str.w	r2, [r8, #4]
  403042:	3701      	adds	r7, #1
  403044:	4414      	add	r4, r2
  403046:	ab21      	add	r3, sp, #132	; 0x84
  403048:	2f07      	cmp	r7, #7
  40304a:	9427      	str	r4, [sp, #156]	; 0x9c
  40304c:	9726      	str	r7, [sp, #152]	; 0x98
  40304e:	f8c8 3000 	str.w	r3, [r8]
  403052:	f77f acb3 	ble.w	4029bc <_svfprintf_r+0x3bc>
  403056:	aa25      	add	r2, sp, #148	; 0x94
  403058:	990b      	ldr	r1, [sp, #44]	; 0x2c
  40305a:	980c      	ldr	r0, [sp, #48]	; 0x30
  40305c:	f002 fc3e 	bl	4058dc <__ssprint_r>
  403060:	2800      	cmp	r0, #0
  403062:	f47f ab9f 	bne.w	4027a4 <_svfprintf_r+0x1a4>
  403066:	9c27      	ldr	r4, [sp, #156]	; 0x9c
  403068:	46c8      	mov	r8, r9
  40306a:	e4a9      	b.n	4029c0 <_svfprintf_r+0x3c0>
  40306c:	aa25      	add	r2, sp, #148	; 0x94
  40306e:	990b      	ldr	r1, [sp, #44]	; 0x2c
  403070:	980c      	ldr	r0, [sp, #48]	; 0x30
  403072:	f002 fc33 	bl	4058dc <__ssprint_r>
  403076:	2800      	cmp	r0, #0
  403078:	f43f aceb 	beq.w	402a52 <_svfprintf_r+0x452>
  40307c:	f7ff bb92 	b.w	4027a4 <_svfprintf_r+0x1a4>
  403080:	f8dd b01c 	ldr.w	fp, [sp, #28]
  403084:	2b01      	cmp	r3, #1
  403086:	f000 8134 	beq.w	4032f2 <_svfprintf_r+0xcf2>
  40308a:	2b02      	cmp	r3, #2
  40308c:	d125      	bne.n	4030da <_svfprintf_r+0xada>
  40308e:	f8cd b01c 	str.w	fp, [sp, #28]
  403092:	2400      	movs	r4, #0
  403094:	2500      	movs	r5, #0
  403096:	e61e      	b.n	402cd6 <_svfprintf_r+0x6d6>
  403098:	aa25      	add	r2, sp, #148	; 0x94
  40309a:	990b      	ldr	r1, [sp, #44]	; 0x2c
  40309c:	980c      	ldr	r0, [sp, #48]	; 0x30
  40309e:	f002 fc1d 	bl	4058dc <__ssprint_r>
  4030a2:	2800      	cmp	r0, #0
  4030a4:	f47f ab7e 	bne.w	4027a4 <_svfprintf_r+0x1a4>
  4030a8:	9c27      	ldr	r4, [sp, #156]	; 0x9c
  4030aa:	46c8      	mov	r8, r9
  4030ac:	e475      	b.n	40299a <_svfprintf_r+0x39a>
  4030ae:	aa25      	add	r2, sp, #148	; 0x94
  4030b0:	990b      	ldr	r1, [sp, #44]	; 0x2c
  4030b2:	980c      	ldr	r0, [sp, #48]	; 0x30
  4030b4:	f002 fc12 	bl	4058dc <__ssprint_r>
  4030b8:	2800      	cmp	r0, #0
  4030ba:	f47f ab73 	bne.w	4027a4 <_svfprintf_r+0x1a4>
  4030be:	9c27      	ldr	r4, [sp, #156]	; 0x9c
  4030c0:	46c8      	mov	r8, r9
  4030c2:	e41b      	b.n	4028fc <_svfprintf_r+0x2fc>
  4030c4:	aa25      	add	r2, sp, #148	; 0x94
  4030c6:	990b      	ldr	r1, [sp, #44]	; 0x2c
  4030c8:	980c      	ldr	r0, [sp, #48]	; 0x30
  4030ca:	f002 fc07 	bl	4058dc <__ssprint_r>
  4030ce:	2800      	cmp	r0, #0
  4030d0:	f47f ab68 	bne.w	4027a4 <_svfprintf_r+0x1a4>
  4030d4:	9c27      	ldr	r4, [sp, #156]	; 0x9c
  4030d6:	46c8      	mov	r8, r9
  4030d8:	e420      	b.n	40291c <_svfprintf_r+0x31c>
  4030da:	f8cd b01c 	str.w	fp, [sp, #28]
  4030de:	2400      	movs	r4, #0
  4030e0:	2500      	movs	r5, #0
  4030e2:	4649      	mov	r1, r9
  4030e4:	e000      	b.n	4030e8 <_svfprintf_r+0xae8>
  4030e6:	4631      	mov	r1, r6
  4030e8:	08e2      	lsrs	r2, r4, #3
  4030ea:	ea42 7245 	orr.w	r2, r2, r5, lsl #29
  4030ee:	08e8      	lsrs	r0, r5, #3
  4030f0:	f004 0307 	and.w	r3, r4, #7
  4030f4:	4605      	mov	r5, r0
  4030f6:	4614      	mov	r4, r2
  4030f8:	3330      	adds	r3, #48	; 0x30
  4030fa:	ea54 0205 	orrs.w	r2, r4, r5
  4030fe:	f801 3c01 	strb.w	r3, [r1, #-1]
  403102:	f101 36ff 	add.w	r6, r1, #4294967295
  403106:	d1ee      	bne.n	4030e6 <_svfprintf_r+0xae6>
  403108:	9a07      	ldr	r2, [sp, #28]
  40310a:	07d2      	lsls	r2, r2, #31
  40310c:	f57f adf3 	bpl.w	402cf6 <_svfprintf_r+0x6f6>
  403110:	2b30      	cmp	r3, #48	; 0x30
  403112:	f43f adf0 	beq.w	402cf6 <_svfprintf_r+0x6f6>
  403116:	3902      	subs	r1, #2
  403118:	2330      	movs	r3, #48	; 0x30
  40311a:	f806 3c01 	strb.w	r3, [r6, #-1]
  40311e:	eba9 0301 	sub.w	r3, r9, r1
  403122:	930e      	str	r3, [sp, #56]	; 0x38
  403124:	460e      	mov	r6, r1
  403126:	f7ff bb7b 	b.w	402820 <_svfprintf_r+0x220>
  40312a:	991f      	ldr	r1, [sp, #124]	; 0x7c
  40312c:	2900      	cmp	r1, #0
  40312e:	f340 822e 	ble.w	40358e <_svfprintf_r+0xf8e>
  403132:	9b12      	ldr	r3, [sp, #72]	; 0x48
  403134:	9a13      	ldr	r2, [sp, #76]	; 0x4c
  403136:	4293      	cmp	r3, r2
  403138:	bfa8      	it	ge
  40313a:	4613      	movge	r3, r2
  40313c:	2b00      	cmp	r3, #0
  40313e:	461f      	mov	r7, r3
  403140:	dd0d      	ble.n	40315e <_svfprintf_r+0xb5e>
  403142:	9b26      	ldr	r3, [sp, #152]	; 0x98
  403144:	f8c8 6000 	str.w	r6, [r8]
  403148:	3301      	adds	r3, #1
  40314a:	443c      	add	r4, r7
  40314c:	2b07      	cmp	r3, #7
  40314e:	9427      	str	r4, [sp, #156]	; 0x9c
  403150:	f8c8 7004 	str.w	r7, [r8, #4]
  403154:	9326      	str	r3, [sp, #152]	; 0x98
  403156:	f300 831f 	bgt.w	403798 <_svfprintf_r+0x1198>
  40315a:	f108 0808 	add.w	r8, r8, #8
  40315e:	9b12      	ldr	r3, [sp, #72]	; 0x48
  403160:	2f00      	cmp	r7, #0
  403162:	bfa8      	it	ge
  403164:	1bdb      	subge	r3, r3, r7
  403166:	2b00      	cmp	r3, #0
  403168:	461f      	mov	r7, r3
  40316a:	f340 80d6 	ble.w	40331a <_svfprintf_r+0xd1a>
  40316e:	2f10      	cmp	r7, #16
  403170:	9b26      	ldr	r3, [sp, #152]	; 0x98
  403172:	4d31      	ldr	r5, [pc, #196]	; (403238 <_svfprintf_r+0xc38>)
  403174:	f340 81ed 	ble.w	403552 <_svfprintf_r+0xf52>
  403178:	4642      	mov	r2, r8
  40317a:	4621      	mov	r1, r4
  40317c:	46b0      	mov	r8, r6
  40317e:	f04f 0b10 	mov.w	fp, #16
  403182:	462e      	mov	r6, r5
  403184:	9c0c      	ldr	r4, [sp, #48]	; 0x30
  403186:	9d0b      	ldr	r5, [sp, #44]	; 0x2c
  403188:	e004      	b.n	403194 <_svfprintf_r+0xb94>
  40318a:	3208      	adds	r2, #8
  40318c:	3f10      	subs	r7, #16
  40318e:	2f10      	cmp	r7, #16
  403190:	f340 81db 	ble.w	40354a <_svfprintf_r+0xf4a>
  403194:	3301      	adds	r3, #1
  403196:	3110      	adds	r1, #16
  403198:	2b07      	cmp	r3, #7
  40319a:	9127      	str	r1, [sp, #156]	; 0x9c
  40319c:	9326      	str	r3, [sp, #152]	; 0x98
  40319e:	e882 0840 	stmia.w	r2, {r6, fp}
  4031a2:	ddf2      	ble.n	40318a <_svfprintf_r+0xb8a>
  4031a4:	aa25      	add	r2, sp, #148	; 0x94
  4031a6:	4629      	mov	r1, r5
  4031a8:	4620      	mov	r0, r4
  4031aa:	f002 fb97 	bl	4058dc <__ssprint_r>
  4031ae:	2800      	cmp	r0, #0
  4031b0:	f47f aaf8 	bne.w	4027a4 <_svfprintf_r+0x1a4>
  4031b4:	9927      	ldr	r1, [sp, #156]	; 0x9c
  4031b6:	9b26      	ldr	r3, [sp, #152]	; 0x98
  4031b8:	464a      	mov	r2, r9
  4031ba:	e7e7      	b.n	40318c <_svfprintf_r+0xb8c>
  4031bc:	9b0a      	ldr	r3, [sp, #40]	; 0x28
  4031be:	930e      	str	r3, [sp, #56]	; 0x38
  4031c0:	464e      	mov	r6, r9
  4031c2:	f7ff bb2d 	b.w	402820 <_svfprintf_r+0x220>
  4031c6:	2d00      	cmp	r5, #0
  4031c8:	bf08      	it	eq
  4031ca:	2c0a      	cmpeq	r4, #10
  4031cc:	f0c0 808f 	bcc.w	4032ee <_svfprintf_r+0xcee>
  4031d0:	464e      	mov	r6, r9
  4031d2:	4620      	mov	r0, r4
  4031d4:	4629      	mov	r1, r5
  4031d6:	220a      	movs	r2, #10
  4031d8:	2300      	movs	r3, #0
  4031da:	f7fe ffed 	bl	4021b8 <__aeabi_uldivmod>
  4031de:	3230      	adds	r2, #48	; 0x30
  4031e0:	f806 2d01 	strb.w	r2, [r6, #-1]!
  4031e4:	4620      	mov	r0, r4
  4031e6:	4629      	mov	r1, r5
  4031e8:	2300      	movs	r3, #0
  4031ea:	220a      	movs	r2, #10
  4031ec:	f7fe ffe4 	bl	4021b8 <__aeabi_uldivmod>
  4031f0:	4604      	mov	r4, r0
  4031f2:	460d      	mov	r5, r1
  4031f4:	ea54 0305 	orrs.w	r3, r4, r5
  4031f8:	d1eb      	bne.n	4031d2 <_svfprintf_r+0xbd2>
  4031fa:	eba9 0306 	sub.w	r3, r9, r6
  4031fe:	930e      	str	r3, [sp, #56]	; 0x38
  403200:	f7ff bb0e 	b.w	402820 <_svfprintf_r+0x220>
  403204:	aa25      	add	r2, sp, #148	; 0x94
  403206:	990b      	ldr	r1, [sp, #44]	; 0x2c
  403208:	980c      	ldr	r0, [sp, #48]	; 0x30
  40320a:	f002 fb67 	bl	4058dc <__ssprint_r>
  40320e:	2800      	cmp	r0, #0
  403210:	f47f aac8 	bne.w	4027a4 <_svfprintf_r+0x1a4>
  403214:	f89d 7077 	ldrb.w	r7, [sp, #119]	; 0x77
  403218:	9c27      	ldr	r4, [sp, #156]	; 0x9c
  40321a:	46c8      	mov	r8, r9
  40321c:	f7ff bb5e 	b.w	4028dc <_svfprintf_r+0x2dc>
  403220:	1e5e      	subs	r6, r3, #1
  403222:	2e00      	cmp	r6, #0
  403224:	f77f af0a 	ble.w	40303c <_svfprintf_r+0xa3c>
  403228:	2e10      	cmp	r6, #16
  40322a:	4d03      	ldr	r5, [pc, #12]	; (403238 <_svfprintf_r+0xc38>)
  40322c:	dd22      	ble.n	403274 <_svfprintf_r+0xc74>
  40322e:	4622      	mov	r2, r4
  403230:	f04f 0b10 	mov.w	fp, #16
  403234:	9c0c      	ldr	r4, [sp, #48]	; 0x30
  403236:	e006      	b.n	403246 <_svfprintf_r+0xc46>
  403238:	00406e00 	.word	0x00406e00
  40323c:	3e10      	subs	r6, #16
  40323e:	2e10      	cmp	r6, #16
  403240:	f108 0808 	add.w	r8, r8, #8
  403244:	dd15      	ble.n	403272 <_svfprintf_r+0xc72>
  403246:	3701      	adds	r7, #1
  403248:	3210      	adds	r2, #16
  40324a:	2f07      	cmp	r7, #7
  40324c:	9227      	str	r2, [sp, #156]	; 0x9c
  40324e:	9726      	str	r7, [sp, #152]	; 0x98
  403250:	e888 0820 	stmia.w	r8, {r5, fp}
  403254:	ddf2      	ble.n	40323c <_svfprintf_r+0xc3c>
  403256:	aa25      	add	r2, sp, #148	; 0x94
  403258:	990b      	ldr	r1, [sp, #44]	; 0x2c
  40325a:	4620      	mov	r0, r4
  40325c:	f002 fb3e 	bl	4058dc <__ssprint_r>
  403260:	2800      	cmp	r0, #0
  403262:	f47f aa9f 	bne.w	4027a4 <_svfprintf_r+0x1a4>
  403266:	3e10      	subs	r6, #16
  403268:	2e10      	cmp	r6, #16
  40326a:	9a27      	ldr	r2, [sp, #156]	; 0x9c
  40326c:	9f26      	ldr	r7, [sp, #152]	; 0x98
  40326e:	46c8      	mov	r8, r9
  403270:	dce9      	bgt.n	403246 <_svfprintf_r+0xc46>
  403272:	4614      	mov	r4, r2
  403274:	3701      	adds	r7, #1
  403276:	4434      	add	r4, r6
  403278:	2f07      	cmp	r7, #7
  40327a:	9427      	str	r4, [sp, #156]	; 0x9c
  40327c:	9726      	str	r7, [sp, #152]	; 0x98
  40327e:	e888 0060 	stmia.w	r8, {r5, r6}
  403282:	f77f aed9 	ble.w	403038 <_svfprintf_r+0xa38>
  403286:	aa25      	add	r2, sp, #148	; 0x94
  403288:	990b      	ldr	r1, [sp, #44]	; 0x2c
  40328a:	980c      	ldr	r0, [sp, #48]	; 0x30
  40328c:	f002 fb26 	bl	4058dc <__ssprint_r>
  403290:	2800      	cmp	r0, #0
  403292:	f47f aa87 	bne.w	4027a4 <_svfprintf_r+0x1a4>
  403296:	9c27      	ldr	r4, [sp, #156]	; 0x9c
  403298:	9f26      	ldr	r7, [sp, #152]	; 0x98
  40329a:	46c8      	mov	r8, r9
  40329c:	e6ce      	b.n	40303c <_svfprintf_r+0xa3c>
  40329e:	9a0f      	ldr	r2, [sp, #60]	; 0x3c
  4032a0:	6814      	ldr	r4, [r2, #0]
  4032a2:	4613      	mov	r3, r2
  4032a4:	3304      	adds	r3, #4
  4032a6:	17e5      	asrs	r5, r4, #31
  4032a8:	930f      	str	r3, [sp, #60]	; 0x3c
  4032aa:	4622      	mov	r2, r4
  4032ac:	462b      	mov	r3, r5
  4032ae:	e4fa      	b.n	402ca6 <_svfprintf_r+0x6a6>
  4032b0:	3204      	adds	r2, #4
  4032b2:	681c      	ldr	r4, [r3, #0]
  4032b4:	920f      	str	r2, [sp, #60]	; 0x3c
  4032b6:	2301      	movs	r3, #1
  4032b8:	2500      	movs	r5, #0
  4032ba:	f7ff ba94 	b.w	4027e6 <_svfprintf_r+0x1e6>
  4032be:	681c      	ldr	r4, [r3, #0]
  4032c0:	3304      	adds	r3, #4
  4032c2:	930f      	str	r3, [sp, #60]	; 0x3c
  4032c4:	2500      	movs	r5, #0
  4032c6:	e421      	b.n	402b0c <_svfprintf_r+0x50c>
  4032c8:	990f      	ldr	r1, [sp, #60]	; 0x3c
  4032ca:	460a      	mov	r2, r1
  4032cc:	3204      	adds	r2, #4
  4032ce:	680c      	ldr	r4, [r1, #0]
  4032d0:	920f      	str	r2, [sp, #60]	; 0x3c
  4032d2:	2500      	movs	r5, #0
  4032d4:	f7ff ba87 	b.w	4027e6 <_svfprintf_r+0x1e6>
  4032d8:	4614      	mov	r4, r2
  4032da:	3301      	adds	r3, #1
  4032dc:	4434      	add	r4, r6
  4032de:	2b07      	cmp	r3, #7
  4032e0:	9427      	str	r4, [sp, #156]	; 0x9c
  4032e2:	9326      	str	r3, [sp, #152]	; 0x98
  4032e4:	e888 0060 	stmia.w	r8, {r5, r6}
  4032e8:	f77f ab68 	ble.w	4029bc <_svfprintf_r+0x3bc>
  4032ec:	e6b3      	b.n	403056 <_svfprintf_r+0xa56>
  4032ee:	f8dd b01c 	ldr.w	fp, [sp, #28]
  4032f2:	f8cd b01c 	str.w	fp, [sp, #28]
  4032f6:	ae42      	add	r6, sp, #264	; 0x108
  4032f8:	3430      	adds	r4, #48	; 0x30
  4032fa:	2301      	movs	r3, #1
  4032fc:	f806 4d41 	strb.w	r4, [r6, #-65]!
  403300:	930e      	str	r3, [sp, #56]	; 0x38
  403302:	f7ff ba8d 	b.w	402820 <_svfprintf_r+0x220>
  403306:	aa25      	add	r2, sp, #148	; 0x94
  403308:	990b      	ldr	r1, [sp, #44]	; 0x2c
  40330a:	980c      	ldr	r0, [sp, #48]	; 0x30
  40330c:	f002 fae6 	bl	4058dc <__ssprint_r>
  403310:	2800      	cmp	r0, #0
  403312:	f47f aa47 	bne.w	4027a4 <_svfprintf_r+0x1a4>
  403316:	9c27      	ldr	r4, [sp, #156]	; 0x9c
  403318:	46c8      	mov	r8, r9
  40331a:	9a1f      	ldr	r2, [sp, #124]	; 0x7c
  40331c:	9b13      	ldr	r3, [sp, #76]	; 0x4c
  40331e:	429a      	cmp	r2, r3
  403320:	db44      	blt.n	4033ac <_svfprintf_r+0xdac>
  403322:	9b07      	ldr	r3, [sp, #28]
  403324:	07d9      	lsls	r1, r3, #31
  403326:	d441      	bmi.n	4033ac <_svfprintf_r+0xdac>
  403328:	9b13      	ldr	r3, [sp, #76]	; 0x4c
  40332a:	9812      	ldr	r0, [sp, #72]	; 0x48
  40332c:	1a9a      	subs	r2, r3, r2
  40332e:	1a1d      	subs	r5, r3, r0
  403330:	4295      	cmp	r5, r2
  403332:	bfa8      	it	ge
  403334:	4615      	movge	r5, r2
  403336:	2d00      	cmp	r5, #0
  403338:	dd0e      	ble.n	403358 <_svfprintf_r+0xd58>
  40333a:	9926      	ldr	r1, [sp, #152]	; 0x98
  40333c:	f8c8 5004 	str.w	r5, [r8, #4]
  403340:	3101      	adds	r1, #1
  403342:	4406      	add	r6, r0
  403344:	442c      	add	r4, r5
  403346:	2907      	cmp	r1, #7
  403348:	f8c8 6000 	str.w	r6, [r8]
  40334c:	9427      	str	r4, [sp, #156]	; 0x9c
  40334e:	9126      	str	r1, [sp, #152]	; 0x98
  403350:	f300 823b 	bgt.w	4037ca <_svfprintf_r+0x11ca>
  403354:	f108 0808 	add.w	r8, r8, #8
  403358:	2d00      	cmp	r5, #0
  40335a:	bfac      	ite	ge
  40335c:	1b56      	subge	r6, r2, r5
  40335e:	4616      	movlt	r6, r2
  403360:	2e00      	cmp	r6, #0
  403362:	f77f ab2d 	ble.w	4029c0 <_svfprintf_r+0x3c0>
  403366:	2e10      	cmp	r6, #16
  403368:	9b26      	ldr	r3, [sp, #152]	; 0x98
  40336a:	4db0      	ldr	r5, [pc, #704]	; (40362c <_svfprintf_r+0x102c>)
  40336c:	ddb5      	ble.n	4032da <_svfprintf_r+0xcda>
  40336e:	4622      	mov	r2, r4
  403370:	2710      	movs	r7, #16
  403372:	f8dd b030 	ldr.w	fp, [sp, #48]	; 0x30
  403376:	9c0b      	ldr	r4, [sp, #44]	; 0x2c
  403378:	e004      	b.n	403384 <_svfprintf_r+0xd84>
  40337a:	f108 0808 	add.w	r8, r8, #8
  40337e:	3e10      	subs	r6, #16
  403380:	2e10      	cmp	r6, #16
  403382:	dda9      	ble.n	4032d8 <_svfprintf_r+0xcd8>
  403384:	3301      	adds	r3, #1
  403386:	3210      	adds	r2, #16
  403388:	2b07      	cmp	r3, #7
  40338a:	9227      	str	r2, [sp, #156]	; 0x9c
  40338c:	9326      	str	r3, [sp, #152]	; 0x98
  40338e:	e888 00a0 	stmia.w	r8, {r5, r7}
  403392:	ddf2      	ble.n	40337a <_svfprintf_r+0xd7a>
  403394:	aa25      	add	r2, sp, #148	; 0x94
  403396:	4621      	mov	r1, r4
  403398:	4658      	mov	r0, fp
  40339a:	f002 fa9f 	bl	4058dc <__ssprint_r>
  40339e:	2800      	cmp	r0, #0
  4033a0:	f47f aa00 	bne.w	4027a4 <_svfprintf_r+0x1a4>
  4033a4:	9a27      	ldr	r2, [sp, #156]	; 0x9c
  4033a6:	9b26      	ldr	r3, [sp, #152]	; 0x98
  4033a8:	46c8      	mov	r8, r9
  4033aa:	e7e8      	b.n	40337e <_svfprintf_r+0xd7e>
  4033ac:	9b26      	ldr	r3, [sp, #152]	; 0x98
  4033ae:	9819      	ldr	r0, [sp, #100]	; 0x64
  4033b0:	991a      	ldr	r1, [sp, #104]	; 0x68
  4033b2:	f8c8 1000 	str.w	r1, [r8]
  4033b6:	3301      	adds	r3, #1
  4033b8:	4404      	add	r4, r0
  4033ba:	2b07      	cmp	r3, #7
  4033bc:	9427      	str	r4, [sp, #156]	; 0x9c
  4033be:	f8c8 0004 	str.w	r0, [r8, #4]
  4033c2:	9326      	str	r3, [sp, #152]	; 0x98
  4033c4:	f300 81f5 	bgt.w	4037b2 <_svfprintf_r+0x11b2>
  4033c8:	f108 0808 	add.w	r8, r8, #8
  4033cc:	e7ac      	b.n	403328 <_svfprintf_r+0xd28>
  4033ce:	9b07      	ldr	r3, [sp, #28]
  4033d0:	07da      	lsls	r2, r3, #31
  4033d2:	f53f adfe 	bmi.w	402fd2 <_svfprintf_r+0x9d2>
  4033d6:	3701      	adds	r7, #1
  4033d8:	3401      	adds	r4, #1
  4033da:	2301      	movs	r3, #1
  4033dc:	2f07      	cmp	r7, #7
  4033de:	9427      	str	r4, [sp, #156]	; 0x9c
  4033e0:	9726      	str	r7, [sp, #152]	; 0x98
  4033e2:	f8c8 6000 	str.w	r6, [r8]
  4033e6:	f8c8 3004 	str.w	r3, [r8, #4]
  4033ea:	f77f ae25 	ble.w	403038 <_svfprintf_r+0xa38>
  4033ee:	e74a      	b.n	403286 <_svfprintf_r+0xc86>
  4033f0:	aa25      	add	r2, sp, #148	; 0x94
  4033f2:	990b      	ldr	r1, [sp, #44]	; 0x2c
  4033f4:	980c      	ldr	r0, [sp, #48]	; 0x30
  4033f6:	f002 fa71 	bl	4058dc <__ssprint_r>
  4033fa:	2800      	cmp	r0, #0
  4033fc:	f47f a9d2 	bne.w	4027a4 <_svfprintf_r+0x1a4>
  403400:	9c27      	ldr	r4, [sp, #156]	; 0x9c
  403402:	9f26      	ldr	r7, [sp, #152]	; 0x98
  403404:	46c8      	mov	r8, r9
  403406:	e5f2      	b.n	402fee <_svfprintf_r+0x9ee>
  403408:	aa25      	add	r2, sp, #148	; 0x94
  40340a:	990b      	ldr	r1, [sp, #44]	; 0x2c
  40340c:	980c      	ldr	r0, [sp, #48]	; 0x30
  40340e:	f002 fa65 	bl	4058dc <__ssprint_r>
  403412:	2800      	cmp	r0, #0
  403414:	f47f a9c6 	bne.w	4027a4 <_svfprintf_r+0x1a4>
  403418:	9c27      	ldr	r4, [sp, #156]	; 0x9c
  40341a:	9f26      	ldr	r7, [sp, #152]	; 0x98
  40341c:	46c8      	mov	r8, r9
  40341e:	e5f5      	b.n	40300c <_svfprintf_r+0xa0c>
  403420:	464e      	mov	r6, r9
  403422:	f7ff b9fd 	b.w	402820 <_svfprintf_r+0x220>
  403426:	aa25      	add	r2, sp, #148	; 0x94
  403428:	990b      	ldr	r1, [sp, #44]	; 0x2c
  40342a:	980c      	ldr	r0, [sp, #48]	; 0x30
  40342c:	f002 fa56 	bl	4058dc <__ssprint_r>
  403430:	2800      	cmp	r0, #0
  403432:	f47f a9b7 	bne.w	4027a4 <_svfprintf_r+0x1a4>
  403436:	9c27      	ldr	r4, [sp, #156]	; 0x9c
  403438:	46c8      	mov	r8, r9
  40343a:	f7ff ba72 	b.w	402922 <_svfprintf_r+0x322>
  40343e:	9c15      	ldr	r4, [sp, #84]	; 0x54
  403440:	4622      	mov	r2, r4
  403442:	4620      	mov	r0, r4
  403444:	9c14      	ldr	r4, [sp, #80]	; 0x50
  403446:	4623      	mov	r3, r4
  403448:	4621      	mov	r1, r4
  40344a:	f002 ff43 	bl	4062d4 <__aeabi_dcmpun>
  40344e:	2800      	cmp	r0, #0
  403450:	f040 8286 	bne.w	403960 <_svfprintf_r+0x1360>
  403454:	9b0a      	ldr	r3, [sp, #40]	; 0x28
  403456:	3301      	adds	r3, #1
  403458:	9b11      	ldr	r3, [sp, #68]	; 0x44
  40345a:	f023 0320 	bic.w	r3, r3, #32
  40345e:	930e      	str	r3, [sp, #56]	; 0x38
  403460:	f000 81e2 	beq.w	403828 <_svfprintf_r+0x1228>
  403464:	2b47      	cmp	r3, #71	; 0x47
  403466:	f000 811e 	beq.w	4036a6 <_svfprintf_r+0x10a6>
  40346a:	f44b 7380 	orr.w	r3, fp, #256	; 0x100
  40346e:	9307      	str	r3, [sp, #28]
  403470:	9b14      	ldr	r3, [sp, #80]	; 0x50
  403472:	1e1f      	subs	r7, r3, #0
  403474:	9b15      	ldr	r3, [sp, #84]	; 0x54
  403476:	9308      	str	r3, [sp, #32]
  403478:	bfbb      	ittet	lt
  40347a:	463b      	movlt	r3, r7
  40347c:	f103 4700 	addlt.w	r7, r3, #2147483648	; 0x80000000
  403480:	2300      	movge	r3, #0
  403482:	232d      	movlt	r3, #45	; 0x2d
  403484:	9310      	str	r3, [sp, #64]	; 0x40
  403486:	9b11      	ldr	r3, [sp, #68]	; 0x44
  403488:	2b66      	cmp	r3, #102	; 0x66
  40348a:	f000 81bb 	beq.w	403804 <_svfprintf_r+0x1204>
  40348e:	2b46      	cmp	r3, #70	; 0x46
  403490:	f000 80df 	beq.w	403652 <_svfprintf_r+0x1052>
  403494:	9b0e      	ldr	r3, [sp, #56]	; 0x38
  403496:	9a08      	ldr	r2, [sp, #32]
  403498:	2b45      	cmp	r3, #69	; 0x45
  40349a:	bf0c      	ite	eq
  40349c:	9b0a      	ldreq	r3, [sp, #40]	; 0x28
  40349e:	9d0a      	ldrne	r5, [sp, #40]	; 0x28
  4034a0:	a823      	add	r0, sp, #140	; 0x8c
  4034a2:	a920      	add	r1, sp, #128	; 0x80
  4034a4:	bf08      	it	eq
  4034a6:	1c5d      	addeq	r5, r3, #1
  4034a8:	9004      	str	r0, [sp, #16]
  4034aa:	9103      	str	r1, [sp, #12]
  4034ac:	a81f      	add	r0, sp, #124	; 0x7c
  4034ae:	2102      	movs	r1, #2
  4034b0:	463b      	mov	r3, r7
  4034b2:	9002      	str	r0, [sp, #8]
  4034b4:	9501      	str	r5, [sp, #4]
  4034b6:	9100      	str	r1, [sp, #0]
  4034b8:	980c      	ldr	r0, [sp, #48]	; 0x30
  4034ba:	f000 fb75 	bl	403ba8 <_dtoa_r>
  4034be:	9b11      	ldr	r3, [sp, #68]	; 0x44
  4034c0:	2b67      	cmp	r3, #103	; 0x67
  4034c2:	4606      	mov	r6, r0
  4034c4:	f040 81e0 	bne.w	403888 <_svfprintf_r+0x1288>
  4034c8:	f01b 0f01 	tst.w	fp, #1
  4034cc:	f000 8246 	beq.w	40395c <_svfprintf_r+0x135c>
  4034d0:	1974      	adds	r4, r6, r5
  4034d2:	9a16      	ldr	r2, [sp, #88]	; 0x58
  4034d4:	9808      	ldr	r0, [sp, #32]
  4034d6:	9b17      	ldr	r3, [sp, #92]	; 0x5c
  4034d8:	4639      	mov	r1, r7
  4034da:	f002 fec9 	bl	406270 <__aeabi_dcmpeq>
  4034de:	2800      	cmp	r0, #0
  4034e0:	f040 8165 	bne.w	4037ae <_svfprintf_r+0x11ae>
  4034e4:	9b23      	ldr	r3, [sp, #140]	; 0x8c
  4034e6:	42a3      	cmp	r3, r4
  4034e8:	d206      	bcs.n	4034f8 <_svfprintf_r+0xef8>
  4034ea:	2130      	movs	r1, #48	; 0x30
  4034ec:	1c5a      	adds	r2, r3, #1
  4034ee:	9223      	str	r2, [sp, #140]	; 0x8c
  4034f0:	7019      	strb	r1, [r3, #0]
  4034f2:	9b23      	ldr	r3, [sp, #140]	; 0x8c
  4034f4:	429c      	cmp	r4, r3
  4034f6:	d8f9      	bhi.n	4034ec <_svfprintf_r+0xeec>
  4034f8:	1b9b      	subs	r3, r3, r6
  4034fa:	9313      	str	r3, [sp, #76]	; 0x4c
  4034fc:	9b0e      	ldr	r3, [sp, #56]	; 0x38
  4034fe:	2b47      	cmp	r3, #71	; 0x47
  403500:	f000 80e9 	beq.w	4036d6 <_svfprintf_r+0x10d6>
  403504:	9b11      	ldr	r3, [sp, #68]	; 0x44
  403506:	2b65      	cmp	r3, #101	; 0x65
  403508:	f340 81cd 	ble.w	4038a6 <_svfprintf_r+0x12a6>
  40350c:	9b11      	ldr	r3, [sp, #68]	; 0x44
  40350e:	2b66      	cmp	r3, #102	; 0x66
  403510:	9b1f      	ldr	r3, [sp, #124]	; 0x7c
  403512:	9312      	str	r3, [sp, #72]	; 0x48
  403514:	f000 819e 	beq.w	403854 <_svfprintf_r+0x1254>
  403518:	9b13      	ldr	r3, [sp, #76]	; 0x4c
  40351a:	9a12      	ldr	r2, [sp, #72]	; 0x48
  40351c:	4619      	mov	r1, r3
  40351e:	4291      	cmp	r1, r2
  403520:	f300 818a 	bgt.w	403838 <_svfprintf_r+0x1238>
  403524:	f01b 0f01 	tst.w	fp, #1
  403528:	f040 8213 	bne.w	403952 <_svfprintf_r+0x1352>
  40352c:	ea22 73e2 	bic.w	r3, r2, r2, asr #31
  403530:	9308      	str	r3, [sp, #32]
  403532:	2367      	movs	r3, #103	; 0x67
  403534:	920e      	str	r2, [sp, #56]	; 0x38
  403536:	9311      	str	r3, [sp, #68]	; 0x44
  403538:	9b10      	ldr	r3, [sp, #64]	; 0x40
  40353a:	2b00      	cmp	r3, #0
  40353c:	f040 80c4 	bne.w	4036c8 <_svfprintf_r+0x10c8>
  403540:	930a      	str	r3, [sp, #40]	; 0x28
  403542:	f89d 7077 	ldrb.w	r7, [sp, #119]	; 0x77
  403546:	f7ff b973 	b.w	402830 <_svfprintf_r+0x230>
  40354a:	4635      	mov	r5, r6
  40354c:	460c      	mov	r4, r1
  40354e:	4646      	mov	r6, r8
  403550:	4690      	mov	r8, r2
  403552:	3301      	adds	r3, #1
  403554:	443c      	add	r4, r7
  403556:	2b07      	cmp	r3, #7
  403558:	9427      	str	r4, [sp, #156]	; 0x9c
  40355a:	9326      	str	r3, [sp, #152]	; 0x98
  40355c:	e888 00a0 	stmia.w	r8, {r5, r7}
  403560:	f73f aed1 	bgt.w	403306 <_svfprintf_r+0xd06>
  403564:	f108 0808 	add.w	r8, r8, #8
  403568:	e6d7      	b.n	40331a <_svfprintf_r+0xd1a>
  40356a:	9a0f      	ldr	r2, [sp, #60]	; 0x3c
  40356c:	6813      	ldr	r3, [r2, #0]
  40356e:	3204      	adds	r2, #4
  403570:	920f      	str	r2, [sp, #60]	; 0x3c
  403572:	9a09      	ldr	r2, [sp, #36]	; 0x24
  403574:	601a      	str	r2, [r3, #0]
  403576:	f7ff b86a 	b.w	40264e <_svfprintf_r+0x4e>
  40357a:	aa25      	add	r2, sp, #148	; 0x94
  40357c:	990b      	ldr	r1, [sp, #44]	; 0x2c
  40357e:	980c      	ldr	r0, [sp, #48]	; 0x30
  403580:	f002 f9ac 	bl	4058dc <__ssprint_r>
  403584:	2800      	cmp	r0, #0
  403586:	f47f a90d 	bne.w	4027a4 <_svfprintf_r+0x1a4>
  40358a:	46c8      	mov	r8, r9
  40358c:	e48d      	b.n	402eaa <_svfprintf_r+0x8aa>
  40358e:	9b26      	ldr	r3, [sp, #152]	; 0x98
  403590:	4a27      	ldr	r2, [pc, #156]	; (403630 <_svfprintf_r+0x1030>)
  403592:	f8c8 2000 	str.w	r2, [r8]
  403596:	3301      	adds	r3, #1
  403598:	3401      	adds	r4, #1
  40359a:	2201      	movs	r2, #1
  40359c:	2b07      	cmp	r3, #7
  40359e:	9427      	str	r4, [sp, #156]	; 0x9c
  4035a0:	9326      	str	r3, [sp, #152]	; 0x98
  4035a2:	f8c8 2004 	str.w	r2, [r8, #4]
  4035a6:	dc72      	bgt.n	40368e <_svfprintf_r+0x108e>
  4035a8:	f108 0808 	add.w	r8, r8, #8
  4035ac:	b929      	cbnz	r1, 4035ba <_svfprintf_r+0xfba>
  4035ae:	9b13      	ldr	r3, [sp, #76]	; 0x4c
  4035b0:	b91b      	cbnz	r3, 4035ba <_svfprintf_r+0xfba>
  4035b2:	9b07      	ldr	r3, [sp, #28]
  4035b4:	07d8      	lsls	r0, r3, #31
  4035b6:	f57f aa03 	bpl.w	4029c0 <_svfprintf_r+0x3c0>
  4035ba:	9b26      	ldr	r3, [sp, #152]	; 0x98
  4035bc:	9819      	ldr	r0, [sp, #100]	; 0x64
  4035be:	9a1a      	ldr	r2, [sp, #104]	; 0x68
  4035c0:	f8c8 2000 	str.w	r2, [r8]
  4035c4:	3301      	adds	r3, #1
  4035c6:	4602      	mov	r2, r0
  4035c8:	4422      	add	r2, r4
  4035ca:	2b07      	cmp	r3, #7
  4035cc:	9227      	str	r2, [sp, #156]	; 0x9c
  4035ce:	f8c8 0004 	str.w	r0, [r8, #4]
  4035d2:	9326      	str	r3, [sp, #152]	; 0x98
  4035d4:	f300 818d 	bgt.w	4038f2 <_svfprintf_r+0x12f2>
  4035d8:	f108 0808 	add.w	r8, r8, #8
  4035dc:	2900      	cmp	r1, #0
  4035de:	f2c0 8165 	blt.w	4038ac <_svfprintf_r+0x12ac>
  4035e2:	9913      	ldr	r1, [sp, #76]	; 0x4c
  4035e4:	f8c8 6000 	str.w	r6, [r8]
  4035e8:	3301      	adds	r3, #1
  4035ea:	188c      	adds	r4, r1, r2
  4035ec:	2b07      	cmp	r3, #7
  4035ee:	9427      	str	r4, [sp, #156]	; 0x9c
  4035f0:	9326      	str	r3, [sp, #152]	; 0x98
  4035f2:	f8c8 1004 	str.w	r1, [r8, #4]
  4035f6:	f77f a9e1 	ble.w	4029bc <_svfprintf_r+0x3bc>
  4035fa:	e52c      	b.n	403056 <_svfprintf_r+0xa56>
  4035fc:	9a0f      	ldr	r2, [sp, #60]	; 0x3c
  4035fe:	9909      	ldr	r1, [sp, #36]	; 0x24
  403600:	6813      	ldr	r3, [r2, #0]
  403602:	17cd      	asrs	r5, r1, #31
  403604:	4608      	mov	r0, r1
  403606:	3204      	adds	r2, #4
  403608:	4629      	mov	r1, r5
  40360a:	920f      	str	r2, [sp, #60]	; 0x3c
  40360c:	e9c3 0100 	strd	r0, r1, [r3]
  403610:	f7ff b81d 	b.w	40264e <_svfprintf_r+0x4e>
  403614:	aa25      	add	r2, sp, #148	; 0x94
  403616:	990b      	ldr	r1, [sp, #44]	; 0x2c
  403618:	980c      	ldr	r0, [sp, #48]	; 0x30
  40361a:	f002 f95f 	bl	4058dc <__ssprint_r>
  40361e:	2800      	cmp	r0, #0
  403620:	f47f a8c0 	bne.w	4027a4 <_svfprintf_r+0x1a4>
  403624:	9c27      	ldr	r4, [sp, #156]	; 0x9c
  403626:	46c8      	mov	r8, r9
  403628:	e458      	b.n	402edc <_svfprintf_r+0x8dc>
  40362a:	bf00      	nop
  40362c:	00406e00 	.word	0x00406e00
  403630:	00406dec 	.word	0x00406dec
  403634:	2140      	movs	r1, #64	; 0x40
  403636:	980c      	ldr	r0, [sp, #48]	; 0x30
  403638:	f001 fa0c 	bl	404a54 <_malloc_r>
  40363c:	9a0b      	ldr	r2, [sp, #44]	; 0x2c
  40363e:	6010      	str	r0, [r2, #0]
  403640:	6110      	str	r0, [r2, #16]
  403642:	2800      	cmp	r0, #0
  403644:	f000 81f2 	beq.w	403a2c <_svfprintf_r+0x142c>
  403648:	9a0b      	ldr	r2, [sp, #44]	; 0x2c
  40364a:	2340      	movs	r3, #64	; 0x40
  40364c:	6153      	str	r3, [r2, #20]
  40364e:	f7fe bfee 	b.w	40262e <_svfprintf_r+0x2e>
  403652:	a823      	add	r0, sp, #140	; 0x8c
  403654:	a920      	add	r1, sp, #128	; 0x80
  403656:	9c0a      	ldr	r4, [sp, #40]	; 0x28
  403658:	9004      	str	r0, [sp, #16]
  40365a:	9103      	str	r1, [sp, #12]
  40365c:	a81f      	add	r0, sp, #124	; 0x7c
  40365e:	2103      	movs	r1, #3
  403660:	9002      	str	r0, [sp, #8]
  403662:	9a08      	ldr	r2, [sp, #32]
  403664:	9401      	str	r4, [sp, #4]
  403666:	463b      	mov	r3, r7
  403668:	9100      	str	r1, [sp, #0]
  40366a:	980c      	ldr	r0, [sp, #48]	; 0x30
  40366c:	f000 fa9c 	bl	403ba8 <_dtoa_r>
  403670:	4625      	mov	r5, r4
  403672:	4606      	mov	r6, r0
  403674:	9b11      	ldr	r3, [sp, #68]	; 0x44
  403676:	2b46      	cmp	r3, #70	; 0x46
  403678:	eb06 0405 	add.w	r4, r6, r5
  40367c:	f47f af29 	bne.w	4034d2 <_svfprintf_r+0xed2>
  403680:	7833      	ldrb	r3, [r6, #0]
  403682:	2b30      	cmp	r3, #48	; 0x30
  403684:	f000 8178 	beq.w	403978 <_svfprintf_r+0x1378>
  403688:	9d1f      	ldr	r5, [sp, #124]	; 0x7c
  40368a:	442c      	add	r4, r5
  40368c:	e721      	b.n	4034d2 <_svfprintf_r+0xed2>
  40368e:	aa25      	add	r2, sp, #148	; 0x94
  403690:	990b      	ldr	r1, [sp, #44]	; 0x2c
  403692:	980c      	ldr	r0, [sp, #48]	; 0x30
  403694:	f002 f922 	bl	4058dc <__ssprint_r>
  403698:	2800      	cmp	r0, #0
  40369a:	f47f a883 	bne.w	4027a4 <_svfprintf_r+0x1a4>
  40369e:	991f      	ldr	r1, [sp, #124]	; 0x7c
  4036a0:	9c27      	ldr	r4, [sp, #156]	; 0x9c
  4036a2:	46c8      	mov	r8, r9
  4036a4:	e782      	b.n	4035ac <_svfprintf_r+0xfac>
  4036a6:	9b0a      	ldr	r3, [sp, #40]	; 0x28
  4036a8:	2b00      	cmp	r3, #0
  4036aa:	bf08      	it	eq
  4036ac:	2301      	moveq	r3, #1
  4036ae:	930a      	str	r3, [sp, #40]	; 0x28
  4036b0:	e6db      	b.n	40346a <_svfprintf_r+0xe6a>
  4036b2:	4630      	mov	r0, r6
  4036b4:	940a      	str	r4, [sp, #40]	; 0x28
  4036b6:	f002 f8a3 	bl	405800 <strlen>
  4036ba:	950f      	str	r5, [sp, #60]	; 0x3c
  4036bc:	900e      	str	r0, [sp, #56]	; 0x38
  4036be:	f8cd b01c 	str.w	fp, [sp, #28]
  4036c2:	4603      	mov	r3, r0
  4036c4:	f7ff b9f9 	b.w	402aba <_svfprintf_r+0x4ba>
  4036c8:	272d      	movs	r7, #45	; 0x2d
  4036ca:	2300      	movs	r3, #0
  4036cc:	f88d 7077 	strb.w	r7, [sp, #119]	; 0x77
  4036d0:	930a      	str	r3, [sp, #40]	; 0x28
  4036d2:	f7ff b8ae 	b.w	402832 <_svfprintf_r+0x232>
  4036d6:	9b1f      	ldr	r3, [sp, #124]	; 0x7c
  4036d8:	9312      	str	r3, [sp, #72]	; 0x48
  4036da:	461a      	mov	r2, r3
  4036dc:	3303      	adds	r3, #3
  4036de:	db04      	blt.n	4036ea <_svfprintf_r+0x10ea>
  4036e0:	9b0a      	ldr	r3, [sp, #40]	; 0x28
  4036e2:	4619      	mov	r1, r3
  4036e4:	4291      	cmp	r1, r2
  4036e6:	f6bf af17 	bge.w	403518 <_svfprintf_r+0xf18>
  4036ea:	9b11      	ldr	r3, [sp, #68]	; 0x44
  4036ec:	3b02      	subs	r3, #2
  4036ee:	9311      	str	r3, [sp, #68]	; 0x44
  4036f0:	f89d 3044 	ldrb.w	r3, [sp, #68]	; 0x44
  4036f4:	f88d 3084 	strb.w	r3, [sp, #132]	; 0x84
  4036f8:	9b12      	ldr	r3, [sp, #72]	; 0x48
  4036fa:	3b01      	subs	r3, #1
  4036fc:	2b00      	cmp	r3, #0
  4036fe:	931f      	str	r3, [sp, #124]	; 0x7c
  403700:	bfbd      	ittte	lt
  403702:	9b12      	ldrlt	r3, [sp, #72]	; 0x48
  403704:	f1c3 0301 	rsblt	r3, r3, #1
  403708:	222d      	movlt	r2, #45	; 0x2d
  40370a:	222b      	movge	r2, #43	; 0x2b
  40370c:	2b09      	cmp	r3, #9
  40370e:	f88d 2085 	strb.w	r2, [sp, #133]	; 0x85
  403712:	f340 8116 	ble.w	403942 <_svfprintf_r+0x1342>
  403716:	f10d 0493 	add.w	r4, sp, #147	; 0x93
  40371a:	4620      	mov	r0, r4
  40371c:	4dab      	ldr	r5, [pc, #684]	; (4039cc <_svfprintf_r+0x13cc>)
  40371e:	e000      	b.n	403722 <_svfprintf_r+0x1122>
  403720:	4610      	mov	r0, r2
  403722:	fb85 1203 	smull	r1, r2, r5, r3
  403726:	17d9      	asrs	r1, r3, #31
  403728:	ebc1 01a2 	rsb	r1, r1, r2, asr #2
  40372c:	eb01 0281 	add.w	r2, r1, r1, lsl #2
  403730:	eba3 0242 	sub.w	r2, r3, r2, lsl #1
  403734:	3230      	adds	r2, #48	; 0x30
  403736:	2909      	cmp	r1, #9
  403738:	f800 2c01 	strb.w	r2, [r0, #-1]
  40373c:	460b      	mov	r3, r1
  40373e:	f100 32ff 	add.w	r2, r0, #4294967295
  403742:	dced      	bgt.n	403720 <_svfprintf_r+0x1120>
  403744:	3330      	adds	r3, #48	; 0x30
  403746:	3802      	subs	r0, #2
  403748:	b2d9      	uxtb	r1, r3
  40374a:	4284      	cmp	r4, r0
  40374c:	f802 1c01 	strb.w	r1, [r2, #-1]
  403750:	f240 8165 	bls.w	403a1e <_svfprintf_r+0x141e>
  403754:	f10d 0086 	add.w	r0, sp, #134	; 0x86
  403758:	4613      	mov	r3, r2
  40375a:	e001      	b.n	403760 <_svfprintf_r+0x1160>
  40375c:	f813 1b01 	ldrb.w	r1, [r3], #1
  403760:	f800 1b01 	strb.w	r1, [r0], #1
  403764:	42a3      	cmp	r3, r4
  403766:	d1f9      	bne.n	40375c <_svfprintf_r+0x115c>
  403768:	3301      	adds	r3, #1
  40376a:	1a9b      	subs	r3, r3, r2
  40376c:	f10d 0286 	add.w	r2, sp, #134	; 0x86
  403770:	4413      	add	r3, r2
  403772:	aa21      	add	r2, sp, #132	; 0x84
  403774:	1a9b      	subs	r3, r3, r2
  403776:	9a13      	ldr	r2, [sp, #76]	; 0x4c
  403778:	931b      	str	r3, [sp, #108]	; 0x6c
  40377a:	2a01      	cmp	r2, #1
  40377c:	4413      	add	r3, r2
  40377e:	930e      	str	r3, [sp, #56]	; 0x38
  403780:	f340 8119 	ble.w	4039b6 <_svfprintf_r+0x13b6>
  403784:	9b0e      	ldr	r3, [sp, #56]	; 0x38
  403786:	9a19      	ldr	r2, [sp, #100]	; 0x64
  403788:	4413      	add	r3, r2
  40378a:	930e      	str	r3, [sp, #56]	; 0x38
  40378c:	ea23 73e3 	bic.w	r3, r3, r3, asr #31
  403790:	9308      	str	r3, [sp, #32]
  403792:	2300      	movs	r3, #0
  403794:	9312      	str	r3, [sp, #72]	; 0x48
  403796:	e6cf      	b.n	403538 <_svfprintf_r+0xf38>
  403798:	aa25      	add	r2, sp, #148	; 0x94
  40379a:	990b      	ldr	r1, [sp, #44]	; 0x2c
  40379c:	980c      	ldr	r0, [sp, #48]	; 0x30
  40379e:	f002 f89d 	bl	4058dc <__ssprint_r>
  4037a2:	2800      	cmp	r0, #0
  4037a4:	f47e affe 	bne.w	4027a4 <_svfprintf_r+0x1a4>
  4037a8:	9c27      	ldr	r4, [sp, #156]	; 0x9c
  4037aa:	46c8      	mov	r8, r9
  4037ac:	e4d7      	b.n	40315e <_svfprintf_r+0xb5e>
  4037ae:	4623      	mov	r3, r4
  4037b0:	e6a2      	b.n	4034f8 <_svfprintf_r+0xef8>
  4037b2:	aa25      	add	r2, sp, #148	; 0x94
  4037b4:	990b      	ldr	r1, [sp, #44]	; 0x2c
  4037b6:	980c      	ldr	r0, [sp, #48]	; 0x30
  4037b8:	f002 f890 	bl	4058dc <__ssprint_r>
  4037bc:	2800      	cmp	r0, #0
  4037be:	f47e aff1 	bne.w	4027a4 <_svfprintf_r+0x1a4>
  4037c2:	9a1f      	ldr	r2, [sp, #124]	; 0x7c
  4037c4:	9c27      	ldr	r4, [sp, #156]	; 0x9c
  4037c6:	46c8      	mov	r8, r9
  4037c8:	e5ae      	b.n	403328 <_svfprintf_r+0xd28>
  4037ca:	aa25      	add	r2, sp, #148	; 0x94
  4037cc:	990b      	ldr	r1, [sp, #44]	; 0x2c
  4037ce:	980c      	ldr	r0, [sp, #48]	; 0x30
  4037d0:	f002 f884 	bl	4058dc <__ssprint_r>
  4037d4:	2800      	cmp	r0, #0
  4037d6:	f47e afe5 	bne.w	4027a4 <_svfprintf_r+0x1a4>
  4037da:	9a1f      	ldr	r2, [sp, #124]	; 0x7c
  4037dc:	9b13      	ldr	r3, [sp, #76]	; 0x4c
  4037de:	9c27      	ldr	r4, [sp, #156]	; 0x9c
  4037e0:	1a9a      	subs	r2, r3, r2
  4037e2:	46c8      	mov	r8, r9
  4037e4:	e5b8      	b.n	403358 <_svfprintf_r+0xd58>
  4037e6:	9b0a      	ldr	r3, [sp, #40]	; 0x28
  4037e8:	9612      	str	r6, [sp, #72]	; 0x48
  4037ea:	2b06      	cmp	r3, #6
  4037ec:	bf28      	it	cs
  4037ee:	2306      	movcs	r3, #6
  4037f0:	960a      	str	r6, [sp, #40]	; 0x28
  4037f2:	4637      	mov	r7, r6
  4037f4:	9308      	str	r3, [sp, #32]
  4037f6:	950f      	str	r5, [sp, #60]	; 0x3c
  4037f8:	f8cd b01c 	str.w	fp, [sp, #28]
  4037fc:	930e      	str	r3, [sp, #56]	; 0x38
  4037fe:	4e74      	ldr	r6, [pc, #464]	; (4039d0 <_svfprintf_r+0x13d0>)
  403800:	f7ff b816 	b.w	402830 <_svfprintf_r+0x230>
  403804:	a823      	add	r0, sp, #140	; 0x8c
  403806:	a920      	add	r1, sp, #128	; 0x80
  403808:	9d0a      	ldr	r5, [sp, #40]	; 0x28
  40380a:	9004      	str	r0, [sp, #16]
  40380c:	9103      	str	r1, [sp, #12]
  40380e:	a81f      	add	r0, sp, #124	; 0x7c
  403810:	2103      	movs	r1, #3
  403812:	9002      	str	r0, [sp, #8]
  403814:	9a08      	ldr	r2, [sp, #32]
  403816:	9501      	str	r5, [sp, #4]
  403818:	463b      	mov	r3, r7
  40381a:	9100      	str	r1, [sp, #0]
  40381c:	980c      	ldr	r0, [sp, #48]	; 0x30
  40381e:	f000 f9c3 	bl	403ba8 <_dtoa_r>
  403822:	4606      	mov	r6, r0
  403824:	1944      	adds	r4, r0, r5
  403826:	e72b      	b.n	403680 <_svfprintf_r+0x1080>
  403828:	2306      	movs	r3, #6
  40382a:	930a      	str	r3, [sp, #40]	; 0x28
  40382c:	e61d      	b.n	40346a <_svfprintf_r+0xe6a>
  40382e:	272d      	movs	r7, #45	; 0x2d
  403830:	f88d 7077 	strb.w	r7, [sp, #119]	; 0x77
  403834:	f7ff bacd 	b.w	402dd2 <_svfprintf_r+0x7d2>
  403838:	9a19      	ldr	r2, [sp, #100]	; 0x64
  40383a:	9b13      	ldr	r3, [sp, #76]	; 0x4c
  40383c:	4413      	add	r3, r2
  40383e:	9a12      	ldr	r2, [sp, #72]	; 0x48
  403840:	930e      	str	r3, [sp, #56]	; 0x38
  403842:	2a00      	cmp	r2, #0
  403844:	f340 80b0 	ble.w	4039a8 <_svfprintf_r+0x13a8>
  403848:	ea23 73e3 	bic.w	r3, r3, r3, asr #31
  40384c:	9308      	str	r3, [sp, #32]
  40384e:	2367      	movs	r3, #103	; 0x67
  403850:	9311      	str	r3, [sp, #68]	; 0x44
  403852:	e671      	b.n	403538 <_svfprintf_r+0xf38>
  403854:	2b00      	cmp	r3, #0
  403856:	f340 80c3 	ble.w	4039e0 <_svfprintf_r+0x13e0>
  40385a:	9a0a      	ldr	r2, [sp, #40]	; 0x28
  40385c:	2a00      	cmp	r2, #0
  40385e:	f040 8099 	bne.w	403994 <_svfprintf_r+0x1394>
  403862:	f01b 0f01 	tst.w	fp, #1
  403866:	f040 8095 	bne.w	403994 <_svfprintf_r+0x1394>
  40386a:	9308      	str	r3, [sp, #32]
  40386c:	930e      	str	r3, [sp, #56]	; 0x38
  40386e:	e663      	b.n	403538 <_svfprintf_r+0xf38>
  403870:	9b0a      	ldr	r3, [sp, #40]	; 0x28
  403872:	9308      	str	r3, [sp, #32]
  403874:	930e      	str	r3, [sp, #56]	; 0x38
  403876:	900a      	str	r0, [sp, #40]	; 0x28
  403878:	950f      	str	r5, [sp, #60]	; 0x3c
  40387a:	f8cd b01c 	str.w	fp, [sp, #28]
  40387e:	9012      	str	r0, [sp, #72]	; 0x48
  403880:	f89d 7077 	ldrb.w	r7, [sp, #119]	; 0x77
  403884:	f7fe bfd4 	b.w	402830 <_svfprintf_r+0x230>
  403888:	9b11      	ldr	r3, [sp, #68]	; 0x44
  40388a:	2b47      	cmp	r3, #71	; 0x47
  40388c:	f47f ae20 	bne.w	4034d0 <_svfprintf_r+0xed0>
  403890:	f01b 0f01 	tst.w	fp, #1
  403894:	f47f aeee 	bne.w	403674 <_svfprintf_r+0x1074>
  403898:	9b23      	ldr	r3, [sp, #140]	; 0x8c
  40389a:	1b9b      	subs	r3, r3, r6
  40389c:	9313      	str	r3, [sp, #76]	; 0x4c
  40389e:	9b0e      	ldr	r3, [sp, #56]	; 0x38
  4038a0:	2b47      	cmp	r3, #71	; 0x47
  4038a2:	f43f af18 	beq.w	4036d6 <_svfprintf_r+0x10d6>
  4038a6:	9b1f      	ldr	r3, [sp, #124]	; 0x7c
  4038a8:	9312      	str	r3, [sp, #72]	; 0x48
  4038aa:	e721      	b.n	4036f0 <_svfprintf_r+0x10f0>
  4038ac:	424f      	negs	r7, r1
  4038ae:	3110      	adds	r1, #16
  4038b0:	4d48      	ldr	r5, [pc, #288]	; (4039d4 <_svfprintf_r+0x13d4>)
  4038b2:	da2f      	bge.n	403914 <_svfprintf_r+0x1314>
  4038b4:	2410      	movs	r4, #16
  4038b6:	f8dd b030 	ldr.w	fp, [sp, #48]	; 0x30
  4038ba:	e004      	b.n	4038c6 <_svfprintf_r+0x12c6>
  4038bc:	f108 0808 	add.w	r8, r8, #8
  4038c0:	3f10      	subs	r7, #16
  4038c2:	2f10      	cmp	r7, #16
  4038c4:	dd26      	ble.n	403914 <_svfprintf_r+0x1314>
  4038c6:	3301      	adds	r3, #1
  4038c8:	3210      	adds	r2, #16
  4038ca:	2b07      	cmp	r3, #7
  4038cc:	9227      	str	r2, [sp, #156]	; 0x9c
  4038ce:	9326      	str	r3, [sp, #152]	; 0x98
  4038d0:	f8c8 5000 	str.w	r5, [r8]
  4038d4:	f8c8 4004 	str.w	r4, [r8, #4]
  4038d8:	ddf0      	ble.n	4038bc <_svfprintf_r+0x12bc>
  4038da:	aa25      	add	r2, sp, #148	; 0x94
  4038dc:	990b      	ldr	r1, [sp, #44]	; 0x2c
  4038de:	4658      	mov	r0, fp
  4038e0:	f001 fffc 	bl	4058dc <__ssprint_r>
  4038e4:	2800      	cmp	r0, #0
  4038e6:	f47e af5d 	bne.w	4027a4 <_svfprintf_r+0x1a4>
  4038ea:	9a27      	ldr	r2, [sp, #156]	; 0x9c
  4038ec:	9b26      	ldr	r3, [sp, #152]	; 0x98
  4038ee:	46c8      	mov	r8, r9
  4038f0:	e7e6      	b.n	4038c0 <_svfprintf_r+0x12c0>
  4038f2:	aa25      	add	r2, sp, #148	; 0x94
  4038f4:	990b      	ldr	r1, [sp, #44]	; 0x2c
  4038f6:	980c      	ldr	r0, [sp, #48]	; 0x30
  4038f8:	f001 fff0 	bl	4058dc <__ssprint_r>
  4038fc:	2800      	cmp	r0, #0
  4038fe:	f47e af51 	bne.w	4027a4 <_svfprintf_r+0x1a4>
  403902:	991f      	ldr	r1, [sp, #124]	; 0x7c
  403904:	9a27      	ldr	r2, [sp, #156]	; 0x9c
  403906:	9b26      	ldr	r3, [sp, #152]	; 0x98
  403908:	46c8      	mov	r8, r9
  40390a:	e667      	b.n	4035dc <_svfprintf_r+0xfdc>
  40390c:	2000      	movs	r0, #0
  40390e:	900a      	str	r0, [sp, #40]	; 0x28
  403910:	f7fe bed0 	b.w	4026b4 <_svfprintf_r+0xb4>
  403914:	3301      	adds	r3, #1
  403916:	443a      	add	r2, r7
  403918:	2b07      	cmp	r3, #7
  40391a:	e888 00a0 	stmia.w	r8, {r5, r7}
  40391e:	9227      	str	r2, [sp, #156]	; 0x9c
  403920:	9326      	str	r3, [sp, #152]	; 0x98
  403922:	f108 0808 	add.w	r8, r8, #8
  403926:	f77f ae5c 	ble.w	4035e2 <_svfprintf_r+0xfe2>
  40392a:	aa25      	add	r2, sp, #148	; 0x94
  40392c:	990b      	ldr	r1, [sp, #44]	; 0x2c
  40392e:	980c      	ldr	r0, [sp, #48]	; 0x30
  403930:	f001 ffd4 	bl	4058dc <__ssprint_r>
  403934:	2800      	cmp	r0, #0
  403936:	f47e af35 	bne.w	4027a4 <_svfprintf_r+0x1a4>
  40393a:	9a27      	ldr	r2, [sp, #156]	; 0x9c
  40393c:	9b26      	ldr	r3, [sp, #152]	; 0x98
  40393e:	46c8      	mov	r8, r9
  403940:	e64f      	b.n	4035e2 <_svfprintf_r+0xfe2>
  403942:	3330      	adds	r3, #48	; 0x30
  403944:	2230      	movs	r2, #48	; 0x30
  403946:	f88d 3087 	strb.w	r3, [sp, #135]	; 0x87
  40394a:	f88d 2086 	strb.w	r2, [sp, #134]	; 0x86
  40394e:	ab22      	add	r3, sp, #136	; 0x88
  403950:	e70f      	b.n	403772 <_svfprintf_r+0x1172>
  403952:	9b12      	ldr	r3, [sp, #72]	; 0x48
  403954:	9a19      	ldr	r2, [sp, #100]	; 0x64
  403956:	4413      	add	r3, r2
  403958:	930e      	str	r3, [sp, #56]	; 0x38
  40395a:	e775      	b.n	403848 <_svfprintf_r+0x1248>
  40395c:	9b23      	ldr	r3, [sp, #140]	; 0x8c
  40395e:	e5cb      	b.n	4034f8 <_svfprintf_r+0xef8>
  403960:	9b14      	ldr	r3, [sp, #80]	; 0x50
  403962:	4e1d      	ldr	r6, [pc, #116]	; (4039d8 <_svfprintf_r+0x13d8>)
  403964:	2b00      	cmp	r3, #0
  403966:	bfb6      	itet	lt
  403968:	272d      	movlt	r7, #45	; 0x2d
  40396a:	f89d 7077 	ldrbge.w	r7, [sp, #119]	; 0x77
  40396e:	f88d 7077 	strblt.w	r7, [sp, #119]	; 0x77
  403972:	4b1a      	ldr	r3, [pc, #104]	; (4039dc <_svfprintf_r+0x13dc>)
  403974:	f7ff ba2f 	b.w	402dd6 <_svfprintf_r+0x7d6>
  403978:	9a16      	ldr	r2, [sp, #88]	; 0x58
  40397a:	9808      	ldr	r0, [sp, #32]
  40397c:	9b17      	ldr	r3, [sp, #92]	; 0x5c
  40397e:	4639      	mov	r1, r7
  403980:	f002 fc76 	bl	406270 <__aeabi_dcmpeq>
  403984:	2800      	cmp	r0, #0
  403986:	f47f ae7f 	bne.w	403688 <_svfprintf_r+0x1088>
  40398a:	f1c5 0501 	rsb	r5, r5, #1
  40398e:	951f      	str	r5, [sp, #124]	; 0x7c
  403990:	442c      	add	r4, r5
  403992:	e59e      	b.n	4034d2 <_svfprintf_r+0xed2>
  403994:	9b12      	ldr	r3, [sp, #72]	; 0x48
  403996:	9a19      	ldr	r2, [sp, #100]	; 0x64
  403998:	4413      	add	r3, r2
  40399a:	9a0a      	ldr	r2, [sp, #40]	; 0x28
  40399c:	441a      	add	r2, r3
  40399e:	ea22 73e2 	bic.w	r3, r2, r2, asr #31
  4039a2:	920e      	str	r2, [sp, #56]	; 0x38
  4039a4:	9308      	str	r3, [sp, #32]
  4039a6:	e5c7      	b.n	403538 <_svfprintf_r+0xf38>
  4039a8:	9b12      	ldr	r3, [sp, #72]	; 0x48
  4039aa:	9a0e      	ldr	r2, [sp, #56]	; 0x38
  4039ac:	f1c3 0301 	rsb	r3, r3, #1
  4039b0:	441a      	add	r2, r3
  4039b2:	4613      	mov	r3, r2
  4039b4:	e7d0      	b.n	403958 <_svfprintf_r+0x1358>
  4039b6:	f01b 0301 	ands.w	r3, fp, #1
  4039ba:	9312      	str	r3, [sp, #72]	; 0x48
  4039bc:	f47f aee2 	bne.w	403784 <_svfprintf_r+0x1184>
  4039c0:	9b0e      	ldr	r3, [sp, #56]	; 0x38
  4039c2:	ea23 73e3 	bic.w	r3, r3, r3, asr #31
  4039c6:	9308      	str	r3, [sp, #32]
  4039c8:	e5b6      	b.n	403538 <_svfprintf_r+0xf38>
  4039ca:	bf00      	nop
  4039cc:	66666667 	.word	0x66666667
  4039d0:	00406de4 	.word	0x00406de4
  4039d4:	00406e00 	.word	0x00406e00
  4039d8:	00406db8 	.word	0x00406db8
  4039dc:	00406db4 	.word	0x00406db4
  4039e0:	9b0a      	ldr	r3, [sp, #40]	; 0x28
  4039e2:	b913      	cbnz	r3, 4039ea <_svfprintf_r+0x13ea>
  4039e4:	f01b 0f01 	tst.w	fp, #1
  4039e8:	d002      	beq.n	4039f0 <_svfprintf_r+0x13f0>
  4039ea:	9b19      	ldr	r3, [sp, #100]	; 0x64
  4039ec:	3301      	adds	r3, #1
  4039ee:	e7d4      	b.n	40399a <_svfprintf_r+0x139a>
  4039f0:	2301      	movs	r3, #1
  4039f2:	e73a      	b.n	40386a <_svfprintf_r+0x126a>
  4039f4:	9d0f      	ldr	r5, [sp, #60]	; 0x3c
  4039f6:	f89a 3001 	ldrb.w	r3, [sl, #1]
  4039fa:	6828      	ldr	r0, [r5, #0]
  4039fc:	ea40 70e0 	orr.w	r0, r0, r0, asr #31
  403a00:	900a      	str	r0, [sp, #40]	; 0x28
  403a02:	4628      	mov	r0, r5
  403a04:	3004      	adds	r0, #4
  403a06:	46a2      	mov	sl, r4
  403a08:	900f      	str	r0, [sp, #60]	; 0x3c
  403a0a:	f7fe be51 	b.w	4026b0 <_svfprintf_r+0xb0>
  403a0e:	f88d 1077 	strb.w	r1, [sp, #119]	; 0x77
  403a12:	f7ff b867 	b.w	402ae4 <_svfprintf_r+0x4e4>
  403a16:	f88d 1077 	strb.w	r1, [sp, #119]	; 0x77
  403a1a:	f7ff ba15 	b.w	402e48 <_svfprintf_r+0x848>
  403a1e:	f10d 0386 	add.w	r3, sp, #134	; 0x86
  403a22:	e6a6      	b.n	403772 <_svfprintf_r+0x1172>
  403a24:	f88d 1077 	strb.w	r1, [sp, #119]	; 0x77
  403a28:	f7ff b8eb 	b.w	402c02 <_svfprintf_r+0x602>
  403a2c:	9a0c      	ldr	r2, [sp, #48]	; 0x30
  403a2e:	230c      	movs	r3, #12
  403a30:	6013      	str	r3, [r2, #0]
  403a32:	f04f 33ff 	mov.w	r3, #4294967295
  403a36:	9309      	str	r3, [sp, #36]	; 0x24
  403a38:	f7fe bebd 	b.w	4027b6 <_svfprintf_r+0x1b6>
  403a3c:	f88d 1077 	strb.w	r1, [sp, #119]	; 0x77
  403a40:	f7ff b99a 	b.w	402d78 <_svfprintf_r+0x778>
  403a44:	f88d 1077 	strb.w	r1, [sp, #119]	; 0x77
  403a48:	f7ff b976 	b.w	402d38 <_svfprintf_r+0x738>
  403a4c:	f88d 1077 	strb.w	r1, [sp, #119]	; 0x77
  403a50:	f7ff b959 	b.w	402d06 <_svfprintf_r+0x706>
  403a54:	f88d 1077 	strb.w	r1, [sp, #119]	; 0x77
  403a58:	f7ff b912 	b.w	402c80 <_svfprintf_r+0x680>

00403a5c <register_fini>:
  403a5c:	4b02      	ldr	r3, [pc, #8]	; (403a68 <register_fini+0xc>)
  403a5e:	b113      	cbz	r3, 403a66 <register_fini+0xa>
  403a60:	4802      	ldr	r0, [pc, #8]	; (403a6c <register_fini+0x10>)
  403a62:	f000 b805 	b.w	403a70 <atexit>
  403a66:	4770      	bx	lr
  403a68:	00000000 	.word	0x00000000
  403a6c:	004049fd 	.word	0x004049fd

00403a70 <atexit>:
  403a70:	2300      	movs	r3, #0
  403a72:	4601      	mov	r1, r0
  403a74:	461a      	mov	r2, r3
  403a76:	4618      	mov	r0, r3
  403a78:	f001 bfae 	b.w	4059d8 <__register_exitproc>

00403a7c <quorem>:
  403a7c:	6902      	ldr	r2, [r0, #16]
  403a7e:	690b      	ldr	r3, [r1, #16]
  403a80:	4293      	cmp	r3, r2
  403a82:	f300 808d 	bgt.w	403ba0 <quorem+0x124>
  403a86:	e92d 4ff0 	stmdb	sp!, {r4, r5, r6, r7, r8, r9, sl, fp, lr}
  403a8a:	f103 38ff 	add.w	r8, r3, #4294967295
  403a8e:	f101 0714 	add.w	r7, r1, #20
  403a92:	f100 0b14 	add.w	fp, r0, #20
  403a96:	f857 2028 	ldr.w	r2, [r7, r8, lsl #2]
  403a9a:	f85b 3028 	ldr.w	r3, [fp, r8, lsl #2]
  403a9e:	ea4f 0488 	mov.w	r4, r8, lsl #2
  403aa2:	b083      	sub	sp, #12
  403aa4:	3201      	adds	r2, #1
  403aa6:	fbb3 f9f2 	udiv	r9, r3, r2
  403aaa:	eb0b 0304 	add.w	r3, fp, r4
  403aae:	9400      	str	r4, [sp, #0]
  403ab0:	eb07 0a04 	add.w	sl, r7, r4
  403ab4:	9301      	str	r3, [sp, #4]
  403ab6:	f1b9 0f00 	cmp.w	r9, #0
  403aba:	d039      	beq.n	403b30 <quorem+0xb4>
  403abc:	2500      	movs	r5, #0
  403abe:	462e      	mov	r6, r5
  403ac0:	46bc      	mov	ip, r7
  403ac2:	46de      	mov	lr, fp
  403ac4:	f85c 4b04 	ldr.w	r4, [ip], #4
  403ac8:	f8de 3000 	ldr.w	r3, [lr]
  403acc:	b2a2      	uxth	r2, r4
  403ace:	fb09 5502 	mla	r5, r9, r2, r5
  403ad2:	0c22      	lsrs	r2, r4, #16
  403ad4:	0c2c      	lsrs	r4, r5, #16
  403ad6:	fb09 4202 	mla	r2, r9, r2, r4
  403ada:	b2ad      	uxth	r5, r5
  403adc:	1b75      	subs	r5, r6, r5
  403ade:	b296      	uxth	r6, r2
  403ae0:	ebc6 4613 	rsb	r6, r6, r3, lsr #16
  403ae4:	fa15 f383 	uxtah	r3, r5, r3
  403ae8:	eb06 4623 	add.w	r6, r6, r3, asr #16
  403aec:	b29b      	uxth	r3, r3
  403aee:	ea43 4306 	orr.w	r3, r3, r6, lsl #16
  403af2:	45e2      	cmp	sl, ip
  403af4:	ea4f 4512 	mov.w	r5, r2, lsr #16
  403af8:	f84e 3b04 	str.w	r3, [lr], #4
  403afc:	ea4f 4626 	mov.w	r6, r6, asr #16
  403b00:	d2e0      	bcs.n	403ac4 <quorem+0x48>
  403b02:	9b00      	ldr	r3, [sp, #0]
  403b04:	f85b 3003 	ldr.w	r3, [fp, r3]
  403b08:	b993      	cbnz	r3, 403b30 <quorem+0xb4>
  403b0a:	9c01      	ldr	r4, [sp, #4]
  403b0c:	1f23      	subs	r3, r4, #4
  403b0e:	459b      	cmp	fp, r3
  403b10:	d20c      	bcs.n	403b2c <quorem+0xb0>
  403b12:	f854 3c04 	ldr.w	r3, [r4, #-4]
  403b16:	b94b      	cbnz	r3, 403b2c <quorem+0xb0>
  403b18:	f1a4 0308 	sub.w	r3, r4, #8
  403b1c:	e002      	b.n	403b24 <quorem+0xa8>
  403b1e:	681a      	ldr	r2, [r3, #0]
  403b20:	3b04      	subs	r3, #4
  403b22:	b91a      	cbnz	r2, 403b2c <quorem+0xb0>
  403b24:	459b      	cmp	fp, r3
  403b26:	f108 38ff 	add.w	r8, r8, #4294967295
  403b2a:	d3f8      	bcc.n	403b1e <quorem+0xa2>
  403b2c:	f8c0 8010 	str.w	r8, [r0, #16]
  403b30:	4604      	mov	r4, r0
  403b32:	f001 fd39 	bl	4055a8 <__mcmp>
  403b36:	2800      	cmp	r0, #0
  403b38:	db2e      	blt.n	403b98 <quorem+0x11c>
  403b3a:	f109 0901 	add.w	r9, r9, #1
  403b3e:	465d      	mov	r5, fp
  403b40:	2300      	movs	r3, #0
  403b42:	f857 1b04 	ldr.w	r1, [r7], #4
  403b46:	6828      	ldr	r0, [r5, #0]
  403b48:	b28a      	uxth	r2, r1
  403b4a:	1a9a      	subs	r2, r3, r2
  403b4c:	0c0b      	lsrs	r3, r1, #16
  403b4e:	fa12 f280 	uxtah	r2, r2, r0
  403b52:	ebc3 4310 	rsb	r3, r3, r0, lsr #16
  403b56:	eb03 4322 	add.w	r3, r3, r2, asr #16
  403b5a:	b292      	uxth	r2, r2
  403b5c:	ea42 4203 	orr.w	r2, r2, r3, lsl #16
  403b60:	45ba      	cmp	sl, r7
  403b62:	f845 2b04 	str.w	r2, [r5], #4
  403b66:	ea4f 4323 	mov.w	r3, r3, asr #16
  403b6a:	d2ea      	bcs.n	403b42 <quorem+0xc6>
  403b6c:	f85b 2028 	ldr.w	r2, [fp, r8, lsl #2]
  403b70:	eb0b 0388 	add.w	r3, fp, r8, lsl #2
  403b74:	b982      	cbnz	r2, 403b98 <quorem+0x11c>
  403b76:	1f1a      	subs	r2, r3, #4
  403b78:	4593      	cmp	fp, r2
  403b7a:	d20b      	bcs.n	403b94 <quorem+0x118>
  403b7c:	f853 2c04 	ldr.w	r2, [r3, #-4]
  403b80:	b942      	cbnz	r2, 403b94 <quorem+0x118>
  403b82:	3b08      	subs	r3, #8
  403b84:	e002      	b.n	403b8c <quorem+0x110>
  403b86:	681a      	ldr	r2, [r3, #0]
  403b88:	3b04      	subs	r3, #4
  403b8a:	b91a      	cbnz	r2, 403b94 <quorem+0x118>
  403b8c:	459b      	cmp	fp, r3
  403b8e:	f108 38ff 	add.w	r8, r8, #4294967295
  403b92:	d3f8      	bcc.n	403b86 <quorem+0x10a>
  403b94:	f8c4 8010 	str.w	r8, [r4, #16]
  403b98:	4648      	mov	r0, r9
  403b9a:	b003      	add	sp, #12
  403b9c:	e8bd 8ff0 	ldmia.w	sp!, {r4, r5, r6, r7, r8, r9, sl, fp, pc}
  403ba0:	2000      	movs	r0, #0
  403ba2:	4770      	bx	lr
  403ba4:	0000      	movs	r0, r0
	...

00403ba8 <_dtoa_r>:
  403ba8:	e92d 4ff0 	stmdb	sp!, {r4, r5, r6, r7, r8, r9, sl, fp, lr}
  403bac:	6c01      	ldr	r1, [r0, #64]	; 0x40
  403bae:	b09b      	sub	sp, #108	; 0x6c
  403bb0:	4604      	mov	r4, r0
  403bb2:	9e27      	ldr	r6, [sp, #156]	; 0x9c
  403bb4:	4692      	mov	sl, r2
  403bb6:	469b      	mov	fp, r3
  403bb8:	b141      	cbz	r1, 403bcc <_dtoa_r+0x24>
  403bba:	6c42      	ldr	r2, [r0, #68]	; 0x44
  403bbc:	604a      	str	r2, [r1, #4]
  403bbe:	2301      	movs	r3, #1
  403bc0:	4093      	lsls	r3, r2
  403bc2:	608b      	str	r3, [r1, #8]
  403bc4:	f001 fb18 	bl	4051f8 <_Bfree>
  403bc8:	2300      	movs	r3, #0
  403bca:	6423      	str	r3, [r4, #64]	; 0x40
  403bcc:	f1bb 0f00 	cmp.w	fp, #0
  403bd0:	465d      	mov	r5, fp
  403bd2:	db35      	blt.n	403c40 <_dtoa_r+0x98>
  403bd4:	2300      	movs	r3, #0
  403bd6:	6033      	str	r3, [r6, #0]
  403bd8:	4b9d      	ldr	r3, [pc, #628]	; (403e50 <_dtoa_r+0x2a8>)
  403bda:	43ab      	bics	r3, r5
  403bdc:	d015      	beq.n	403c0a <_dtoa_r+0x62>
  403bde:	4650      	mov	r0, sl
  403be0:	4659      	mov	r1, fp
  403be2:	2200      	movs	r2, #0
  403be4:	2300      	movs	r3, #0
  403be6:	f002 fb43 	bl	406270 <__aeabi_dcmpeq>
  403bea:	4680      	mov	r8, r0
  403bec:	2800      	cmp	r0, #0
  403bee:	d02d      	beq.n	403c4c <_dtoa_r+0xa4>
  403bf0:	9a26      	ldr	r2, [sp, #152]	; 0x98
  403bf2:	2301      	movs	r3, #1
  403bf4:	6013      	str	r3, [r2, #0]
  403bf6:	9b28      	ldr	r3, [sp, #160]	; 0xa0
  403bf8:	2b00      	cmp	r3, #0
  403bfa:	f000 80bd 	beq.w	403d78 <_dtoa_r+0x1d0>
  403bfe:	4895      	ldr	r0, [pc, #596]	; (403e54 <_dtoa_r+0x2ac>)
  403c00:	6018      	str	r0, [r3, #0]
  403c02:	3801      	subs	r0, #1
  403c04:	b01b      	add	sp, #108	; 0x6c
  403c06:	e8bd 8ff0 	ldmia.w	sp!, {r4, r5, r6, r7, r8, r9, sl, fp, pc}
  403c0a:	9a26      	ldr	r2, [sp, #152]	; 0x98
  403c0c:	f242 730f 	movw	r3, #9999	; 0x270f
  403c10:	6013      	str	r3, [r2, #0]
  403c12:	f1ba 0f00 	cmp.w	sl, #0
  403c16:	d10d      	bne.n	403c34 <_dtoa_r+0x8c>
  403c18:	f3c5 0513 	ubfx	r5, r5, #0, #20
  403c1c:	b955      	cbnz	r5, 403c34 <_dtoa_r+0x8c>
  403c1e:	9b28      	ldr	r3, [sp, #160]	; 0xa0
  403c20:	488d      	ldr	r0, [pc, #564]	; (403e58 <_dtoa_r+0x2b0>)
  403c22:	2b00      	cmp	r3, #0
  403c24:	d0ee      	beq.n	403c04 <_dtoa_r+0x5c>
  403c26:	f100 0308 	add.w	r3, r0, #8
  403c2a:	9a28      	ldr	r2, [sp, #160]	; 0xa0
  403c2c:	6013      	str	r3, [r2, #0]
  403c2e:	b01b      	add	sp, #108	; 0x6c
  403c30:	e8bd 8ff0 	ldmia.w	sp!, {r4, r5, r6, r7, r8, r9, sl, fp, pc}
  403c34:	9b28      	ldr	r3, [sp, #160]	; 0xa0
  403c36:	4889      	ldr	r0, [pc, #548]	; (403e5c <_dtoa_r+0x2b4>)
  403c38:	2b00      	cmp	r3, #0
  403c3a:	d0e3      	beq.n	403c04 <_dtoa_r+0x5c>
  403c3c:	1cc3      	adds	r3, r0, #3
  403c3e:	e7f4      	b.n	403c2a <_dtoa_r+0x82>
  403c40:	2301      	movs	r3, #1
  403c42:	f02b 4500 	bic.w	r5, fp, #2147483648	; 0x80000000
  403c46:	6033      	str	r3, [r6, #0]
  403c48:	46ab      	mov	fp, r5
  403c4a:	e7c5      	b.n	403bd8 <_dtoa_r+0x30>
  403c4c:	aa18      	add	r2, sp, #96	; 0x60
  403c4e:	ab19      	add	r3, sp, #100	; 0x64
  403c50:	9201      	str	r2, [sp, #4]
  403c52:	9300      	str	r3, [sp, #0]
  403c54:	4652      	mov	r2, sl
  403c56:	465b      	mov	r3, fp
  403c58:	4620      	mov	r0, r4
  403c5a:	f001 fd45 	bl	4056e8 <__d2b>
  403c5e:	0d2b      	lsrs	r3, r5, #20
  403c60:	4681      	mov	r9, r0
  403c62:	d071      	beq.n	403d48 <_dtoa_r+0x1a0>
  403c64:	f3cb 0213 	ubfx	r2, fp, #0, #20
  403c68:	f042 517f 	orr.w	r1, r2, #1069547520	; 0x3fc00000
  403c6c:	9f18      	ldr	r7, [sp, #96]	; 0x60
  403c6e:	f8cd 8050 	str.w	r8, [sp, #80]	; 0x50
  403c72:	4650      	mov	r0, sl
  403c74:	f2a3 36ff 	subw	r6, r3, #1023	; 0x3ff
  403c78:	f441 1140 	orr.w	r1, r1, #3145728	; 0x300000
  403c7c:	2200      	movs	r2, #0
  403c7e:	4b78      	ldr	r3, [pc, #480]	; (403e60 <_dtoa_r+0x2b8>)
  403c80:	f7fd fed4 	bl	401a2c <__aeabi_dsub>
  403c84:	a36c      	add	r3, pc, #432	; (adr r3, 403e38 <_dtoa_r+0x290>)
  403c86:	e9d3 2300 	ldrd	r2, r3, [r3]
  403c8a:	f7fe f883 	bl	401d94 <__aeabi_dmul>
  403c8e:	a36c      	add	r3, pc, #432	; (adr r3, 403e40 <_dtoa_r+0x298>)
  403c90:	e9d3 2300 	ldrd	r2, r3, [r3]
  403c94:	f7fd fecc 	bl	401a30 <__adddf3>
  403c98:	e9cd 0102 	strd	r0, r1, [sp, #8]
  403c9c:	4630      	mov	r0, r6
  403c9e:	f7fe f813 	bl	401cc8 <__aeabi_i2d>
  403ca2:	a369      	add	r3, pc, #420	; (adr r3, 403e48 <_dtoa_r+0x2a0>)
  403ca4:	e9d3 2300 	ldrd	r2, r3, [r3]
  403ca8:	f7fe f874 	bl	401d94 <__aeabi_dmul>
  403cac:	4602      	mov	r2, r0
  403cae:	460b      	mov	r3, r1
  403cb0:	e9dd 0102 	ldrd	r0, r1, [sp, #8]
  403cb4:	f7fd febc 	bl	401a30 <__adddf3>
  403cb8:	e9cd 0104 	strd	r0, r1, [sp, #16]
  403cbc:	f002 fb20 	bl	406300 <__aeabi_d2iz>
  403cc0:	2200      	movs	r2, #0
  403cc2:	9002      	str	r0, [sp, #8]
  403cc4:	2300      	movs	r3, #0
  403cc6:	e9dd 0104 	ldrd	r0, r1, [sp, #16]
  403cca:	f002 fadb 	bl	406284 <__aeabi_dcmplt>
  403cce:	2800      	cmp	r0, #0
  403cd0:	f040 8173 	bne.w	403fba <_dtoa_r+0x412>
  403cd4:	9d02      	ldr	r5, [sp, #8]
  403cd6:	2d16      	cmp	r5, #22
  403cd8:	f200 815d 	bhi.w	403f96 <_dtoa_r+0x3ee>
  403cdc:	4b61      	ldr	r3, [pc, #388]	; (403e64 <_dtoa_r+0x2bc>)
  403cde:	eb03 03c5 	add.w	r3, r3, r5, lsl #3
  403ce2:	e9d3 0100 	ldrd	r0, r1, [r3]
  403ce6:	4652      	mov	r2, sl
  403ce8:	465b      	mov	r3, fp
  403cea:	f002 fae9 	bl	4062c0 <__aeabi_dcmpgt>
  403cee:	2800      	cmp	r0, #0
  403cf0:	f000 81c5 	beq.w	40407e <_dtoa_r+0x4d6>
  403cf4:	1e6b      	subs	r3, r5, #1
  403cf6:	9302      	str	r3, [sp, #8]
  403cf8:	2300      	movs	r3, #0
  403cfa:	930e      	str	r3, [sp, #56]	; 0x38
  403cfc:	1bbf      	subs	r7, r7, r6
  403cfe:	1e7b      	subs	r3, r7, #1
  403d00:	9306      	str	r3, [sp, #24]
  403d02:	f100 8154 	bmi.w	403fae <_dtoa_r+0x406>
  403d06:	2300      	movs	r3, #0
  403d08:	9308      	str	r3, [sp, #32]
  403d0a:	9b02      	ldr	r3, [sp, #8]
  403d0c:	2b00      	cmp	r3, #0
  403d0e:	f2c0 8145 	blt.w	403f9c <_dtoa_r+0x3f4>
  403d12:	9a06      	ldr	r2, [sp, #24]
  403d14:	930d      	str	r3, [sp, #52]	; 0x34
  403d16:	4611      	mov	r1, r2
  403d18:	4419      	add	r1, r3
  403d1a:	2300      	movs	r3, #0
  403d1c:	9106      	str	r1, [sp, #24]
  403d1e:	930c      	str	r3, [sp, #48]	; 0x30
  403d20:	9b24      	ldr	r3, [sp, #144]	; 0x90
  403d22:	2b09      	cmp	r3, #9
  403d24:	d82a      	bhi.n	403d7c <_dtoa_r+0x1d4>
  403d26:	2b05      	cmp	r3, #5
  403d28:	f340 865b 	ble.w	4049e2 <_dtoa_r+0xe3a>
  403d2c:	3b04      	subs	r3, #4
  403d2e:	9324      	str	r3, [sp, #144]	; 0x90
  403d30:	2500      	movs	r5, #0
  403d32:	9b24      	ldr	r3, [sp, #144]	; 0x90
  403d34:	3b02      	subs	r3, #2
  403d36:	2b03      	cmp	r3, #3
  403d38:	f200 8642 	bhi.w	4049c0 <_dtoa_r+0xe18>
  403d3c:	e8df f013 	tbh	[pc, r3, lsl #1]
  403d40:	02c903d4 	.word	0x02c903d4
  403d44:	046103df 	.word	0x046103df
  403d48:	9f18      	ldr	r7, [sp, #96]	; 0x60
  403d4a:	9e19      	ldr	r6, [sp, #100]	; 0x64
  403d4c:	443e      	add	r6, r7
  403d4e:	f206 4332 	addw	r3, r6, #1074	; 0x432
  403d52:	2b20      	cmp	r3, #32
  403d54:	f340 818e 	ble.w	404074 <_dtoa_r+0x4cc>
  403d58:	f1c3 0340 	rsb	r3, r3, #64	; 0x40
  403d5c:	f206 4012 	addw	r0, r6, #1042	; 0x412
  403d60:	409d      	lsls	r5, r3
  403d62:	fa2a f000 	lsr.w	r0, sl, r0
  403d66:	4328      	orrs	r0, r5
  403d68:	f7fd ff9e 	bl	401ca8 <__aeabi_ui2d>
  403d6c:	2301      	movs	r3, #1
  403d6e:	3e01      	subs	r6, #1
  403d70:	f1a1 71f8 	sub.w	r1, r1, #32505856	; 0x1f00000
  403d74:	9314      	str	r3, [sp, #80]	; 0x50
  403d76:	e781      	b.n	403c7c <_dtoa_r+0xd4>
  403d78:	483b      	ldr	r0, [pc, #236]	; (403e68 <_dtoa_r+0x2c0>)
  403d7a:	e743      	b.n	403c04 <_dtoa_r+0x5c>
  403d7c:	2100      	movs	r1, #0
  403d7e:	6461      	str	r1, [r4, #68]	; 0x44
  403d80:	4620      	mov	r0, r4
  403d82:	9125      	str	r1, [sp, #148]	; 0x94
  403d84:	f001 fa12 	bl	4051ac <_Balloc>
  403d88:	f04f 33ff 	mov.w	r3, #4294967295
  403d8c:	930a      	str	r3, [sp, #40]	; 0x28
  403d8e:	9a25      	ldr	r2, [sp, #148]	; 0x94
  403d90:	930f      	str	r3, [sp, #60]	; 0x3c
  403d92:	2301      	movs	r3, #1
  403d94:	9004      	str	r0, [sp, #16]
  403d96:	6420      	str	r0, [r4, #64]	; 0x40
  403d98:	9224      	str	r2, [sp, #144]	; 0x90
  403d9a:	930b      	str	r3, [sp, #44]	; 0x2c
  403d9c:	9b19      	ldr	r3, [sp, #100]	; 0x64
  403d9e:	2b00      	cmp	r3, #0
  403da0:	f2c0 80d9 	blt.w	403f56 <_dtoa_r+0x3ae>
  403da4:	9a02      	ldr	r2, [sp, #8]
  403da6:	2a0e      	cmp	r2, #14
  403da8:	f300 80d5 	bgt.w	403f56 <_dtoa_r+0x3ae>
  403dac:	4b2d      	ldr	r3, [pc, #180]	; (403e64 <_dtoa_r+0x2bc>)
  403dae:	eb03 03c2 	add.w	r3, r3, r2, lsl #3
  403db2:	e9d3 2300 	ldrd	r2, r3, [r3]
  403db6:	e9cd 2308 	strd	r2, r3, [sp, #32]
  403dba:	9b25      	ldr	r3, [sp, #148]	; 0x94
  403dbc:	2b00      	cmp	r3, #0
  403dbe:	f2c0 83ba 	blt.w	404536 <_dtoa_r+0x98e>
  403dc2:	e9dd 5608 	ldrd	r5, r6, [sp, #32]
  403dc6:	4650      	mov	r0, sl
  403dc8:	462a      	mov	r2, r5
  403dca:	4633      	mov	r3, r6
  403dcc:	4659      	mov	r1, fp
  403dce:	f7fe f90b 	bl	401fe8 <__aeabi_ddiv>
  403dd2:	f002 fa95 	bl	406300 <__aeabi_d2iz>
  403dd6:	4680      	mov	r8, r0
  403dd8:	f7fd ff76 	bl	401cc8 <__aeabi_i2d>
  403ddc:	462a      	mov	r2, r5
  403dde:	4633      	mov	r3, r6
  403de0:	f7fd ffd8 	bl	401d94 <__aeabi_dmul>
  403de4:	460b      	mov	r3, r1
  403de6:	4602      	mov	r2, r0
  403de8:	4659      	mov	r1, fp
  403dea:	4650      	mov	r0, sl
  403dec:	f7fd fe1e 	bl	401a2c <__aeabi_dsub>
  403df0:	9d04      	ldr	r5, [sp, #16]
  403df2:	f108 0330 	add.w	r3, r8, #48	; 0x30
  403df6:	702b      	strb	r3, [r5, #0]
  403df8:	9b0a      	ldr	r3, [sp, #40]	; 0x28
  403dfa:	2b01      	cmp	r3, #1
  403dfc:	4606      	mov	r6, r0
  403dfe:	460f      	mov	r7, r1
  403e00:	f105 0501 	add.w	r5, r5, #1
  403e04:	d068      	beq.n	403ed8 <_dtoa_r+0x330>
  403e06:	2200      	movs	r2, #0
  403e08:	4b18      	ldr	r3, [pc, #96]	; (403e6c <_dtoa_r+0x2c4>)
  403e0a:	f7fd ffc3 	bl	401d94 <__aeabi_dmul>
  403e0e:	2200      	movs	r2, #0
  403e10:	2300      	movs	r3, #0
  403e12:	4606      	mov	r6, r0
  403e14:	460f      	mov	r7, r1
  403e16:	f002 fa2b 	bl	406270 <__aeabi_dcmpeq>
  403e1a:	2800      	cmp	r0, #0
  403e1c:	f040 8088 	bne.w	403f30 <_dtoa_r+0x388>
  403e20:	f8cd 902c 	str.w	r9, [sp, #44]	; 0x2c
  403e24:	f04f 0a00 	mov.w	sl, #0
  403e28:	f8df b040 	ldr.w	fp, [pc, #64]	; 403e6c <_dtoa_r+0x2c4>
  403e2c:	940c      	str	r4, [sp, #48]	; 0x30
  403e2e:	e9dd 8908 	ldrd	r8, r9, [sp, #32]
  403e32:	e028      	b.n	403e86 <_dtoa_r+0x2de>
  403e34:	f3af 8000 	nop.w
  403e38:	636f4361 	.word	0x636f4361
  403e3c:	3fd287a7 	.word	0x3fd287a7
  403e40:	8b60c8b3 	.word	0x8b60c8b3
  403e44:	3fc68a28 	.word	0x3fc68a28
  403e48:	509f79fb 	.word	0x509f79fb
  403e4c:	3fd34413 	.word	0x3fd34413
  403e50:	7ff00000 	.word	0x7ff00000
  403e54:	00406ded 	.word	0x00406ded
  403e58:	00406e10 	.word	0x00406e10
  403e5c:	00406e1c 	.word	0x00406e1c
  403e60:	3ff80000 	.word	0x3ff80000
  403e64:	00406e48 	.word	0x00406e48
  403e68:	00406dec 	.word	0x00406dec
  403e6c:	40240000 	.word	0x40240000
  403e70:	f7fd ff90 	bl	401d94 <__aeabi_dmul>
  403e74:	2200      	movs	r2, #0
  403e76:	2300      	movs	r3, #0
  403e78:	4606      	mov	r6, r0
  403e7a:	460f      	mov	r7, r1
  403e7c:	f002 f9f8 	bl	406270 <__aeabi_dcmpeq>
  403e80:	2800      	cmp	r0, #0
  403e82:	f040 83c1 	bne.w	404608 <_dtoa_r+0xa60>
  403e86:	4642      	mov	r2, r8
  403e88:	464b      	mov	r3, r9
  403e8a:	4630      	mov	r0, r6
  403e8c:	4639      	mov	r1, r7
  403e8e:	f7fe f8ab 	bl	401fe8 <__aeabi_ddiv>
  403e92:	f002 fa35 	bl	406300 <__aeabi_d2iz>
  403e96:	4604      	mov	r4, r0
  403e98:	f7fd ff16 	bl	401cc8 <__aeabi_i2d>
  403e9c:	4642      	mov	r2, r8
  403e9e:	464b      	mov	r3, r9
  403ea0:	f7fd ff78 	bl	401d94 <__aeabi_dmul>
  403ea4:	4602      	mov	r2, r0
  403ea6:	460b      	mov	r3, r1
  403ea8:	4630      	mov	r0, r6
  403eaa:	4639      	mov	r1, r7
  403eac:	f7fd fdbe 	bl	401a2c <__aeabi_dsub>
  403eb0:	f104 0e30 	add.w	lr, r4, #48	; 0x30
  403eb4:	9e04      	ldr	r6, [sp, #16]
  403eb6:	f805 eb01 	strb.w	lr, [r5], #1
  403eba:	eba5 0e06 	sub.w	lr, r5, r6
  403ebe:	9e0a      	ldr	r6, [sp, #40]	; 0x28
  403ec0:	45b6      	cmp	lr, r6
  403ec2:	e9cd 0106 	strd	r0, r1, [sp, #24]
  403ec6:	4652      	mov	r2, sl
  403ec8:	465b      	mov	r3, fp
  403eca:	d1d1      	bne.n	403e70 <_dtoa_r+0x2c8>
  403ecc:	46a0      	mov	r8, r4
  403ece:	f8dd 902c 	ldr.w	r9, [sp, #44]	; 0x2c
  403ed2:	9c0c      	ldr	r4, [sp, #48]	; 0x30
  403ed4:	4606      	mov	r6, r0
  403ed6:	460f      	mov	r7, r1
  403ed8:	4632      	mov	r2, r6
  403eda:	463b      	mov	r3, r7
  403edc:	4630      	mov	r0, r6
  403ede:	4639      	mov	r1, r7
  403ee0:	f7fd fda6 	bl	401a30 <__adddf3>
  403ee4:	4606      	mov	r6, r0
  403ee6:	460f      	mov	r7, r1
  403ee8:	4602      	mov	r2, r0
  403eea:	460b      	mov	r3, r1
  403eec:	e9dd 0108 	ldrd	r0, r1, [sp, #32]
  403ef0:	f002 f9c8 	bl	406284 <__aeabi_dcmplt>
  403ef4:	b948      	cbnz	r0, 403f0a <_dtoa_r+0x362>
  403ef6:	4632      	mov	r2, r6
  403ef8:	463b      	mov	r3, r7
  403efa:	e9dd 0108 	ldrd	r0, r1, [sp, #32]
  403efe:	f002 f9b7 	bl	406270 <__aeabi_dcmpeq>
  403f02:	b1a8      	cbz	r0, 403f30 <_dtoa_r+0x388>
  403f04:	f018 0f01 	tst.w	r8, #1
  403f08:	d012      	beq.n	403f30 <_dtoa_r+0x388>
  403f0a:	f815 8c01 	ldrb.w	r8, [r5, #-1]
  403f0e:	9a04      	ldr	r2, [sp, #16]
  403f10:	1e6b      	subs	r3, r5, #1
  403f12:	e004      	b.n	403f1e <_dtoa_r+0x376>
  403f14:	429a      	cmp	r2, r3
  403f16:	f000 8401 	beq.w	40471c <_dtoa_r+0xb74>
  403f1a:	f813 8d01 	ldrb.w	r8, [r3, #-1]!
  403f1e:	f1b8 0f39 	cmp.w	r8, #57	; 0x39
  403f22:	f103 0501 	add.w	r5, r3, #1
  403f26:	d0f5      	beq.n	403f14 <_dtoa_r+0x36c>
  403f28:	f108 0801 	add.w	r8, r8, #1
  403f2c:	f883 8000 	strb.w	r8, [r3]
  403f30:	4649      	mov	r1, r9
  403f32:	4620      	mov	r0, r4
  403f34:	f001 f960 	bl	4051f8 <_Bfree>
  403f38:	2200      	movs	r2, #0
  403f3a:	9b02      	ldr	r3, [sp, #8]
  403f3c:	702a      	strb	r2, [r5, #0]
  403f3e:	9a26      	ldr	r2, [sp, #152]	; 0x98
  403f40:	3301      	adds	r3, #1
  403f42:	6013      	str	r3, [r2, #0]
  403f44:	9b28      	ldr	r3, [sp, #160]	; 0xa0
  403f46:	2b00      	cmp	r3, #0
  403f48:	f000 839e 	beq.w	404688 <_dtoa_r+0xae0>
  403f4c:	9804      	ldr	r0, [sp, #16]
  403f4e:	601d      	str	r5, [r3, #0]
  403f50:	b01b      	add	sp, #108	; 0x6c
  403f52:	e8bd 8ff0 	ldmia.w	sp!, {r4, r5, r6, r7, r8, r9, sl, fp, pc}
  403f56:	9a0b      	ldr	r2, [sp, #44]	; 0x2c
  403f58:	2a00      	cmp	r2, #0
  403f5a:	d03e      	beq.n	403fda <_dtoa_r+0x432>
  403f5c:	9a24      	ldr	r2, [sp, #144]	; 0x90
  403f5e:	2a01      	cmp	r2, #1
  403f60:	f340 8311 	ble.w	404586 <_dtoa_r+0x9de>
  403f64:	9b0a      	ldr	r3, [sp, #40]	; 0x28
  403f66:	9a0c      	ldr	r2, [sp, #48]	; 0x30
  403f68:	1e5f      	subs	r7, r3, #1
  403f6a:	42ba      	cmp	r2, r7
  403f6c:	f2c0 838f 	blt.w	40468e <_dtoa_r+0xae6>
  403f70:	1bd7      	subs	r7, r2, r7
  403f72:	9b0a      	ldr	r3, [sp, #40]	; 0x28
  403f74:	2b00      	cmp	r3, #0
  403f76:	f2c0 848b 	blt.w	404890 <_dtoa_r+0xce8>
  403f7a:	9d08      	ldr	r5, [sp, #32]
  403f7c:	9b0a      	ldr	r3, [sp, #40]	; 0x28
  403f7e:	9a08      	ldr	r2, [sp, #32]
  403f80:	441a      	add	r2, r3
  403f82:	9208      	str	r2, [sp, #32]
  403f84:	9a06      	ldr	r2, [sp, #24]
  403f86:	2101      	movs	r1, #1
  403f88:	441a      	add	r2, r3
  403f8a:	4620      	mov	r0, r4
  403f8c:	9206      	str	r2, [sp, #24]
  403f8e:	f001 f9cd 	bl	40532c <__i2b>
  403f92:	4606      	mov	r6, r0
  403f94:	e024      	b.n	403fe0 <_dtoa_r+0x438>
  403f96:	2301      	movs	r3, #1
  403f98:	930e      	str	r3, [sp, #56]	; 0x38
  403f9a:	e6af      	b.n	403cfc <_dtoa_r+0x154>
  403f9c:	9a08      	ldr	r2, [sp, #32]
  403f9e:	9b02      	ldr	r3, [sp, #8]
  403fa0:	1ad2      	subs	r2, r2, r3
  403fa2:	425b      	negs	r3, r3
  403fa4:	930c      	str	r3, [sp, #48]	; 0x30
  403fa6:	2300      	movs	r3, #0
  403fa8:	9208      	str	r2, [sp, #32]
  403faa:	930d      	str	r3, [sp, #52]	; 0x34
  403fac:	e6b8      	b.n	403d20 <_dtoa_r+0x178>
  403fae:	f1c7 0301 	rsb	r3, r7, #1
  403fb2:	9308      	str	r3, [sp, #32]
  403fb4:	2300      	movs	r3, #0
  403fb6:	9306      	str	r3, [sp, #24]
  403fb8:	e6a7      	b.n	403d0a <_dtoa_r+0x162>
  403fba:	9d02      	ldr	r5, [sp, #8]
  403fbc:	4628      	mov	r0, r5
  403fbe:	f7fd fe83 	bl	401cc8 <__aeabi_i2d>
  403fc2:	4602      	mov	r2, r0
  403fc4:	460b      	mov	r3, r1
  403fc6:	e9dd 0104 	ldrd	r0, r1, [sp, #16]
  403fca:	f002 f951 	bl	406270 <__aeabi_dcmpeq>
  403fce:	2800      	cmp	r0, #0
  403fd0:	f47f ae80 	bne.w	403cd4 <_dtoa_r+0x12c>
  403fd4:	1e6b      	subs	r3, r5, #1
  403fd6:	9302      	str	r3, [sp, #8]
  403fd8:	e67c      	b.n	403cd4 <_dtoa_r+0x12c>
  403fda:	9f0c      	ldr	r7, [sp, #48]	; 0x30
  403fdc:	9d08      	ldr	r5, [sp, #32]
  403fde:	9e0b      	ldr	r6, [sp, #44]	; 0x2c
  403fe0:	2d00      	cmp	r5, #0
  403fe2:	dd0c      	ble.n	403ffe <_dtoa_r+0x456>
  403fe4:	9906      	ldr	r1, [sp, #24]
  403fe6:	2900      	cmp	r1, #0
  403fe8:	460b      	mov	r3, r1
  403fea:	dd08      	ble.n	403ffe <_dtoa_r+0x456>
  403fec:	42a9      	cmp	r1, r5
  403fee:	9a08      	ldr	r2, [sp, #32]
  403ff0:	bfa8      	it	ge
  403ff2:	462b      	movge	r3, r5
  403ff4:	1ad2      	subs	r2, r2, r3
  403ff6:	1aed      	subs	r5, r5, r3
  403ff8:	1acb      	subs	r3, r1, r3
  403ffa:	9208      	str	r2, [sp, #32]
  403ffc:	9306      	str	r3, [sp, #24]
  403ffe:	9b0c      	ldr	r3, [sp, #48]	; 0x30
  404000:	b1d3      	cbz	r3, 404038 <_dtoa_r+0x490>
  404002:	9b0b      	ldr	r3, [sp, #44]	; 0x2c
  404004:	2b00      	cmp	r3, #0
  404006:	f000 82b7 	beq.w	404578 <_dtoa_r+0x9d0>
  40400a:	2f00      	cmp	r7, #0
  40400c:	dd10      	ble.n	404030 <_dtoa_r+0x488>
  40400e:	4631      	mov	r1, r6
  404010:	463a      	mov	r2, r7
  404012:	4620      	mov	r0, r4
  404014:	f001 fa26 	bl	405464 <__pow5mult>
  404018:	464a      	mov	r2, r9
  40401a:	4601      	mov	r1, r0
  40401c:	4606      	mov	r6, r0
  40401e:	4620      	mov	r0, r4
  404020:	f001 f98e 	bl	405340 <__multiply>
  404024:	4649      	mov	r1, r9
  404026:	4680      	mov	r8, r0
  404028:	4620      	mov	r0, r4
  40402a:	f001 f8e5 	bl	4051f8 <_Bfree>
  40402e:	46c1      	mov	r9, r8
  404030:	9b0c      	ldr	r3, [sp, #48]	; 0x30
  404032:	1bda      	subs	r2, r3, r7
  404034:	f040 82a1 	bne.w	40457a <_dtoa_r+0x9d2>
  404038:	2101      	movs	r1, #1
  40403a:	4620      	mov	r0, r4
  40403c:	f001 f976 	bl	40532c <__i2b>
  404040:	9b0d      	ldr	r3, [sp, #52]	; 0x34
  404042:	2b00      	cmp	r3, #0
  404044:	4680      	mov	r8, r0
  404046:	dd1c      	ble.n	404082 <_dtoa_r+0x4da>
  404048:	4601      	mov	r1, r0
  40404a:	461a      	mov	r2, r3
  40404c:	4620      	mov	r0, r4
  40404e:	f001 fa09 	bl	405464 <__pow5mult>
  404052:	9b24      	ldr	r3, [sp, #144]	; 0x90
  404054:	2b01      	cmp	r3, #1
  404056:	4680      	mov	r8, r0
  404058:	f340 8254 	ble.w	404504 <_dtoa_r+0x95c>
  40405c:	2300      	movs	r3, #0
  40405e:	930c      	str	r3, [sp, #48]	; 0x30
  404060:	f8d8 3010 	ldr.w	r3, [r8, #16]
  404064:	eb08 0383 	add.w	r3, r8, r3, lsl #2
  404068:	6918      	ldr	r0, [r3, #16]
  40406a:	f001 f90f 	bl	40528c <__hi0bits>
  40406e:	f1c0 0020 	rsb	r0, r0, #32
  404072:	e010      	b.n	404096 <_dtoa_r+0x4ee>
  404074:	f1c3 0520 	rsb	r5, r3, #32
  404078:	fa0a f005 	lsl.w	r0, sl, r5
  40407c:	e674      	b.n	403d68 <_dtoa_r+0x1c0>
  40407e:	900e      	str	r0, [sp, #56]	; 0x38
  404080:	e63c      	b.n	403cfc <_dtoa_r+0x154>
  404082:	9b24      	ldr	r3, [sp, #144]	; 0x90
  404084:	2b01      	cmp	r3, #1
  404086:	f340 8287 	ble.w	404598 <_dtoa_r+0x9f0>
  40408a:	2300      	movs	r3, #0
  40408c:	930c      	str	r3, [sp, #48]	; 0x30
  40408e:	9b0d      	ldr	r3, [sp, #52]	; 0x34
  404090:	2001      	movs	r0, #1
  404092:	2b00      	cmp	r3, #0
  404094:	d1e4      	bne.n	404060 <_dtoa_r+0x4b8>
  404096:	9a06      	ldr	r2, [sp, #24]
  404098:	4410      	add	r0, r2
  40409a:	f010 001f 	ands.w	r0, r0, #31
  40409e:	f000 80a1 	beq.w	4041e4 <_dtoa_r+0x63c>
  4040a2:	f1c0 0320 	rsb	r3, r0, #32
  4040a6:	2b04      	cmp	r3, #4
  4040a8:	f340 849e 	ble.w	4049e8 <_dtoa_r+0xe40>
  4040ac:	9b08      	ldr	r3, [sp, #32]
  4040ae:	f1c0 001c 	rsb	r0, r0, #28
  4040b2:	4403      	add	r3, r0
  4040b4:	9308      	str	r3, [sp, #32]
  4040b6:	4613      	mov	r3, r2
  4040b8:	4403      	add	r3, r0
  4040ba:	4405      	add	r5, r0
  4040bc:	9306      	str	r3, [sp, #24]
  4040be:	9b08      	ldr	r3, [sp, #32]
  4040c0:	2b00      	cmp	r3, #0
  4040c2:	dd05      	ble.n	4040d0 <_dtoa_r+0x528>
  4040c4:	4649      	mov	r1, r9
  4040c6:	461a      	mov	r2, r3
  4040c8:	4620      	mov	r0, r4
  4040ca:	f001 fa1b 	bl	405504 <__lshift>
  4040ce:	4681      	mov	r9, r0
  4040d0:	9b06      	ldr	r3, [sp, #24]
  4040d2:	2b00      	cmp	r3, #0
  4040d4:	dd05      	ble.n	4040e2 <_dtoa_r+0x53a>
  4040d6:	4641      	mov	r1, r8
  4040d8:	461a      	mov	r2, r3
  4040da:	4620      	mov	r0, r4
  4040dc:	f001 fa12 	bl	405504 <__lshift>
  4040e0:	4680      	mov	r8, r0
  4040e2:	9b0e      	ldr	r3, [sp, #56]	; 0x38
  4040e4:	2b00      	cmp	r3, #0
  4040e6:	f040 8086 	bne.w	4041f6 <_dtoa_r+0x64e>
  4040ea:	9b0a      	ldr	r3, [sp, #40]	; 0x28
  4040ec:	2b00      	cmp	r3, #0
  4040ee:	f340 8266 	ble.w	4045be <_dtoa_r+0xa16>
  4040f2:	9b0b      	ldr	r3, [sp, #44]	; 0x2c
  4040f4:	2b00      	cmp	r3, #0
  4040f6:	f000 8098 	beq.w	40422a <_dtoa_r+0x682>
  4040fa:	2d00      	cmp	r5, #0
  4040fc:	dd05      	ble.n	40410a <_dtoa_r+0x562>
  4040fe:	4631      	mov	r1, r6
  404100:	462a      	mov	r2, r5
  404102:	4620      	mov	r0, r4
  404104:	f001 f9fe 	bl	405504 <__lshift>
  404108:	4606      	mov	r6, r0
  40410a:	9b0c      	ldr	r3, [sp, #48]	; 0x30
  40410c:	2b00      	cmp	r3, #0
  40410e:	f040 8337 	bne.w	404780 <_dtoa_r+0xbd8>
  404112:	9606      	str	r6, [sp, #24]
  404114:	9b0a      	ldr	r3, [sp, #40]	; 0x28
  404116:	9a04      	ldr	r2, [sp, #16]
  404118:	f8dd b018 	ldr.w	fp, [sp, #24]
  40411c:	3b01      	subs	r3, #1
  40411e:	18d3      	adds	r3, r2, r3
  404120:	930b      	str	r3, [sp, #44]	; 0x2c
  404122:	f00a 0301 	and.w	r3, sl, #1
  404126:	930c      	str	r3, [sp, #48]	; 0x30
  404128:	4617      	mov	r7, r2
  40412a:	46c2      	mov	sl, r8
  40412c:	4651      	mov	r1, sl
  40412e:	4648      	mov	r0, r9
  404130:	f7ff fca4 	bl	403a7c <quorem>
  404134:	4631      	mov	r1, r6
  404136:	4605      	mov	r5, r0
  404138:	4648      	mov	r0, r9
  40413a:	f001 fa35 	bl	4055a8 <__mcmp>
  40413e:	465a      	mov	r2, fp
  404140:	900a      	str	r0, [sp, #40]	; 0x28
  404142:	4651      	mov	r1, sl
  404144:	4620      	mov	r0, r4
  404146:	f001 fa4b 	bl	4055e0 <__mdiff>
  40414a:	68c2      	ldr	r2, [r0, #12]
  40414c:	4680      	mov	r8, r0
  40414e:	f105 0330 	add.w	r3, r5, #48	; 0x30
  404152:	2a00      	cmp	r2, #0
  404154:	f040 822b 	bne.w	4045ae <_dtoa_r+0xa06>
  404158:	4601      	mov	r1, r0
  40415a:	4648      	mov	r0, r9
  40415c:	9308      	str	r3, [sp, #32]
  40415e:	f001 fa23 	bl	4055a8 <__mcmp>
  404162:	4641      	mov	r1, r8
  404164:	9006      	str	r0, [sp, #24]
  404166:	4620      	mov	r0, r4
  404168:	f001 f846 	bl	4051f8 <_Bfree>
  40416c:	9a06      	ldr	r2, [sp, #24]
  40416e:	9b08      	ldr	r3, [sp, #32]
  404170:	b932      	cbnz	r2, 404180 <_dtoa_r+0x5d8>
  404172:	9924      	ldr	r1, [sp, #144]	; 0x90
  404174:	b921      	cbnz	r1, 404180 <_dtoa_r+0x5d8>
  404176:	9a0c      	ldr	r2, [sp, #48]	; 0x30
  404178:	2a00      	cmp	r2, #0
  40417a:	f000 83ef 	beq.w	40495c <_dtoa_r+0xdb4>
  40417e:	9a24      	ldr	r2, [sp, #144]	; 0x90
  404180:	990a      	ldr	r1, [sp, #40]	; 0x28
  404182:	2900      	cmp	r1, #0
  404184:	f2c0 829f 	blt.w	4046c6 <_dtoa_r+0xb1e>
  404188:	d105      	bne.n	404196 <_dtoa_r+0x5ee>
  40418a:	9924      	ldr	r1, [sp, #144]	; 0x90
  40418c:	b919      	cbnz	r1, 404196 <_dtoa_r+0x5ee>
  40418e:	990c      	ldr	r1, [sp, #48]	; 0x30
  404190:	2900      	cmp	r1, #0
  404192:	f000 8298 	beq.w	4046c6 <_dtoa_r+0xb1e>
  404196:	2a00      	cmp	r2, #0
  404198:	f300 8306 	bgt.w	4047a8 <_dtoa_r+0xc00>
  40419c:	9a0b      	ldr	r2, [sp, #44]	; 0x2c
  40419e:	703b      	strb	r3, [r7, #0]
  4041a0:	f107 0801 	add.w	r8, r7, #1
  4041a4:	4297      	cmp	r7, r2
  4041a6:	4645      	mov	r5, r8
  4041a8:	f000 830c 	beq.w	4047c4 <_dtoa_r+0xc1c>
  4041ac:	4649      	mov	r1, r9
  4041ae:	2300      	movs	r3, #0
  4041b0:	220a      	movs	r2, #10
  4041b2:	4620      	mov	r0, r4
  4041b4:	f001 f82a 	bl	40520c <__multadd>
  4041b8:	455e      	cmp	r6, fp
  4041ba:	4681      	mov	r9, r0
  4041bc:	4631      	mov	r1, r6
  4041be:	f04f 0300 	mov.w	r3, #0
  4041c2:	f04f 020a 	mov.w	r2, #10
  4041c6:	4620      	mov	r0, r4
  4041c8:	f000 81eb 	beq.w	4045a2 <_dtoa_r+0x9fa>
  4041cc:	f001 f81e 	bl	40520c <__multadd>
  4041d0:	4659      	mov	r1, fp
  4041d2:	4606      	mov	r6, r0
  4041d4:	2300      	movs	r3, #0
  4041d6:	220a      	movs	r2, #10
  4041d8:	4620      	mov	r0, r4
  4041da:	f001 f817 	bl	40520c <__multadd>
  4041de:	4647      	mov	r7, r8
  4041e0:	4683      	mov	fp, r0
  4041e2:	e7a3      	b.n	40412c <_dtoa_r+0x584>
  4041e4:	201c      	movs	r0, #28
  4041e6:	9b08      	ldr	r3, [sp, #32]
  4041e8:	4403      	add	r3, r0
  4041ea:	9308      	str	r3, [sp, #32]
  4041ec:	9b06      	ldr	r3, [sp, #24]
  4041ee:	4403      	add	r3, r0
  4041f0:	4405      	add	r5, r0
  4041f2:	9306      	str	r3, [sp, #24]
  4041f4:	e763      	b.n	4040be <_dtoa_r+0x516>
  4041f6:	4641      	mov	r1, r8
  4041f8:	4648      	mov	r0, r9
  4041fa:	f001 f9d5 	bl	4055a8 <__mcmp>
  4041fe:	2800      	cmp	r0, #0
  404200:	f6bf af73 	bge.w	4040ea <_dtoa_r+0x542>
  404204:	9f02      	ldr	r7, [sp, #8]
  404206:	4649      	mov	r1, r9
  404208:	2300      	movs	r3, #0
  40420a:	220a      	movs	r2, #10
  40420c:	4620      	mov	r0, r4
  40420e:	3f01      	subs	r7, #1
  404210:	9702      	str	r7, [sp, #8]
  404212:	f000 fffb 	bl	40520c <__multadd>
  404216:	9b0b      	ldr	r3, [sp, #44]	; 0x2c
  404218:	4681      	mov	r9, r0
  40421a:	2b00      	cmp	r3, #0
  40421c:	f040 83b6 	bne.w	40498c <_dtoa_r+0xde4>
  404220:	9b0f      	ldr	r3, [sp, #60]	; 0x3c
  404222:	2b00      	cmp	r3, #0
  404224:	f340 83bf 	ble.w	4049a6 <_dtoa_r+0xdfe>
  404228:	930a      	str	r3, [sp, #40]	; 0x28
  40422a:	f8dd b010 	ldr.w	fp, [sp, #16]
  40422e:	9f0a      	ldr	r7, [sp, #40]	; 0x28
  404230:	465d      	mov	r5, fp
  404232:	e002      	b.n	40423a <_dtoa_r+0x692>
  404234:	f000 ffea 	bl	40520c <__multadd>
  404238:	4681      	mov	r9, r0
  40423a:	4641      	mov	r1, r8
  40423c:	4648      	mov	r0, r9
  40423e:	f7ff fc1d 	bl	403a7c <quorem>
  404242:	f100 0a30 	add.w	sl, r0, #48	; 0x30
  404246:	f805 ab01 	strb.w	sl, [r5], #1
  40424a:	eba5 030b 	sub.w	r3, r5, fp
  40424e:	42bb      	cmp	r3, r7
  404250:	f04f 020a 	mov.w	r2, #10
  404254:	f04f 0300 	mov.w	r3, #0
  404258:	4649      	mov	r1, r9
  40425a:	4620      	mov	r0, r4
  40425c:	dbea      	blt.n	404234 <_dtoa_r+0x68c>
  40425e:	9b04      	ldr	r3, [sp, #16]
  404260:	9a0a      	ldr	r2, [sp, #40]	; 0x28
  404262:	2a01      	cmp	r2, #1
  404264:	bfac      	ite	ge
  404266:	189b      	addge	r3, r3, r2
  404268:	3301      	addlt	r3, #1
  40426a:	461d      	mov	r5, r3
  40426c:	f04f 0b00 	mov.w	fp, #0
  404270:	4649      	mov	r1, r9
  404272:	2201      	movs	r2, #1
  404274:	4620      	mov	r0, r4
  404276:	f001 f945 	bl	405504 <__lshift>
  40427a:	4641      	mov	r1, r8
  40427c:	4681      	mov	r9, r0
  40427e:	f001 f993 	bl	4055a8 <__mcmp>
  404282:	2800      	cmp	r0, #0
  404284:	f340 823d 	ble.w	404702 <_dtoa_r+0xb5a>
  404288:	f815 2c01 	ldrb.w	r2, [r5, #-1]
  40428c:	9904      	ldr	r1, [sp, #16]
  40428e:	1e6b      	subs	r3, r5, #1
  404290:	e004      	b.n	40429c <_dtoa_r+0x6f4>
  404292:	428b      	cmp	r3, r1
  404294:	f000 81ae 	beq.w	4045f4 <_dtoa_r+0xa4c>
  404298:	f813 2d01 	ldrb.w	r2, [r3, #-1]!
  40429c:	2a39      	cmp	r2, #57	; 0x39
  40429e:	f103 0501 	add.w	r5, r3, #1
  4042a2:	d0f6      	beq.n	404292 <_dtoa_r+0x6ea>
  4042a4:	3201      	adds	r2, #1
  4042a6:	701a      	strb	r2, [r3, #0]
  4042a8:	4641      	mov	r1, r8
  4042aa:	4620      	mov	r0, r4
  4042ac:	f000 ffa4 	bl	4051f8 <_Bfree>
  4042b0:	2e00      	cmp	r6, #0
  4042b2:	f43f ae3d 	beq.w	403f30 <_dtoa_r+0x388>
  4042b6:	f1bb 0f00 	cmp.w	fp, #0
  4042ba:	d005      	beq.n	4042c8 <_dtoa_r+0x720>
  4042bc:	45b3      	cmp	fp, r6
  4042be:	d003      	beq.n	4042c8 <_dtoa_r+0x720>
  4042c0:	4659      	mov	r1, fp
  4042c2:	4620      	mov	r0, r4
  4042c4:	f000 ff98 	bl	4051f8 <_Bfree>
  4042c8:	4631      	mov	r1, r6
  4042ca:	4620      	mov	r0, r4
  4042cc:	f000 ff94 	bl	4051f8 <_Bfree>
  4042d0:	e62e      	b.n	403f30 <_dtoa_r+0x388>
  4042d2:	2300      	movs	r3, #0
  4042d4:	930b      	str	r3, [sp, #44]	; 0x2c
  4042d6:	9b02      	ldr	r3, [sp, #8]
  4042d8:	9a25      	ldr	r2, [sp, #148]	; 0x94
  4042da:	4413      	add	r3, r2
  4042dc:	930f      	str	r3, [sp, #60]	; 0x3c
  4042de:	3301      	adds	r3, #1
  4042e0:	2b01      	cmp	r3, #1
  4042e2:	461f      	mov	r7, r3
  4042e4:	461e      	mov	r6, r3
  4042e6:	930a      	str	r3, [sp, #40]	; 0x28
  4042e8:	bfb8      	it	lt
  4042ea:	2701      	movlt	r7, #1
  4042ec:	2100      	movs	r1, #0
  4042ee:	2f17      	cmp	r7, #23
  4042f0:	6461      	str	r1, [r4, #68]	; 0x44
  4042f2:	d90a      	bls.n	40430a <_dtoa_r+0x762>
  4042f4:	2201      	movs	r2, #1
  4042f6:	2304      	movs	r3, #4
  4042f8:	005b      	lsls	r3, r3, #1
  4042fa:	f103 0014 	add.w	r0, r3, #20
  4042fe:	4287      	cmp	r7, r0
  404300:	4611      	mov	r1, r2
  404302:	f102 0201 	add.w	r2, r2, #1
  404306:	d2f7      	bcs.n	4042f8 <_dtoa_r+0x750>
  404308:	6461      	str	r1, [r4, #68]	; 0x44
  40430a:	4620      	mov	r0, r4
  40430c:	f000 ff4e 	bl	4051ac <_Balloc>
  404310:	2e0e      	cmp	r6, #14
  404312:	9004      	str	r0, [sp, #16]
  404314:	6420      	str	r0, [r4, #64]	; 0x40
  404316:	f63f ad41 	bhi.w	403d9c <_dtoa_r+0x1f4>
  40431a:	2d00      	cmp	r5, #0
  40431c:	f43f ad3e 	beq.w	403d9c <_dtoa_r+0x1f4>
  404320:	9902      	ldr	r1, [sp, #8]
  404322:	2900      	cmp	r1, #0
  404324:	e9cd ab10 	strd	sl, fp, [sp, #64]	; 0x40
  404328:	f340 8202 	ble.w	404730 <_dtoa_r+0xb88>
  40432c:	4bb8      	ldr	r3, [pc, #736]	; (404610 <_dtoa_r+0xa68>)
  40432e:	f001 020f 	and.w	r2, r1, #15
  404332:	110d      	asrs	r5, r1, #4
  404334:	eb03 03c2 	add.w	r3, r3, r2, lsl #3
  404338:	06e9      	lsls	r1, r5, #27
  40433a:	e9d3 6700 	ldrd	r6, r7, [r3]
  40433e:	f140 81ae 	bpl.w	40469e <_dtoa_r+0xaf6>
  404342:	4bb4      	ldr	r3, [pc, #720]	; (404614 <_dtoa_r+0xa6c>)
  404344:	4650      	mov	r0, sl
  404346:	4659      	mov	r1, fp
  404348:	e9d3 2308 	ldrd	r2, r3, [r3, #32]
  40434c:	f7fd fe4c 	bl	401fe8 <__aeabi_ddiv>
  404350:	e9cd 0112 	strd	r0, r1, [sp, #72]	; 0x48
  404354:	f005 050f 	and.w	r5, r5, #15
  404358:	f04f 0a03 	mov.w	sl, #3
  40435c:	b18d      	cbz	r5, 404382 <_dtoa_r+0x7da>
  40435e:	f8df 82b4 	ldr.w	r8, [pc, #692]	; 404614 <_dtoa_r+0xa6c>
  404362:	07ea      	lsls	r2, r5, #31
  404364:	d509      	bpl.n	40437a <_dtoa_r+0x7d2>
  404366:	4630      	mov	r0, r6
  404368:	4639      	mov	r1, r7
  40436a:	e9d8 2300 	ldrd	r2, r3, [r8]
  40436e:	f7fd fd11 	bl	401d94 <__aeabi_dmul>
  404372:	f10a 0a01 	add.w	sl, sl, #1
  404376:	4606      	mov	r6, r0
  404378:	460f      	mov	r7, r1
  40437a:	106d      	asrs	r5, r5, #1
  40437c:	f108 0808 	add.w	r8, r8, #8
  404380:	d1ef      	bne.n	404362 <_dtoa_r+0x7ba>
  404382:	463b      	mov	r3, r7
  404384:	4632      	mov	r2, r6
  404386:	e9dd 0112 	ldrd	r0, r1, [sp, #72]	; 0x48
  40438a:	f7fd fe2d 	bl	401fe8 <__aeabi_ddiv>
  40438e:	4607      	mov	r7, r0
  404390:	4688      	mov	r8, r1
  404392:	9b0e      	ldr	r3, [sp, #56]	; 0x38
  404394:	b143      	cbz	r3, 4043a8 <_dtoa_r+0x800>
  404396:	2200      	movs	r2, #0
  404398:	4b9f      	ldr	r3, [pc, #636]	; (404618 <_dtoa_r+0xa70>)
  40439a:	4638      	mov	r0, r7
  40439c:	4641      	mov	r1, r8
  40439e:	f001 ff71 	bl	406284 <__aeabi_dcmplt>
  4043a2:	2800      	cmp	r0, #0
  4043a4:	f040 8286 	bne.w	4048b4 <_dtoa_r+0xd0c>
  4043a8:	4650      	mov	r0, sl
  4043aa:	f7fd fc8d 	bl	401cc8 <__aeabi_i2d>
  4043ae:	463a      	mov	r2, r7
  4043b0:	4643      	mov	r3, r8
  4043b2:	f7fd fcef 	bl	401d94 <__aeabi_dmul>
  4043b6:	4b99      	ldr	r3, [pc, #612]	; (40461c <_dtoa_r+0xa74>)
  4043b8:	2200      	movs	r2, #0
  4043ba:	f7fd fb39 	bl	401a30 <__adddf3>
  4043be:	9b0a      	ldr	r3, [sp, #40]	; 0x28
  4043c0:	4605      	mov	r5, r0
  4043c2:	f1a1 7650 	sub.w	r6, r1, #54525952	; 0x3400000
  4043c6:	2b00      	cmp	r3, #0
  4043c8:	f000 813e 	beq.w	404648 <_dtoa_r+0xaa0>
  4043cc:	9b02      	ldr	r3, [sp, #8]
  4043ce:	9315      	str	r3, [sp, #84]	; 0x54
  4043d0:	9b0a      	ldr	r3, [sp, #40]	; 0x28
  4043d2:	9312      	str	r3, [sp, #72]	; 0x48
  4043d4:	9b0b      	ldr	r3, [sp, #44]	; 0x2c
  4043d6:	2b00      	cmp	r3, #0
  4043d8:	f000 81fa 	beq.w	4047d0 <_dtoa_r+0xc28>
  4043dc:	9a12      	ldr	r2, [sp, #72]	; 0x48
  4043de:	4b8c      	ldr	r3, [pc, #560]	; (404610 <_dtoa_r+0xa68>)
  4043e0:	498f      	ldr	r1, [pc, #572]	; (404620 <_dtoa_r+0xa78>)
  4043e2:	eb03 03c2 	add.w	r3, r3, r2, lsl #3
  4043e6:	e953 2302 	ldrd	r2, r3, [r3, #-8]
  4043ea:	2000      	movs	r0, #0
  4043ec:	f7fd fdfc 	bl	401fe8 <__aeabi_ddiv>
  4043f0:	462a      	mov	r2, r5
  4043f2:	4633      	mov	r3, r6
  4043f4:	f7fd fb1a 	bl	401a2c <__aeabi_dsub>
  4043f8:	4682      	mov	sl, r0
  4043fa:	468b      	mov	fp, r1
  4043fc:	4638      	mov	r0, r7
  4043fe:	4641      	mov	r1, r8
  404400:	f001 ff7e 	bl	406300 <__aeabi_d2iz>
  404404:	4605      	mov	r5, r0
  404406:	f7fd fc5f 	bl	401cc8 <__aeabi_i2d>
  40440a:	4602      	mov	r2, r0
  40440c:	460b      	mov	r3, r1
  40440e:	4638      	mov	r0, r7
  404410:	4641      	mov	r1, r8
  404412:	f7fd fb0b 	bl	401a2c <__aeabi_dsub>
  404416:	3530      	adds	r5, #48	; 0x30
  404418:	fa5f f885 	uxtb.w	r8, r5
  40441c:	9d04      	ldr	r5, [sp, #16]
  40441e:	4606      	mov	r6, r0
  404420:	460f      	mov	r7, r1
  404422:	f885 8000 	strb.w	r8, [r5]
  404426:	4602      	mov	r2, r0
  404428:	460b      	mov	r3, r1
  40442a:	4650      	mov	r0, sl
  40442c:	4659      	mov	r1, fp
  40442e:	3501      	adds	r5, #1
  404430:	f001 ff46 	bl	4062c0 <__aeabi_dcmpgt>
  404434:	2800      	cmp	r0, #0
  404436:	d154      	bne.n	4044e2 <_dtoa_r+0x93a>
  404438:	4632      	mov	r2, r6
  40443a:	463b      	mov	r3, r7
  40443c:	2000      	movs	r0, #0
  40443e:	4976      	ldr	r1, [pc, #472]	; (404618 <_dtoa_r+0xa70>)
  404440:	f7fd faf4 	bl	401a2c <__aeabi_dsub>
  404444:	4602      	mov	r2, r0
  404446:	460b      	mov	r3, r1
  404448:	4650      	mov	r0, sl
  40444a:	4659      	mov	r1, fp
  40444c:	f001 ff38 	bl	4062c0 <__aeabi_dcmpgt>
  404450:	2800      	cmp	r0, #0
  404452:	f040 8270 	bne.w	404936 <_dtoa_r+0xd8e>
  404456:	9a12      	ldr	r2, [sp, #72]	; 0x48
  404458:	2a01      	cmp	r2, #1
  40445a:	f000 8111 	beq.w	404680 <_dtoa_r+0xad8>
  40445e:	9b12      	ldr	r3, [sp, #72]	; 0x48
  404460:	9a04      	ldr	r2, [sp, #16]
  404462:	f8cd 9048 	str.w	r9, [sp, #72]	; 0x48
  404466:	4413      	add	r3, r2
  404468:	4699      	mov	r9, r3
  40446a:	e00d      	b.n	404488 <_dtoa_r+0x8e0>
  40446c:	2000      	movs	r0, #0
  40446e:	496a      	ldr	r1, [pc, #424]	; (404618 <_dtoa_r+0xa70>)
  404470:	f7fd fadc 	bl	401a2c <__aeabi_dsub>
  404474:	4652      	mov	r2, sl
  404476:	465b      	mov	r3, fp
  404478:	f001 ff04 	bl	406284 <__aeabi_dcmplt>
  40447c:	2800      	cmp	r0, #0
  40447e:	f040 8258 	bne.w	404932 <_dtoa_r+0xd8a>
  404482:	454d      	cmp	r5, r9
  404484:	f000 80fa 	beq.w	40467c <_dtoa_r+0xad4>
  404488:	4650      	mov	r0, sl
  40448a:	4659      	mov	r1, fp
  40448c:	2200      	movs	r2, #0
  40448e:	4b65      	ldr	r3, [pc, #404]	; (404624 <_dtoa_r+0xa7c>)
  404490:	f7fd fc80 	bl	401d94 <__aeabi_dmul>
  404494:	2200      	movs	r2, #0
  404496:	4b63      	ldr	r3, [pc, #396]	; (404624 <_dtoa_r+0xa7c>)
  404498:	4682      	mov	sl, r0
  40449a:	468b      	mov	fp, r1
  40449c:	4630      	mov	r0, r6
  40449e:	4639      	mov	r1, r7
  4044a0:	f7fd fc78 	bl	401d94 <__aeabi_dmul>
  4044a4:	460f      	mov	r7, r1
  4044a6:	4606      	mov	r6, r0
  4044a8:	f001 ff2a 	bl	406300 <__aeabi_d2iz>
  4044ac:	4680      	mov	r8, r0
  4044ae:	f7fd fc0b 	bl	401cc8 <__aeabi_i2d>
  4044b2:	4602      	mov	r2, r0
  4044b4:	460b      	mov	r3, r1
  4044b6:	4630      	mov	r0, r6
  4044b8:	4639      	mov	r1, r7
  4044ba:	f7fd fab7 	bl	401a2c <__aeabi_dsub>
  4044be:	f108 0830 	add.w	r8, r8, #48	; 0x30
  4044c2:	fa5f f888 	uxtb.w	r8, r8
  4044c6:	4652      	mov	r2, sl
  4044c8:	465b      	mov	r3, fp
  4044ca:	f805 8b01 	strb.w	r8, [r5], #1
  4044ce:	4606      	mov	r6, r0
  4044d0:	460f      	mov	r7, r1
  4044d2:	f001 fed7 	bl	406284 <__aeabi_dcmplt>
  4044d6:	4632      	mov	r2, r6
  4044d8:	463b      	mov	r3, r7
  4044da:	2800      	cmp	r0, #0
  4044dc:	d0c6      	beq.n	40446c <_dtoa_r+0x8c4>
  4044de:	f8dd 9048 	ldr.w	r9, [sp, #72]	; 0x48
  4044e2:	9b15      	ldr	r3, [sp, #84]	; 0x54
  4044e4:	9302      	str	r3, [sp, #8]
  4044e6:	e523      	b.n	403f30 <_dtoa_r+0x388>
  4044e8:	2300      	movs	r3, #0
  4044ea:	930b      	str	r3, [sp, #44]	; 0x2c
  4044ec:	9b25      	ldr	r3, [sp, #148]	; 0x94
  4044ee:	2b00      	cmp	r3, #0
  4044f0:	f340 80dc 	ble.w	4046ac <_dtoa_r+0xb04>
  4044f4:	461f      	mov	r7, r3
  4044f6:	461e      	mov	r6, r3
  4044f8:	930f      	str	r3, [sp, #60]	; 0x3c
  4044fa:	930a      	str	r3, [sp, #40]	; 0x28
  4044fc:	e6f6      	b.n	4042ec <_dtoa_r+0x744>
  4044fe:	2301      	movs	r3, #1
  404500:	930b      	str	r3, [sp, #44]	; 0x2c
  404502:	e7f3      	b.n	4044ec <_dtoa_r+0x944>
  404504:	f1ba 0f00 	cmp.w	sl, #0
  404508:	f47f ada8 	bne.w	40405c <_dtoa_r+0x4b4>
  40450c:	f3cb 0313 	ubfx	r3, fp, #0, #20
  404510:	2b00      	cmp	r3, #0
  404512:	f47f adba 	bne.w	40408a <_dtoa_r+0x4e2>
  404516:	f02b 4700 	bic.w	r7, fp, #2147483648	; 0x80000000
  40451a:	0d3f      	lsrs	r7, r7, #20
  40451c:	053f      	lsls	r7, r7, #20
  40451e:	2f00      	cmp	r7, #0
  404520:	f000 820d 	beq.w	40493e <_dtoa_r+0xd96>
  404524:	9b08      	ldr	r3, [sp, #32]
  404526:	3301      	adds	r3, #1
  404528:	9308      	str	r3, [sp, #32]
  40452a:	9b06      	ldr	r3, [sp, #24]
  40452c:	3301      	adds	r3, #1
  40452e:	9306      	str	r3, [sp, #24]
  404530:	2301      	movs	r3, #1
  404532:	930c      	str	r3, [sp, #48]	; 0x30
  404534:	e5ab      	b.n	40408e <_dtoa_r+0x4e6>
  404536:	9b0a      	ldr	r3, [sp, #40]	; 0x28
  404538:	2b00      	cmp	r3, #0
  40453a:	f73f ac42 	bgt.w	403dc2 <_dtoa_r+0x21a>
  40453e:	f040 8221 	bne.w	404984 <_dtoa_r+0xddc>
  404542:	2200      	movs	r2, #0
  404544:	4b38      	ldr	r3, [pc, #224]	; (404628 <_dtoa_r+0xa80>)
  404546:	e9dd 0108 	ldrd	r0, r1, [sp, #32]
  40454a:	f7fd fc23 	bl	401d94 <__aeabi_dmul>
  40454e:	4652      	mov	r2, sl
  404550:	465b      	mov	r3, fp
  404552:	f001 feab 	bl	4062ac <__aeabi_dcmpge>
  404556:	f8dd 8028 	ldr.w	r8, [sp, #40]	; 0x28
  40455a:	4646      	mov	r6, r8
  40455c:	2800      	cmp	r0, #0
  40455e:	d041      	beq.n	4045e4 <_dtoa_r+0xa3c>
  404560:	9b25      	ldr	r3, [sp, #148]	; 0x94
  404562:	9d04      	ldr	r5, [sp, #16]
  404564:	43db      	mvns	r3, r3
  404566:	9302      	str	r3, [sp, #8]
  404568:	4641      	mov	r1, r8
  40456a:	4620      	mov	r0, r4
  40456c:	f000 fe44 	bl	4051f8 <_Bfree>
  404570:	2e00      	cmp	r6, #0
  404572:	f43f acdd 	beq.w	403f30 <_dtoa_r+0x388>
  404576:	e6a7      	b.n	4042c8 <_dtoa_r+0x720>
  404578:	9a0c      	ldr	r2, [sp, #48]	; 0x30
  40457a:	4649      	mov	r1, r9
  40457c:	4620      	mov	r0, r4
  40457e:	f000 ff71 	bl	405464 <__pow5mult>
  404582:	4681      	mov	r9, r0
  404584:	e558      	b.n	404038 <_dtoa_r+0x490>
  404586:	9a14      	ldr	r2, [sp, #80]	; 0x50
  404588:	2a00      	cmp	r2, #0
  40458a:	f000 8187 	beq.w	40489c <_dtoa_r+0xcf4>
  40458e:	f203 4333 	addw	r3, r3, #1075	; 0x433
  404592:	9f0c      	ldr	r7, [sp, #48]	; 0x30
  404594:	9d08      	ldr	r5, [sp, #32]
  404596:	e4f2      	b.n	403f7e <_dtoa_r+0x3d6>
  404598:	f1ba 0f00 	cmp.w	sl, #0
  40459c:	f47f ad75 	bne.w	40408a <_dtoa_r+0x4e2>
  4045a0:	e7b4      	b.n	40450c <_dtoa_r+0x964>
  4045a2:	f000 fe33 	bl	40520c <__multadd>
  4045a6:	4647      	mov	r7, r8
  4045a8:	4606      	mov	r6, r0
  4045aa:	4683      	mov	fp, r0
  4045ac:	e5be      	b.n	40412c <_dtoa_r+0x584>
  4045ae:	4601      	mov	r1, r0
  4045b0:	4620      	mov	r0, r4
  4045b2:	9306      	str	r3, [sp, #24]
  4045b4:	f000 fe20 	bl	4051f8 <_Bfree>
  4045b8:	2201      	movs	r2, #1
  4045ba:	9b06      	ldr	r3, [sp, #24]
  4045bc:	e5e0      	b.n	404180 <_dtoa_r+0x5d8>
  4045be:	9b24      	ldr	r3, [sp, #144]	; 0x90
  4045c0:	2b02      	cmp	r3, #2
  4045c2:	f77f ad96 	ble.w	4040f2 <_dtoa_r+0x54a>
  4045c6:	9b0a      	ldr	r3, [sp, #40]	; 0x28
  4045c8:	2b00      	cmp	r3, #0
  4045ca:	d1c9      	bne.n	404560 <_dtoa_r+0x9b8>
  4045cc:	4641      	mov	r1, r8
  4045ce:	2205      	movs	r2, #5
  4045d0:	4620      	mov	r0, r4
  4045d2:	f000 fe1b 	bl	40520c <__multadd>
  4045d6:	4601      	mov	r1, r0
  4045d8:	4680      	mov	r8, r0
  4045da:	4648      	mov	r0, r9
  4045dc:	f000 ffe4 	bl	4055a8 <__mcmp>
  4045e0:	2800      	cmp	r0, #0
  4045e2:	ddbd      	ble.n	404560 <_dtoa_r+0x9b8>
  4045e4:	9a02      	ldr	r2, [sp, #8]
  4045e6:	9904      	ldr	r1, [sp, #16]
  4045e8:	2331      	movs	r3, #49	; 0x31
  4045ea:	3201      	adds	r2, #1
  4045ec:	9202      	str	r2, [sp, #8]
  4045ee:	700b      	strb	r3, [r1, #0]
  4045f0:	1c4d      	adds	r5, r1, #1
  4045f2:	e7b9      	b.n	404568 <_dtoa_r+0x9c0>
  4045f4:	9a02      	ldr	r2, [sp, #8]
  4045f6:	3201      	adds	r2, #1
  4045f8:	9202      	str	r2, [sp, #8]
  4045fa:	9a04      	ldr	r2, [sp, #16]
  4045fc:	2331      	movs	r3, #49	; 0x31
  4045fe:	7013      	strb	r3, [r2, #0]
  404600:	e652      	b.n	4042a8 <_dtoa_r+0x700>
  404602:	2301      	movs	r3, #1
  404604:	930b      	str	r3, [sp, #44]	; 0x2c
  404606:	e666      	b.n	4042d6 <_dtoa_r+0x72e>
  404608:	f8dd 902c 	ldr.w	r9, [sp, #44]	; 0x2c
  40460c:	9c0c      	ldr	r4, [sp, #48]	; 0x30
  40460e:	e48f      	b.n	403f30 <_dtoa_r+0x388>
  404610:	00406e48 	.word	0x00406e48
  404614:	00406e20 	.word	0x00406e20
  404618:	3ff00000 	.word	0x3ff00000
  40461c:	401c0000 	.word	0x401c0000
  404620:	3fe00000 	.word	0x3fe00000
  404624:	40240000 	.word	0x40240000
  404628:	40140000 	.word	0x40140000
  40462c:	4650      	mov	r0, sl
  40462e:	f7fd fb4b 	bl	401cc8 <__aeabi_i2d>
  404632:	463a      	mov	r2, r7
  404634:	4643      	mov	r3, r8
  404636:	f7fd fbad 	bl	401d94 <__aeabi_dmul>
  40463a:	2200      	movs	r2, #0
  40463c:	4bc1      	ldr	r3, [pc, #772]	; (404944 <_dtoa_r+0xd9c>)
  40463e:	f7fd f9f7 	bl	401a30 <__adddf3>
  404642:	4605      	mov	r5, r0
  404644:	f1a1 7650 	sub.w	r6, r1, #54525952	; 0x3400000
  404648:	4641      	mov	r1, r8
  40464a:	2200      	movs	r2, #0
  40464c:	4bbe      	ldr	r3, [pc, #760]	; (404948 <_dtoa_r+0xda0>)
  40464e:	4638      	mov	r0, r7
  404650:	f7fd f9ec 	bl	401a2c <__aeabi_dsub>
  404654:	462a      	mov	r2, r5
  404656:	4633      	mov	r3, r6
  404658:	4682      	mov	sl, r0
  40465a:	468b      	mov	fp, r1
  40465c:	f001 fe30 	bl	4062c0 <__aeabi_dcmpgt>
  404660:	4680      	mov	r8, r0
  404662:	2800      	cmp	r0, #0
  404664:	f040 8110 	bne.w	404888 <_dtoa_r+0xce0>
  404668:	462a      	mov	r2, r5
  40466a:	f106 4300 	add.w	r3, r6, #2147483648	; 0x80000000
  40466e:	4650      	mov	r0, sl
  404670:	4659      	mov	r1, fp
  404672:	f001 fe07 	bl	406284 <__aeabi_dcmplt>
  404676:	b118      	cbz	r0, 404680 <_dtoa_r+0xad8>
  404678:	4646      	mov	r6, r8
  40467a:	e771      	b.n	404560 <_dtoa_r+0x9b8>
  40467c:	f8dd 9048 	ldr.w	r9, [sp, #72]	; 0x48
  404680:	e9dd ab10 	ldrd	sl, fp, [sp, #64]	; 0x40
  404684:	f7ff bb8a 	b.w	403d9c <_dtoa_r+0x1f4>
  404688:	9804      	ldr	r0, [sp, #16]
  40468a:	f7ff babb 	b.w	403c04 <_dtoa_r+0x5c>
  40468e:	9b0c      	ldr	r3, [sp, #48]	; 0x30
  404690:	9a0d      	ldr	r2, [sp, #52]	; 0x34
  404692:	970c      	str	r7, [sp, #48]	; 0x30
  404694:	1afb      	subs	r3, r7, r3
  404696:	441a      	add	r2, r3
  404698:	920d      	str	r2, [sp, #52]	; 0x34
  40469a:	2700      	movs	r7, #0
  40469c:	e469      	b.n	403f72 <_dtoa_r+0x3ca>
  40469e:	e9dd 2310 	ldrd	r2, r3, [sp, #64]	; 0x40
  4046a2:	f04f 0a02 	mov.w	sl, #2
  4046a6:	e9cd 2312 	strd	r2, r3, [sp, #72]	; 0x48
  4046aa:	e657      	b.n	40435c <_dtoa_r+0x7b4>
  4046ac:	2100      	movs	r1, #0
  4046ae:	2301      	movs	r3, #1
  4046b0:	6461      	str	r1, [r4, #68]	; 0x44
  4046b2:	4620      	mov	r0, r4
  4046b4:	9325      	str	r3, [sp, #148]	; 0x94
  4046b6:	f000 fd79 	bl	4051ac <_Balloc>
  4046ba:	9b25      	ldr	r3, [sp, #148]	; 0x94
  4046bc:	9004      	str	r0, [sp, #16]
  4046be:	6420      	str	r0, [r4, #64]	; 0x40
  4046c0:	930a      	str	r3, [sp, #40]	; 0x28
  4046c2:	930f      	str	r3, [sp, #60]	; 0x3c
  4046c4:	e629      	b.n	40431a <_dtoa_r+0x772>
  4046c6:	2a00      	cmp	r2, #0
  4046c8:	46d0      	mov	r8, sl
  4046ca:	f8cd b018 	str.w	fp, [sp, #24]
  4046ce:	469a      	mov	sl, r3
  4046d0:	dd11      	ble.n	4046f6 <_dtoa_r+0xb4e>
  4046d2:	4649      	mov	r1, r9
  4046d4:	2201      	movs	r2, #1
  4046d6:	4620      	mov	r0, r4
  4046d8:	f000 ff14 	bl	405504 <__lshift>
  4046dc:	4641      	mov	r1, r8
  4046de:	4681      	mov	r9, r0
  4046e0:	f000 ff62 	bl	4055a8 <__mcmp>
  4046e4:	2800      	cmp	r0, #0
  4046e6:	f340 8146 	ble.w	404976 <_dtoa_r+0xdce>
  4046ea:	f1ba 0f39 	cmp.w	sl, #57	; 0x39
  4046ee:	f000 8106 	beq.w	4048fe <_dtoa_r+0xd56>
  4046f2:	f105 0a31 	add.w	sl, r5, #49	; 0x31
  4046f6:	46b3      	mov	fp, r6
  4046f8:	f887 a000 	strb.w	sl, [r7]
  4046fc:	1c7d      	adds	r5, r7, #1
  4046fe:	9e06      	ldr	r6, [sp, #24]
  404700:	e5d2      	b.n	4042a8 <_dtoa_r+0x700>
  404702:	d104      	bne.n	40470e <_dtoa_r+0xb66>
  404704:	f01a 0f01 	tst.w	sl, #1
  404708:	d001      	beq.n	40470e <_dtoa_r+0xb66>
  40470a:	e5bd      	b.n	404288 <_dtoa_r+0x6e0>
  40470c:	4615      	mov	r5, r2
  40470e:	f815 3c01 	ldrb.w	r3, [r5, #-1]
  404712:	2b30      	cmp	r3, #48	; 0x30
  404714:	f105 32ff 	add.w	r2, r5, #4294967295
  404718:	d0f8      	beq.n	40470c <_dtoa_r+0xb64>
  40471a:	e5c5      	b.n	4042a8 <_dtoa_r+0x700>
  40471c:	9904      	ldr	r1, [sp, #16]
  40471e:	2230      	movs	r2, #48	; 0x30
  404720:	700a      	strb	r2, [r1, #0]
  404722:	9a02      	ldr	r2, [sp, #8]
  404724:	f815 8c01 	ldrb.w	r8, [r5, #-1]
  404728:	3201      	adds	r2, #1
  40472a:	9202      	str	r2, [sp, #8]
  40472c:	f7ff bbfc 	b.w	403f28 <_dtoa_r+0x380>
  404730:	f000 80bb 	beq.w	4048aa <_dtoa_r+0xd02>
  404734:	9b02      	ldr	r3, [sp, #8]
  404736:	425d      	negs	r5, r3
  404738:	4b84      	ldr	r3, [pc, #528]	; (40494c <_dtoa_r+0xda4>)
  40473a:	f005 020f 	and.w	r2, r5, #15
  40473e:	eb03 03c2 	add.w	r3, r3, r2, lsl #3
  404742:	e9d3 2300 	ldrd	r2, r3, [r3]
  404746:	e9dd 0110 	ldrd	r0, r1, [sp, #64]	; 0x40
  40474a:	f7fd fb23 	bl	401d94 <__aeabi_dmul>
  40474e:	112d      	asrs	r5, r5, #4
  404750:	4607      	mov	r7, r0
  404752:	4688      	mov	r8, r1
  404754:	f000 812c 	beq.w	4049b0 <_dtoa_r+0xe08>
  404758:	4e7d      	ldr	r6, [pc, #500]	; (404950 <_dtoa_r+0xda8>)
  40475a:	f04f 0a02 	mov.w	sl, #2
  40475e:	07eb      	lsls	r3, r5, #31
  404760:	d509      	bpl.n	404776 <_dtoa_r+0xbce>
  404762:	4638      	mov	r0, r7
  404764:	4641      	mov	r1, r8
  404766:	e9d6 2300 	ldrd	r2, r3, [r6]
  40476a:	f7fd fb13 	bl	401d94 <__aeabi_dmul>
  40476e:	f10a 0a01 	add.w	sl, sl, #1
  404772:	4607      	mov	r7, r0
  404774:	4688      	mov	r8, r1
  404776:	106d      	asrs	r5, r5, #1
  404778:	f106 0608 	add.w	r6, r6, #8
  40477c:	d1ef      	bne.n	40475e <_dtoa_r+0xbb6>
  40477e:	e608      	b.n	404392 <_dtoa_r+0x7ea>
  404780:	6871      	ldr	r1, [r6, #4]
  404782:	4620      	mov	r0, r4
  404784:	f000 fd12 	bl	4051ac <_Balloc>
  404788:	6933      	ldr	r3, [r6, #16]
  40478a:	3302      	adds	r3, #2
  40478c:	009a      	lsls	r2, r3, #2
  40478e:	4605      	mov	r5, r0
  404790:	f106 010c 	add.w	r1, r6, #12
  404794:	300c      	adds	r0, #12
  404796:	f000 fc63 	bl	405060 <memcpy>
  40479a:	4629      	mov	r1, r5
  40479c:	2201      	movs	r2, #1
  40479e:	4620      	mov	r0, r4
  4047a0:	f000 feb0 	bl	405504 <__lshift>
  4047a4:	9006      	str	r0, [sp, #24]
  4047a6:	e4b5      	b.n	404114 <_dtoa_r+0x56c>
  4047a8:	2b39      	cmp	r3, #57	; 0x39
  4047aa:	f8cd b018 	str.w	fp, [sp, #24]
  4047ae:	46d0      	mov	r8, sl
  4047b0:	f000 80a5 	beq.w	4048fe <_dtoa_r+0xd56>
  4047b4:	f103 0a01 	add.w	sl, r3, #1
  4047b8:	46b3      	mov	fp, r6
  4047ba:	f887 a000 	strb.w	sl, [r7]
  4047be:	1c7d      	adds	r5, r7, #1
  4047c0:	9e06      	ldr	r6, [sp, #24]
  4047c2:	e571      	b.n	4042a8 <_dtoa_r+0x700>
  4047c4:	465a      	mov	r2, fp
  4047c6:	46d0      	mov	r8, sl
  4047c8:	46b3      	mov	fp, r6
  4047ca:	469a      	mov	sl, r3
  4047cc:	4616      	mov	r6, r2
  4047ce:	e54f      	b.n	404270 <_dtoa_r+0x6c8>
  4047d0:	9b12      	ldr	r3, [sp, #72]	; 0x48
  4047d2:	495e      	ldr	r1, [pc, #376]	; (40494c <_dtoa_r+0xda4>)
  4047d4:	eb01 01c3 	add.w	r1, r1, r3, lsl #3
  4047d8:	462a      	mov	r2, r5
  4047da:	4633      	mov	r3, r6
  4047dc:	e951 0102 	ldrd	r0, r1, [r1, #-8]
  4047e0:	f7fd fad8 	bl	401d94 <__aeabi_dmul>
  4047e4:	e9cd 0116 	strd	r0, r1, [sp, #88]	; 0x58
  4047e8:	4638      	mov	r0, r7
  4047ea:	4641      	mov	r1, r8
  4047ec:	f001 fd88 	bl	406300 <__aeabi_d2iz>
  4047f0:	4605      	mov	r5, r0
  4047f2:	f7fd fa69 	bl	401cc8 <__aeabi_i2d>
  4047f6:	460b      	mov	r3, r1
  4047f8:	4602      	mov	r2, r0
  4047fa:	4641      	mov	r1, r8
  4047fc:	4638      	mov	r0, r7
  4047fe:	f7fd f915 	bl	401a2c <__aeabi_dsub>
  404802:	9b12      	ldr	r3, [sp, #72]	; 0x48
  404804:	460f      	mov	r7, r1
  404806:	9904      	ldr	r1, [sp, #16]
  404808:	3530      	adds	r5, #48	; 0x30
  40480a:	2b01      	cmp	r3, #1
  40480c:	700d      	strb	r5, [r1, #0]
  40480e:	4606      	mov	r6, r0
  404810:	f101 0501 	add.w	r5, r1, #1
  404814:	d026      	beq.n	404864 <_dtoa_r+0xcbc>
  404816:	9b12      	ldr	r3, [sp, #72]	; 0x48
  404818:	9a04      	ldr	r2, [sp, #16]
  40481a:	f8df b13c 	ldr.w	fp, [pc, #316]	; 404958 <_dtoa_r+0xdb0>
  40481e:	f8cd 9048 	str.w	r9, [sp, #72]	; 0x48
  404822:	4413      	add	r3, r2
  404824:	f04f 0a00 	mov.w	sl, #0
  404828:	4699      	mov	r9, r3
  40482a:	4652      	mov	r2, sl
  40482c:	465b      	mov	r3, fp
  40482e:	4630      	mov	r0, r6
  404830:	4639      	mov	r1, r7
  404832:	f7fd faaf 	bl	401d94 <__aeabi_dmul>
  404836:	460f      	mov	r7, r1
  404838:	4606      	mov	r6, r0
  40483a:	f001 fd61 	bl	406300 <__aeabi_d2iz>
  40483e:	4680      	mov	r8, r0
  404840:	f7fd fa42 	bl	401cc8 <__aeabi_i2d>
  404844:	f108 0830 	add.w	r8, r8, #48	; 0x30
  404848:	4602      	mov	r2, r0
  40484a:	460b      	mov	r3, r1
  40484c:	4630      	mov	r0, r6
  40484e:	4639      	mov	r1, r7
  404850:	f7fd f8ec 	bl	401a2c <__aeabi_dsub>
  404854:	f805 8b01 	strb.w	r8, [r5], #1
  404858:	454d      	cmp	r5, r9
  40485a:	4606      	mov	r6, r0
  40485c:	460f      	mov	r7, r1
  40485e:	d1e4      	bne.n	40482a <_dtoa_r+0xc82>
  404860:	f8dd 9048 	ldr.w	r9, [sp, #72]	; 0x48
  404864:	4b3b      	ldr	r3, [pc, #236]	; (404954 <_dtoa_r+0xdac>)
  404866:	2200      	movs	r2, #0
  404868:	e9dd 0116 	ldrd	r0, r1, [sp, #88]	; 0x58
  40486c:	f7fd f8e0 	bl	401a30 <__adddf3>
  404870:	4632      	mov	r2, r6
  404872:	463b      	mov	r3, r7
  404874:	f001 fd06 	bl	406284 <__aeabi_dcmplt>
  404878:	2800      	cmp	r0, #0
  40487a:	d046      	beq.n	40490a <_dtoa_r+0xd62>
  40487c:	9b15      	ldr	r3, [sp, #84]	; 0x54
  40487e:	9302      	str	r3, [sp, #8]
  404880:	f815 8c01 	ldrb.w	r8, [r5, #-1]
  404884:	f7ff bb43 	b.w	403f0e <_dtoa_r+0x366>
  404888:	f04f 0800 	mov.w	r8, #0
  40488c:	4646      	mov	r6, r8
  40488e:	e6a9      	b.n	4045e4 <_dtoa_r+0xa3c>
  404890:	9b08      	ldr	r3, [sp, #32]
  404892:	9a0a      	ldr	r2, [sp, #40]	; 0x28
  404894:	1a9d      	subs	r5, r3, r2
  404896:	2300      	movs	r3, #0
  404898:	f7ff bb71 	b.w	403f7e <_dtoa_r+0x3d6>
  40489c:	9b18      	ldr	r3, [sp, #96]	; 0x60
  40489e:	9f0c      	ldr	r7, [sp, #48]	; 0x30
  4048a0:	9d08      	ldr	r5, [sp, #32]
  4048a2:	f1c3 0336 	rsb	r3, r3, #54	; 0x36
  4048a6:	f7ff bb6a 	b.w	403f7e <_dtoa_r+0x3d6>
  4048aa:	e9dd 7810 	ldrd	r7, r8, [sp, #64]	; 0x40
  4048ae:	f04f 0a02 	mov.w	sl, #2
  4048b2:	e56e      	b.n	404392 <_dtoa_r+0x7ea>
  4048b4:	9b0a      	ldr	r3, [sp, #40]	; 0x28
  4048b6:	2b00      	cmp	r3, #0
  4048b8:	f43f aeb8 	beq.w	40462c <_dtoa_r+0xa84>
  4048bc:	9b0f      	ldr	r3, [sp, #60]	; 0x3c
  4048be:	2b00      	cmp	r3, #0
  4048c0:	f77f aede 	ble.w	404680 <_dtoa_r+0xad8>
  4048c4:	2200      	movs	r2, #0
  4048c6:	4b24      	ldr	r3, [pc, #144]	; (404958 <_dtoa_r+0xdb0>)
  4048c8:	4638      	mov	r0, r7
  4048ca:	4641      	mov	r1, r8
  4048cc:	f7fd fa62 	bl	401d94 <__aeabi_dmul>
  4048d0:	4607      	mov	r7, r0
  4048d2:	4688      	mov	r8, r1
  4048d4:	f10a 0001 	add.w	r0, sl, #1
  4048d8:	f7fd f9f6 	bl	401cc8 <__aeabi_i2d>
  4048dc:	463a      	mov	r2, r7
  4048de:	4643      	mov	r3, r8
  4048e0:	f7fd fa58 	bl	401d94 <__aeabi_dmul>
  4048e4:	2200      	movs	r2, #0
  4048e6:	4b17      	ldr	r3, [pc, #92]	; (404944 <_dtoa_r+0xd9c>)
  4048e8:	f7fd f8a2 	bl	401a30 <__adddf3>
  4048ec:	9a02      	ldr	r2, [sp, #8]
  4048ee:	9b0f      	ldr	r3, [sp, #60]	; 0x3c
  4048f0:	9312      	str	r3, [sp, #72]	; 0x48
  4048f2:	3a01      	subs	r2, #1
  4048f4:	4605      	mov	r5, r0
  4048f6:	f1a1 7650 	sub.w	r6, r1, #54525952	; 0x3400000
  4048fa:	9215      	str	r2, [sp, #84]	; 0x54
  4048fc:	e56a      	b.n	4043d4 <_dtoa_r+0x82c>
  4048fe:	2239      	movs	r2, #57	; 0x39
  404900:	46b3      	mov	fp, r6
  404902:	703a      	strb	r2, [r7, #0]
  404904:	9e06      	ldr	r6, [sp, #24]
  404906:	1c7d      	adds	r5, r7, #1
  404908:	e4c0      	b.n	40428c <_dtoa_r+0x6e4>
  40490a:	e9dd 2316 	ldrd	r2, r3, [sp, #88]	; 0x58
  40490e:	2000      	movs	r0, #0
  404910:	4910      	ldr	r1, [pc, #64]	; (404954 <_dtoa_r+0xdac>)
  404912:	f7fd f88b 	bl	401a2c <__aeabi_dsub>
  404916:	4632      	mov	r2, r6
  404918:	463b      	mov	r3, r7
  40491a:	f001 fcd1 	bl	4062c0 <__aeabi_dcmpgt>
  40491e:	b908      	cbnz	r0, 404924 <_dtoa_r+0xd7c>
  404920:	e6ae      	b.n	404680 <_dtoa_r+0xad8>
  404922:	4615      	mov	r5, r2
  404924:	f815 3c01 	ldrb.w	r3, [r5, #-1]
  404928:	2b30      	cmp	r3, #48	; 0x30
  40492a:	f105 32ff 	add.w	r2, r5, #4294967295
  40492e:	d0f8      	beq.n	404922 <_dtoa_r+0xd7a>
  404930:	e5d7      	b.n	4044e2 <_dtoa_r+0x93a>
  404932:	f8dd 9048 	ldr.w	r9, [sp, #72]	; 0x48
  404936:	9b15      	ldr	r3, [sp, #84]	; 0x54
  404938:	9302      	str	r3, [sp, #8]
  40493a:	f7ff bae8 	b.w	403f0e <_dtoa_r+0x366>
  40493e:	970c      	str	r7, [sp, #48]	; 0x30
  404940:	f7ff bba5 	b.w	40408e <_dtoa_r+0x4e6>
  404944:	401c0000 	.word	0x401c0000
  404948:	40140000 	.word	0x40140000
  40494c:	00406e48 	.word	0x00406e48
  404950:	00406e20 	.word	0x00406e20
  404954:	3fe00000 	.word	0x3fe00000
  404958:	40240000 	.word	0x40240000
  40495c:	2b39      	cmp	r3, #57	; 0x39
  40495e:	f8cd b018 	str.w	fp, [sp, #24]
  404962:	46d0      	mov	r8, sl
  404964:	f8dd b028 	ldr.w	fp, [sp, #40]	; 0x28
  404968:	469a      	mov	sl, r3
  40496a:	d0c8      	beq.n	4048fe <_dtoa_r+0xd56>
  40496c:	f1bb 0f00 	cmp.w	fp, #0
  404970:	f73f aebf 	bgt.w	4046f2 <_dtoa_r+0xb4a>
  404974:	e6bf      	b.n	4046f6 <_dtoa_r+0xb4e>
  404976:	f47f aebe 	bne.w	4046f6 <_dtoa_r+0xb4e>
  40497a:	f01a 0f01 	tst.w	sl, #1
  40497e:	f43f aeba 	beq.w	4046f6 <_dtoa_r+0xb4e>
  404982:	e6b2      	b.n	4046ea <_dtoa_r+0xb42>
  404984:	f04f 0800 	mov.w	r8, #0
  404988:	4646      	mov	r6, r8
  40498a:	e5e9      	b.n	404560 <_dtoa_r+0x9b8>
  40498c:	4631      	mov	r1, r6
  40498e:	2300      	movs	r3, #0
  404990:	220a      	movs	r2, #10
  404992:	4620      	mov	r0, r4
  404994:	f000 fc3a 	bl	40520c <__multadd>
  404998:	9b0f      	ldr	r3, [sp, #60]	; 0x3c
  40499a:	2b00      	cmp	r3, #0
  40499c:	4606      	mov	r6, r0
  40499e:	dd0a      	ble.n	4049b6 <_dtoa_r+0xe0e>
  4049a0:	930a      	str	r3, [sp, #40]	; 0x28
  4049a2:	f7ff bbaa 	b.w	4040fa <_dtoa_r+0x552>
  4049a6:	9b24      	ldr	r3, [sp, #144]	; 0x90
  4049a8:	2b02      	cmp	r3, #2
  4049aa:	dc23      	bgt.n	4049f4 <_dtoa_r+0xe4c>
  4049ac:	9b0f      	ldr	r3, [sp, #60]	; 0x3c
  4049ae:	e43b      	b.n	404228 <_dtoa_r+0x680>
  4049b0:	f04f 0a02 	mov.w	sl, #2
  4049b4:	e4ed      	b.n	404392 <_dtoa_r+0x7ea>
  4049b6:	9b24      	ldr	r3, [sp, #144]	; 0x90
  4049b8:	2b02      	cmp	r3, #2
  4049ba:	dc1b      	bgt.n	4049f4 <_dtoa_r+0xe4c>
  4049bc:	9b0f      	ldr	r3, [sp, #60]	; 0x3c
  4049be:	e7ef      	b.n	4049a0 <_dtoa_r+0xdf8>
  4049c0:	2500      	movs	r5, #0
  4049c2:	6465      	str	r5, [r4, #68]	; 0x44
  4049c4:	4629      	mov	r1, r5
  4049c6:	4620      	mov	r0, r4
  4049c8:	f000 fbf0 	bl	4051ac <_Balloc>
  4049cc:	f04f 33ff 	mov.w	r3, #4294967295
  4049d0:	930a      	str	r3, [sp, #40]	; 0x28
  4049d2:	930f      	str	r3, [sp, #60]	; 0x3c
  4049d4:	2301      	movs	r3, #1
  4049d6:	9004      	str	r0, [sp, #16]
  4049d8:	9525      	str	r5, [sp, #148]	; 0x94
  4049da:	6420      	str	r0, [r4, #64]	; 0x40
  4049dc:	930b      	str	r3, [sp, #44]	; 0x2c
  4049de:	f7ff b9dd 	b.w	403d9c <_dtoa_r+0x1f4>
  4049e2:	2501      	movs	r5, #1
  4049e4:	f7ff b9a5 	b.w	403d32 <_dtoa_r+0x18a>
  4049e8:	f43f ab69 	beq.w	4040be <_dtoa_r+0x516>
  4049ec:	f1c0 003c 	rsb	r0, r0, #60	; 0x3c
  4049f0:	f7ff bbf9 	b.w	4041e6 <_dtoa_r+0x63e>
  4049f4:	9b0f      	ldr	r3, [sp, #60]	; 0x3c
  4049f6:	930a      	str	r3, [sp, #40]	; 0x28
  4049f8:	e5e5      	b.n	4045c6 <_dtoa_r+0xa1e>
  4049fa:	bf00      	nop

004049fc <__libc_fini_array>:
  4049fc:	b538      	push	{r3, r4, r5, lr}
  4049fe:	4c0a      	ldr	r4, [pc, #40]	; (404a28 <__libc_fini_array+0x2c>)
  404a00:	4d0a      	ldr	r5, [pc, #40]	; (404a2c <__libc_fini_array+0x30>)
  404a02:	1b64      	subs	r4, r4, r5
  404a04:	10a4      	asrs	r4, r4, #2
  404a06:	d00a      	beq.n	404a1e <__libc_fini_array+0x22>
  404a08:	f104 4380 	add.w	r3, r4, #1073741824	; 0x40000000
  404a0c:	3b01      	subs	r3, #1
  404a0e:	eb05 0583 	add.w	r5, r5, r3, lsl #2
  404a12:	3c01      	subs	r4, #1
  404a14:	f855 3904 	ldr.w	r3, [r5], #-4
  404a18:	4798      	blx	r3
  404a1a:	2c00      	cmp	r4, #0
  404a1c:	d1f9      	bne.n	404a12 <__libc_fini_array+0x16>
  404a1e:	e8bd 4038 	ldmia.w	sp!, {r3, r4, r5, lr}
  404a22:	f002 bb0f 	b.w	407044 <_fini>
  404a26:	bf00      	nop
  404a28:	00407054 	.word	0x00407054
  404a2c:	00407050 	.word	0x00407050

00404a30 <_localeconv_r>:
  404a30:	4a04      	ldr	r2, [pc, #16]	; (404a44 <_localeconv_r+0x14>)
  404a32:	4b05      	ldr	r3, [pc, #20]	; (404a48 <_localeconv_r+0x18>)
  404a34:	6812      	ldr	r2, [r2, #0]
  404a36:	6b50      	ldr	r0, [r2, #52]	; 0x34
  404a38:	2800      	cmp	r0, #0
  404a3a:	bf08      	it	eq
  404a3c:	4618      	moveq	r0, r3
  404a3e:	30f0      	adds	r0, #240	; 0xf0
  404a40:	4770      	bx	lr
  404a42:	bf00      	nop
  404a44:	20400024 	.word	0x20400024
  404a48:	20400864 	.word	0x20400864

00404a4c <__retarget_lock_acquire_recursive>:
  404a4c:	4770      	bx	lr
  404a4e:	bf00      	nop

00404a50 <__retarget_lock_release_recursive>:
  404a50:	4770      	bx	lr
  404a52:	bf00      	nop

00404a54 <_malloc_r>:
  404a54:	e92d 4ff0 	stmdb	sp!, {r4, r5, r6, r7, r8, r9, sl, fp, lr}
  404a58:	f101 060b 	add.w	r6, r1, #11
  404a5c:	2e16      	cmp	r6, #22
  404a5e:	b083      	sub	sp, #12
  404a60:	4605      	mov	r5, r0
  404a62:	f240 809e 	bls.w	404ba2 <_malloc_r+0x14e>
  404a66:	f036 0607 	bics.w	r6, r6, #7
  404a6a:	f100 80bd 	bmi.w	404be8 <_malloc_r+0x194>
  404a6e:	42b1      	cmp	r1, r6
  404a70:	f200 80ba 	bhi.w	404be8 <_malloc_r+0x194>
  404a74:	f000 fb8e 	bl	405194 <__malloc_lock>
  404a78:	f5b6 7ffc 	cmp.w	r6, #504	; 0x1f8
  404a7c:	f0c0 8293 	bcc.w	404fa6 <_malloc_r+0x552>
  404a80:	0a73      	lsrs	r3, r6, #9
  404a82:	f000 80b8 	beq.w	404bf6 <_malloc_r+0x1a2>
  404a86:	2b04      	cmp	r3, #4
  404a88:	f200 8179 	bhi.w	404d7e <_malloc_r+0x32a>
  404a8c:	09b3      	lsrs	r3, r6, #6
  404a8e:	f103 0039 	add.w	r0, r3, #57	; 0x39
  404a92:	f103 0e38 	add.w	lr, r3, #56	; 0x38
  404a96:	00c3      	lsls	r3, r0, #3
  404a98:	4fbf      	ldr	r7, [pc, #764]	; (404d98 <_malloc_r+0x344>)
  404a9a:	443b      	add	r3, r7
  404a9c:	f1a3 0108 	sub.w	r1, r3, #8
  404aa0:	685c      	ldr	r4, [r3, #4]
  404aa2:	42a1      	cmp	r1, r4
  404aa4:	d106      	bne.n	404ab4 <_malloc_r+0x60>
  404aa6:	e00c      	b.n	404ac2 <_malloc_r+0x6e>
  404aa8:	2a00      	cmp	r2, #0
  404aaa:	f280 80aa 	bge.w	404c02 <_malloc_r+0x1ae>
  404aae:	68e4      	ldr	r4, [r4, #12]
  404ab0:	42a1      	cmp	r1, r4
  404ab2:	d006      	beq.n	404ac2 <_malloc_r+0x6e>
  404ab4:	6863      	ldr	r3, [r4, #4]
  404ab6:	f023 0303 	bic.w	r3, r3, #3
  404aba:	1b9a      	subs	r2, r3, r6
  404abc:	2a0f      	cmp	r2, #15
  404abe:	ddf3      	ble.n	404aa8 <_malloc_r+0x54>
  404ac0:	4670      	mov	r0, lr
  404ac2:	693c      	ldr	r4, [r7, #16]
  404ac4:	f8df e2e4 	ldr.w	lr, [pc, #740]	; 404dac <_malloc_r+0x358>
  404ac8:	4574      	cmp	r4, lr
  404aca:	f000 81ab 	beq.w	404e24 <_malloc_r+0x3d0>
  404ace:	6863      	ldr	r3, [r4, #4]
  404ad0:	f023 0303 	bic.w	r3, r3, #3
  404ad4:	1b9a      	subs	r2, r3, r6
  404ad6:	2a0f      	cmp	r2, #15
  404ad8:	f300 8190 	bgt.w	404dfc <_malloc_r+0x3a8>
  404adc:	2a00      	cmp	r2, #0
  404ade:	f8c7 e014 	str.w	lr, [r7, #20]
  404ae2:	f8c7 e010 	str.w	lr, [r7, #16]
  404ae6:	f280 809d 	bge.w	404c24 <_malloc_r+0x1d0>
  404aea:	f5b3 7f00 	cmp.w	r3, #512	; 0x200
  404aee:	f080 8161 	bcs.w	404db4 <_malloc_r+0x360>
  404af2:	08db      	lsrs	r3, r3, #3
  404af4:	f103 0c01 	add.w	ip, r3, #1
  404af8:	1099      	asrs	r1, r3, #2
  404afa:	687a      	ldr	r2, [r7, #4]
  404afc:	f857 803c 	ldr.w	r8, [r7, ip, lsl #3]
  404b00:	f8c4 8008 	str.w	r8, [r4, #8]
  404b04:	2301      	movs	r3, #1
  404b06:	408b      	lsls	r3, r1
  404b08:	eb07 01cc 	add.w	r1, r7, ip, lsl #3
  404b0c:	4313      	orrs	r3, r2
  404b0e:	3908      	subs	r1, #8
  404b10:	60e1      	str	r1, [r4, #12]
  404b12:	607b      	str	r3, [r7, #4]
  404b14:	f847 403c 	str.w	r4, [r7, ip, lsl #3]
  404b18:	f8c8 400c 	str.w	r4, [r8, #12]
  404b1c:	1082      	asrs	r2, r0, #2
  404b1e:	2401      	movs	r4, #1
  404b20:	4094      	lsls	r4, r2
  404b22:	429c      	cmp	r4, r3
  404b24:	f200 808b 	bhi.w	404c3e <_malloc_r+0x1ea>
  404b28:	421c      	tst	r4, r3
  404b2a:	d106      	bne.n	404b3a <_malloc_r+0xe6>
  404b2c:	f020 0003 	bic.w	r0, r0, #3
  404b30:	0064      	lsls	r4, r4, #1
  404b32:	421c      	tst	r4, r3
  404b34:	f100 0004 	add.w	r0, r0, #4
  404b38:	d0fa      	beq.n	404b30 <_malloc_r+0xdc>
  404b3a:	eb07 09c0 	add.w	r9, r7, r0, lsl #3
  404b3e:	46cc      	mov	ip, r9
  404b40:	4680      	mov	r8, r0
  404b42:	f8dc 300c 	ldr.w	r3, [ip, #12]
  404b46:	459c      	cmp	ip, r3
  404b48:	d107      	bne.n	404b5a <_malloc_r+0x106>
  404b4a:	e16d      	b.n	404e28 <_malloc_r+0x3d4>
  404b4c:	2a00      	cmp	r2, #0
  404b4e:	f280 817b 	bge.w	404e48 <_malloc_r+0x3f4>
  404b52:	68db      	ldr	r3, [r3, #12]
  404b54:	459c      	cmp	ip, r3
  404b56:	f000 8167 	beq.w	404e28 <_malloc_r+0x3d4>
  404b5a:	6859      	ldr	r1, [r3, #4]
  404b5c:	f021 0103 	bic.w	r1, r1, #3
  404b60:	1b8a      	subs	r2, r1, r6
  404b62:	2a0f      	cmp	r2, #15
  404b64:	ddf2      	ble.n	404b4c <_malloc_r+0xf8>
  404b66:	f8d3 c00c 	ldr.w	ip, [r3, #12]
  404b6a:	f8d3 8008 	ldr.w	r8, [r3, #8]
  404b6e:	9300      	str	r3, [sp, #0]
  404b70:	199c      	adds	r4, r3, r6
  404b72:	4628      	mov	r0, r5
  404b74:	f046 0601 	orr.w	r6, r6, #1
  404b78:	f042 0501 	orr.w	r5, r2, #1
  404b7c:	605e      	str	r6, [r3, #4]
  404b7e:	f8c8 c00c 	str.w	ip, [r8, #12]
  404b82:	f8cc 8008 	str.w	r8, [ip, #8]
  404b86:	617c      	str	r4, [r7, #20]
  404b88:	613c      	str	r4, [r7, #16]
  404b8a:	f8c4 e00c 	str.w	lr, [r4, #12]
  404b8e:	f8c4 e008 	str.w	lr, [r4, #8]
  404b92:	6065      	str	r5, [r4, #4]
  404b94:	505a      	str	r2, [r3, r1]
  404b96:	f000 fb03 	bl	4051a0 <__malloc_unlock>
  404b9a:	9b00      	ldr	r3, [sp, #0]
  404b9c:	f103 0408 	add.w	r4, r3, #8
  404ba0:	e01e      	b.n	404be0 <_malloc_r+0x18c>
  404ba2:	2910      	cmp	r1, #16
  404ba4:	d820      	bhi.n	404be8 <_malloc_r+0x194>
  404ba6:	f000 faf5 	bl	405194 <__malloc_lock>
  404baa:	2610      	movs	r6, #16
  404bac:	2318      	movs	r3, #24
  404bae:	2002      	movs	r0, #2
  404bb0:	4f79      	ldr	r7, [pc, #484]	; (404d98 <_malloc_r+0x344>)
  404bb2:	443b      	add	r3, r7
  404bb4:	f1a3 0208 	sub.w	r2, r3, #8
  404bb8:	685c      	ldr	r4, [r3, #4]
  404bba:	4294      	cmp	r4, r2
  404bbc:	f000 813d 	beq.w	404e3a <_malloc_r+0x3e6>
  404bc0:	6863      	ldr	r3, [r4, #4]
  404bc2:	68e1      	ldr	r1, [r4, #12]
  404bc4:	68a6      	ldr	r6, [r4, #8]
  404bc6:	f023 0303 	bic.w	r3, r3, #3
  404bca:	4423      	add	r3, r4
  404bcc:	4628      	mov	r0, r5
  404bce:	685a      	ldr	r2, [r3, #4]
  404bd0:	60f1      	str	r1, [r6, #12]
  404bd2:	f042 0201 	orr.w	r2, r2, #1
  404bd6:	608e      	str	r6, [r1, #8]
  404bd8:	605a      	str	r2, [r3, #4]
  404bda:	f000 fae1 	bl	4051a0 <__malloc_unlock>
  404bde:	3408      	adds	r4, #8
  404be0:	4620      	mov	r0, r4
  404be2:	b003      	add	sp, #12
  404be4:	e8bd 8ff0 	ldmia.w	sp!, {r4, r5, r6, r7, r8, r9, sl, fp, pc}
  404be8:	2400      	movs	r4, #0
  404bea:	230c      	movs	r3, #12
  404bec:	4620      	mov	r0, r4
  404bee:	602b      	str	r3, [r5, #0]
  404bf0:	b003      	add	sp, #12
  404bf2:	e8bd 8ff0 	ldmia.w	sp!, {r4, r5, r6, r7, r8, r9, sl, fp, pc}
  404bf6:	2040      	movs	r0, #64	; 0x40
  404bf8:	f44f 7300 	mov.w	r3, #512	; 0x200
  404bfc:	f04f 0e3f 	mov.w	lr, #63	; 0x3f
  404c00:	e74a      	b.n	404a98 <_malloc_r+0x44>
  404c02:	4423      	add	r3, r4
  404c04:	68e1      	ldr	r1, [r4, #12]
  404c06:	685a      	ldr	r2, [r3, #4]
  404c08:	68a6      	ldr	r6, [r4, #8]
  404c0a:	f042 0201 	orr.w	r2, r2, #1
  404c0e:	60f1      	str	r1, [r6, #12]
  404c10:	4628      	mov	r0, r5
  404c12:	608e      	str	r6, [r1, #8]
  404c14:	605a      	str	r2, [r3, #4]
  404c16:	f000 fac3 	bl	4051a0 <__malloc_unlock>
  404c1a:	3408      	adds	r4, #8
  404c1c:	4620      	mov	r0, r4
  404c1e:	b003      	add	sp, #12
  404c20:	e8bd 8ff0 	ldmia.w	sp!, {r4, r5, r6, r7, r8, r9, sl, fp, pc}
  404c24:	4423      	add	r3, r4
  404c26:	4628      	mov	r0, r5
  404c28:	685a      	ldr	r2, [r3, #4]
  404c2a:	f042 0201 	orr.w	r2, r2, #1
  404c2e:	605a      	str	r2, [r3, #4]
  404c30:	f000 fab6 	bl	4051a0 <__malloc_unlock>
  404c34:	3408      	adds	r4, #8
  404c36:	4620      	mov	r0, r4
  404c38:	b003      	add	sp, #12
  404c3a:	e8bd 8ff0 	ldmia.w	sp!, {r4, r5, r6, r7, r8, r9, sl, fp, pc}
  404c3e:	68bc      	ldr	r4, [r7, #8]
  404c40:	6863      	ldr	r3, [r4, #4]
  404c42:	f023 0803 	bic.w	r8, r3, #3
  404c46:	45b0      	cmp	r8, r6
  404c48:	d304      	bcc.n	404c54 <_malloc_r+0x200>
  404c4a:	eba8 0306 	sub.w	r3, r8, r6
  404c4e:	2b0f      	cmp	r3, #15
  404c50:	f300 8085 	bgt.w	404d5e <_malloc_r+0x30a>
  404c54:	f8df 9158 	ldr.w	r9, [pc, #344]	; 404db0 <_malloc_r+0x35c>
  404c58:	4b50      	ldr	r3, [pc, #320]	; (404d9c <_malloc_r+0x348>)
  404c5a:	f8d9 2000 	ldr.w	r2, [r9]
  404c5e:	681b      	ldr	r3, [r3, #0]
  404c60:	3201      	adds	r2, #1
  404c62:	4433      	add	r3, r6
  404c64:	eb04 0a08 	add.w	sl, r4, r8
  404c68:	f000 8155 	beq.w	404f16 <_malloc_r+0x4c2>
  404c6c:	f503 5380 	add.w	r3, r3, #4096	; 0x1000
  404c70:	330f      	adds	r3, #15
  404c72:	f423 6b7f 	bic.w	fp, r3, #4080	; 0xff0
  404c76:	f02b 0b0f 	bic.w	fp, fp, #15
  404c7a:	4659      	mov	r1, fp
  404c7c:	4628      	mov	r0, r5
  404c7e:	f000 fd8f 	bl	4057a0 <_sbrk_r>
  404c82:	1c41      	adds	r1, r0, #1
  404c84:	4602      	mov	r2, r0
  404c86:	f000 80fc 	beq.w	404e82 <_malloc_r+0x42e>
  404c8a:	4582      	cmp	sl, r0
  404c8c:	f200 80f7 	bhi.w	404e7e <_malloc_r+0x42a>
  404c90:	4b43      	ldr	r3, [pc, #268]	; (404da0 <_malloc_r+0x34c>)
  404c92:	6819      	ldr	r1, [r3, #0]
  404c94:	4459      	add	r1, fp
  404c96:	6019      	str	r1, [r3, #0]
  404c98:	f000 814d 	beq.w	404f36 <_malloc_r+0x4e2>
  404c9c:	f8d9 0000 	ldr.w	r0, [r9]
  404ca0:	3001      	adds	r0, #1
  404ca2:	bf1b      	ittet	ne
  404ca4:	eba2 0a0a 	subne.w	sl, r2, sl
  404ca8:	4451      	addne	r1, sl
  404caa:	f8c9 2000 	streq.w	r2, [r9]
  404cae:	6019      	strne	r1, [r3, #0]
  404cb0:	f012 0107 	ands.w	r1, r2, #7
  404cb4:	f000 8115 	beq.w	404ee2 <_malloc_r+0x48e>
  404cb8:	f1c1 0008 	rsb	r0, r1, #8
  404cbc:	f5c1 5180 	rsb	r1, r1, #4096	; 0x1000
  404cc0:	4402      	add	r2, r0
  404cc2:	3108      	adds	r1, #8
  404cc4:	eb02 090b 	add.w	r9, r2, fp
  404cc8:	f3c9 090b 	ubfx	r9, r9, #0, #12
  404ccc:	eba1 0909 	sub.w	r9, r1, r9
  404cd0:	4649      	mov	r1, r9
  404cd2:	4628      	mov	r0, r5
  404cd4:	9301      	str	r3, [sp, #4]
  404cd6:	9200      	str	r2, [sp, #0]
  404cd8:	f000 fd62 	bl	4057a0 <_sbrk_r>
  404cdc:	1c43      	adds	r3, r0, #1
  404cde:	e89d 000c 	ldmia.w	sp, {r2, r3}
  404ce2:	f000 8143 	beq.w	404f6c <_malloc_r+0x518>
  404ce6:	1a80      	subs	r0, r0, r2
  404ce8:	4448      	add	r0, r9
  404cea:	f040 0001 	orr.w	r0, r0, #1
  404cee:	6819      	ldr	r1, [r3, #0]
  404cf0:	60ba      	str	r2, [r7, #8]
  404cf2:	4449      	add	r1, r9
  404cf4:	42bc      	cmp	r4, r7
  404cf6:	6050      	str	r0, [r2, #4]
  404cf8:	6019      	str	r1, [r3, #0]
  404cfa:	d017      	beq.n	404d2c <_malloc_r+0x2d8>
  404cfc:	f1b8 0f0f 	cmp.w	r8, #15
  404d00:	f240 80fb 	bls.w	404efa <_malloc_r+0x4a6>
  404d04:	6860      	ldr	r0, [r4, #4]
  404d06:	f1a8 020c 	sub.w	r2, r8, #12
  404d0a:	f022 0207 	bic.w	r2, r2, #7
  404d0e:	eb04 0e02 	add.w	lr, r4, r2
  404d12:	f000 0001 	and.w	r0, r0, #1
  404d16:	f04f 0c05 	mov.w	ip, #5
  404d1a:	4310      	orrs	r0, r2
  404d1c:	2a0f      	cmp	r2, #15
  404d1e:	6060      	str	r0, [r4, #4]
  404d20:	f8ce c004 	str.w	ip, [lr, #4]
  404d24:	f8ce c008 	str.w	ip, [lr, #8]
  404d28:	f200 8117 	bhi.w	404f5a <_malloc_r+0x506>
  404d2c:	4b1d      	ldr	r3, [pc, #116]	; (404da4 <_malloc_r+0x350>)
  404d2e:	68bc      	ldr	r4, [r7, #8]
  404d30:	681a      	ldr	r2, [r3, #0]
  404d32:	4291      	cmp	r1, r2
  404d34:	bf88      	it	hi
  404d36:	6019      	strhi	r1, [r3, #0]
  404d38:	4b1b      	ldr	r3, [pc, #108]	; (404da8 <_malloc_r+0x354>)
  404d3a:	681a      	ldr	r2, [r3, #0]
  404d3c:	4291      	cmp	r1, r2
  404d3e:	6862      	ldr	r2, [r4, #4]
  404d40:	bf88      	it	hi
  404d42:	6019      	strhi	r1, [r3, #0]
  404d44:	f022 0203 	bic.w	r2, r2, #3
  404d48:	4296      	cmp	r6, r2
  404d4a:	eba2 0306 	sub.w	r3, r2, r6
  404d4e:	d801      	bhi.n	404d54 <_malloc_r+0x300>
  404d50:	2b0f      	cmp	r3, #15
  404d52:	dc04      	bgt.n	404d5e <_malloc_r+0x30a>
  404d54:	4628      	mov	r0, r5
  404d56:	f000 fa23 	bl	4051a0 <__malloc_unlock>
  404d5a:	2400      	movs	r4, #0
  404d5c:	e740      	b.n	404be0 <_malloc_r+0x18c>
  404d5e:	19a2      	adds	r2, r4, r6
  404d60:	f043 0301 	orr.w	r3, r3, #1
  404d64:	f046 0601 	orr.w	r6, r6, #1
  404d68:	6066      	str	r6, [r4, #4]
  404d6a:	4628      	mov	r0, r5
  404d6c:	60ba      	str	r2, [r7, #8]
  404d6e:	6053      	str	r3, [r2, #4]
  404d70:	f000 fa16 	bl	4051a0 <__malloc_unlock>
  404d74:	3408      	adds	r4, #8
  404d76:	4620      	mov	r0, r4
  404d78:	b003      	add	sp, #12
  404d7a:	e8bd 8ff0 	ldmia.w	sp!, {r4, r5, r6, r7, r8, r9, sl, fp, pc}
  404d7e:	2b14      	cmp	r3, #20
  404d80:	d971      	bls.n	404e66 <_malloc_r+0x412>
  404d82:	2b54      	cmp	r3, #84	; 0x54
  404d84:	f200 80a3 	bhi.w	404ece <_malloc_r+0x47a>
  404d88:	0b33      	lsrs	r3, r6, #12
  404d8a:	f103 006f 	add.w	r0, r3, #111	; 0x6f
  404d8e:	f103 0e6e 	add.w	lr, r3, #110	; 0x6e
  404d92:	00c3      	lsls	r3, r0, #3
  404d94:	e680      	b.n	404a98 <_malloc_r+0x44>
  404d96:	bf00      	nop
  404d98:	20400454 	.word	0x20400454
  404d9c:	20400ca0 	.word	0x20400ca0
  404da0:	20400c70 	.word	0x20400c70
  404da4:	20400c98 	.word	0x20400c98
  404da8:	20400c9c 	.word	0x20400c9c
  404dac:	2040045c 	.word	0x2040045c
  404db0:	2040085c 	.word	0x2040085c
  404db4:	0a5a      	lsrs	r2, r3, #9
  404db6:	2a04      	cmp	r2, #4
  404db8:	d95b      	bls.n	404e72 <_malloc_r+0x41e>
  404dba:	2a14      	cmp	r2, #20
  404dbc:	f200 80ae 	bhi.w	404f1c <_malloc_r+0x4c8>
  404dc0:	f102 015c 	add.w	r1, r2, #92	; 0x5c
  404dc4:	00c9      	lsls	r1, r1, #3
  404dc6:	325b      	adds	r2, #91	; 0x5b
  404dc8:	eb07 0c01 	add.w	ip, r7, r1
  404dcc:	5879      	ldr	r1, [r7, r1]
  404dce:	f1ac 0c08 	sub.w	ip, ip, #8
  404dd2:	458c      	cmp	ip, r1
  404dd4:	f000 8088 	beq.w	404ee8 <_malloc_r+0x494>
  404dd8:	684a      	ldr	r2, [r1, #4]
  404dda:	f022 0203 	bic.w	r2, r2, #3
  404dde:	4293      	cmp	r3, r2
  404de0:	d273      	bcs.n	404eca <_malloc_r+0x476>
  404de2:	6889      	ldr	r1, [r1, #8]
  404de4:	458c      	cmp	ip, r1
  404de6:	d1f7      	bne.n	404dd8 <_malloc_r+0x384>
  404de8:	f8dc 200c 	ldr.w	r2, [ip, #12]
  404dec:	687b      	ldr	r3, [r7, #4]
  404dee:	60e2      	str	r2, [r4, #12]
  404df0:	f8c4 c008 	str.w	ip, [r4, #8]
  404df4:	6094      	str	r4, [r2, #8]
  404df6:	f8cc 400c 	str.w	r4, [ip, #12]
  404dfa:	e68f      	b.n	404b1c <_malloc_r+0xc8>
  404dfc:	19a1      	adds	r1, r4, r6
  404dfe:	f046 0c01 	orr.w	ip, r6, #1
  404e02:	f042 0601 	orr.w	r6, r2, #1
  404e06:	f8c4 c004 	str.w	ip, [r4, #4]
  404e0a:	4628      	mov	r0, r5
  404e0c:	6179      	str	r1, [r7, #20]
  404e0e:	6139      	str	r1, [r7, #16]
  404e10:	f8c1 e00c 	str.w	lr, [r1, #12]
  404e14:	f8c1 e008 	str.w	lr, [r1, #8]
  404e18:	604e      	str	r6, [r1, #4]
  404e1a:	50e2      	str	r2, [r4, r3]
  404e1c:	f000 f9c0 	bl	4051a0 <__malloc_unlock>
  404e20:	3408      	adds	r4, #8
  404e22:	e6dd      	b.n	404be0 <_malloc_r+0x18c>
  404e24:	687b      	ldr	r3, [r7, #4]
  404e26:	e679      	b.n	404b1c <_malloc_r+0xc8>
  404e28:	f108 0801 	add.w	r8, r8, #1
  404e2c:	f018 0f03 	tst.w	r8, #3
  404e30:	f10c 0c08 	add.w	ip, ip, #8
  404e34:	f47f ae85 	bne.w	404b42 <_malloc_r+0xee>
  404e38:	e02d      	b.n	404e96 <_malloc_r+0x442>
  404e3a:	68dc      	ldr	r4, [r3, #12]
  404e3c:	42a3      	cmp	r3, r4
  404e3e:	bf08      	it	eq
  404e40:	3002      	addeq	r0, #2
  404e42:	f43f ae3e 	beq.w	404ac2 <_malloc_r+0x6e>
  404e46:	e6bb      	b.n	404bc0 <_malloc_r+0x16c>
  404e48:	4419      	add	r1, r3
  404e4a:	461c      	mov	r4, r3
  404e4c:	684a      	ldr	r2, [r1, #4]
  404e4e:	68db      	ldr	r3, [r3, #12]
  404e50:	f854 6f08 	ldr.w	r6, [r4, #8]!
  404e54:	f042 0201 	orr.w	r2, r2, #1
  404e58:	604a      	str	r2, [r1, #4]
  404e5a:	4628      	mov	r0, r5
  404e5c:	60f3      	str	r3, [r6, #12]
  404e5e:	609e      	str	r6, [r3, #8]
  404e60:	f000 f99e 	bl	4051a0 <__malloc_unlock>
  404e64:	e6bc      	b.n	404be0 <_malloc_r+0x18c>
  404e66:	f103 005c 	add.w	r0, r3, #92	; 0x5c
  404e6a:	f103 0e5b 	add.w	lr, r3, #91	; 0x5b
  404e6e:	00c3      	lsls	r3, r0, #3
  404e70:	e612      	b.n	404a98 <_malloc_r+0x44>
  404e72:	099a      	lsrs	r2, r3, #6
  404e74:	f102 0139 	add.w	r1, r2, #57	; 0x39
  404e78:	00c9      	lsls	r1, r1, #3
  404e7a:	3238      	adds	r2, #56	; 0x38
  404e7c:	e7a4      	b.n	404dc8 <_malloc_r+0x374>
  404e7e:	42bc      	cmp	r4, r7
  404e80:	d054      	beq.n	404f2c <_malloc_r+0x4d8>
  404e82:	68bc      	ldr	r4, [r7, #8]
  404e84:	6862      	ldr	r2, [r4, #4]
  404e86:	f022 0203 	bic.w	r2, r2, #3
  404e8a:	e75d      	b.n	404d48 <_malloc_r+0x2f4>
  404e8c:	f859 3908 	ldr.w	r3, [r9], #-8
  404e90:	4599      	cmp	r9, r3
  404e92:	f040 8086 	bne.w	404fa2 <_malloc_r+0x54e>
  404e96:	f010 0f03 	tst.w	r0, #3
  404e9a:	f100 30ff 	add.w	r0, r0, #4294967295
  404e9e:	d1f5      	bne.n	404e8c <_malloc_r+0x438>
  404ea0:	687b      	ldr	r3, [r7, #4]
  404ea2:	ea23 0304 	bic.w	r3, r3, r4
  404ea6:	607b      	str	r3, [r7, #4]
  404ea8:	0064      	lsls	r4, r4, #1
  404eaa:	429c      	cmp	r4, r3
  404eac:	f63f aec7 	bhi.w	404c3e <_malloc_r+0x1ea>
  404eb0:	2c00      	cmp	r4, #0
  404eb2:	f43f aec4 	beq.w	404c3e <_malloc_r+0x1ea>
  404eb6:	421c      	tst	r4, r3
  404eb8:	4640      	mov	r0, r8
  404eba:	f47f ae3e 	bne.w	404b3a <_malloc_r+0xe6>
  404ebe:	0064      	lsls	r4, r4, #1
  404ec0:	421c      	tst	r4, r3
  404ec2:	f100 0004 	add.w	r0, r0, #4
  404ec6:	d0fa      	beq.n	404ebe <_malloc_r+0x46a>
  404ec8:	e637      	b.n	404b3a <_malloc_r+0xe6>
  404eca:	468c      	mov	ip, r1
  404ecc:	e78c      	b.n	404de8 <_malloc_r+0x394>
  404ece:	f5b3 7faa 	cmp.w	r3, #340	; 0x154
  404ed2:	d815      	bhi.n	404f00 <_malloc_r+0x4ac>
  404ed4:	0bf3      	lsrs	r3, r6, #15
  404ed6:	f103 0078 	add.w	r0, r3, #120	; 0x78
  404eda:	f103 0e77 	add.w	lr, r3, #119	; 0x77
  404ede:	00c3      	lsls	r3, r0, #3
  404ee0:	e5da      	b.n	404a98 <_malloc_r+0x44>
  404ee2:	f44f 5180 	mov.w	r1, #4096	; 0x1000
  404ee6:	e6ed      	b.n	404cc4 <_malloc_r+0x270>
  404ee8:	687b      	ldr	r3, [r7, #4]
  404eea:	1092      	asrs	r2, r2, #2
  404eec:	2101      	movs	r1, #1
  404eee:	fa01 f202 	lsl.w	r2, r1, r2
  404ef2:	4313      	orrs	r3, r2
  404ef4:	607b      	str	r3, [r7, #4]
  404ef6:	4662      	mov	r2, ip
  404ef8:	e779      	b.n	404dee <_malloc_r+0x39a>
  404efa:	2301      	movs	r3, #1
  404efc:	6053      	str	r3, [r2, #4]
  404efe:	e729      	b.n	404d54 <_malloc_r+0x300>
  404f00:	f240 5254 	movw	r2, #1364	; 0x554
  404f04:	4293      	cmp	r3, r2
  404f06:	d822      	bhi.n	404f4e <_malloc_r+0x4fa>
  404f08:	0cb3      	lsrs	r3, r6, #18
  404f0a:	f103 007d 	add.w	r0, r3, #125	; 0x7d
  404f0e:	f103 0e7c 	add.w	lr, r3, #124	; 0x7c
  404f12:	00c3      	lsls	r3, r0, #3
  404f14:	e5c0      	b.n	404a98 <_malloc_r+0x44>
  404f16:	f103 0b10 	add.w	fp, r3, #16
  404f1a:	e6ae      	b.n	404c7a <_malloc_r+0x226>
  404f1c:	2a54      	cmp	r2, #84	; 0x54
  404f1e:	d829      	bhi.n	404f74 <_malloc_r+0x520>
  404f20:	0b1a      	lsrs	r2, r3, #12
  404f22:	f102 016f 	add.w	r1, r2, #111	; 0x6f
  404f26:	00c9      	lsls	r1, r1, #3
  404f28:	326e      	adds	r2, #110	; 0x6e
  404f2a:	e74d      	b.n	404dc8 <_malloc_r+0x374>
  404f2c:	4b20      	ldr	r3, [pc, #128]	; (404fb0 <_malloc_r+0x55c>)
  404f2e:	6819      	ldr	r1, [r3, #0]
  404f30:	4459      	add	r1, fp
  404f32:	6019      	str	r1, [r3, #0]
  404f34:	e6b2      	b.n	404c9c <_malloc_r+0x248>
  404f36:	f3ca 000b 	ubfx	r0, sl, #0, #12
  404f3a:	2800      	cmp	r0, #0
  404f3c:	f47f aeae 	bne.w	404c9c <_malloc_r+0x248>
  404f40:	eb08 030b 	add.w	r3, r8, fp
  404f44:	68ba      	ldr	r2, [r7, #8]
  404f46:	f043 0301 	orr.w	r3, r3, #1
  404f4a:	6053      	str	r3, [r2, #4]
  404f4c:	e6ee      	b.n	404d2c <_malloc_r+0x2d8>
  404f4e:	207f      	movs	r0, #127	; 0x7f
  404f50:	f44f 737e 	mov.w	r3, #1016	; 0x3f8
  404f54:	f04f 0e7e 	mov.w	lr, #126	; 0x7e
  404f58:	e59e      	b.n	404a98 <_malloc_r+0x44>
  404f5a:	f104 0108 	add.w	r1, r4, #8
  404f5e:	4628      	mov	r0, r5
  404f60:	9300      	str	r3, [sp, #0]
  404f62:	f000 fe1b 	bl	405b9c <_free_r>
  404f66:	9b00      	ldr	r3, [sp, #0]
  404f68:	6819      	ldr	r1, [r3, #0]
  404f6a:	e6df      	b.n	404d2c <_malloc_r+0x2d8>
  404f6c:	2001      	movs	r0, #1
  404f6e:	f04f 0900 	mov.w	r9, #0
  404f72:	e6bc      	b.n	404cee <_malloc_r+0x29a>
  404f74:	f5b2 7faa 	cmp.w	r2, #340	; 0x154
  404f78:	d805      	bhi.n	404f86 <_malloc_r+0x532>
  404f7a:	0bda      	lsrs	r2, r3, #15
  404f7c:	f102 0178 	add.w	r1, r2, #120	; 0x78
  404f80:	00c9      	lsls	r1, r1, #3
  404f82:	3277      	adds	r2, #119	; 0x77
  404f84:	e720      	b.n	404dc8 <_malloc_r+0x374>
  404f86:	f240 5154 	movw	r1, #1364	; 0x554
  404f8a:	428a      	cmp	r2, r1
  404f8c:	d805      	bhi.n	404f9a <_malloc_r+0x546>
  404f8e:	0c9a      	lsrs	r2, r3, #18
  404f90:	f102 017d 	add.w	r1, r2, #125	; 0x7d
  404f94:	00c9      	lsls	r1, r1, #3
  404f96:	327c      	adds	r2, #124	; 0x7c
  404f98:	e716      	b.n	404dc8 <_malloc_r+0x374>
  404f9a:	f44f 717e 	mov.w	r1, #1016	; 0x3f8
  404f9e:	227e      	movs	r2, #126	; 0x7e
  404fa0:	e712      	b.n	404dc8 <_malloc_r+0x374>
  404fa2:	687b      	ldr	r3, [r7, #4]
  404fa4:	e780      	b.n	404ea8 <_malloc_r+0x454>
  404fa6:	08f0      	lsrs	r0, r6, #3
  404fa8:	f106 0308 	add.w	r3, r6, #8
  404fac:	e600      	b.n	404bb0 <_malloc_r+0x15c>
  404fae:	bf00      	nop
  404fb0:	20400c70 	.word	0x20400c70
	...

00404fc0 <memchr>:
  404fc0:	f001 01ff 	and.w	r1, r1, #255	; 0xff
  404fc4:	2a10      	cmp	r2, #16
  404fc6:	db2b      	blt.n	405020 <memchr+0x60>
  404fc8:	f010 0f07 	tst.w	r0, #7
  404fcc:	d008      	beq.n	404fe0 <memchr+0x20>
  404fce:	f810 3b01 	ldrb.w	r3, [r0], #1
  404fd2:	3a01      	subs	r2, #1
  404fd4:	428b      	cmp	r3, r1
  404fd6:	d02d      	beq.n	405034 <memchr+0x74>
  404fd8:	f010 0f07 	tst.w	r0, #7
  404fdc:	b342      	cbz	r2, 405030 <memchr+0x70>
  404fde:	d1f6      	bne.n	404fce <memchr+0xe>
  404fe0:	b4f0      	push	{r4, r5, r6, r7}
  404fe2:	ea41 2101 	orr.w	r1, r1, r1, lsl #8
  404fe6:	ea41 4101 	orr.w	r1, r1, r1, lsl #16
  404fea:	f022 0407 	bic.w	r4, r2, #7
  404fee:	f07f 0700 	mvns.w	r7, #0
  404ff2:	2300      	movs	r3, #0
  404ff4:	e8f0 5602 	ldrd	r5, r6, [r0], #8
  404ff8:	3c08      	subs	r4, #8
  404ffa:	ea85 0501 	eor.w	r5, r5, r1
  404ffe:	ea86 0601 	eor.w	r6, r6, r1
  405002:	fa85 f547 	uadd8	r5, r5, r7
  405006:	faa3 f587 	sel	r5, r3, r7
  40500a:	fa86 f647 	uadd8	r6, r6, r7
  40500e:	faa5 f687 	sel	r6, r5, r7
  405012:	b98e      	cbnz	r6, 405038 <memchr+0x78>
  405014:	d1ee      	bne.n	404ff4 <memchr+0x34>
  405016:	bcf0      	pop	{r4, r5, r6, r7}
  405018:	f001 01ff 	and.w	r1, r1, #255	; 0xff
  40501c:	f002 0207 	and.w	r2, r2, #7
  405020:	b132      	cbz	r2, 405030 <memchr+0x70>
  405022:	f810 3b01 	ldrb.w	r3, [r0], #1
  405026:	3a01      	subs	r2, #1
  405028:	ea83 0301 	eor.w	r3, r3, r1
  40502c:	b113      	cbz	r3, 405034 <memchr+0x74>
  40502e:	d1f8      	bne.n	405022 <memchr+0x62>
  405030:	2000      	movs	r0, #0
  405032:	4770      	bx	lr
  405034:	3801      	subs	r0, #1
  405036:	4770      	bx	lr
  405038:	2d00      	cmp	r5, #0
  40503a:	bf06      	itte	eq
  40503c:	4635      	moveq	r5, r6
  40503e:	3803      	subeq	r0, #3
  405040:	3807      	subne	r0, #7
  405042:	f015 0f01 	tst.w	r5, #1
  405046:	d107      	bne.n	405058 <memchr+0x98>
  405048:	3001      	adds	r0, #1
  40504a:	f415 7f80 	tst.w	r5, #256	; 0x100
  40504e:	bf02      	ittt	eq
  405050:	3001      	addeq	r0, #1
  405052:	f415 3fc0 	tsteq.w	r5, #98304	; 0x18000
  405056:	3001      	addeq	r0, #1
  405058:	bcf0      	pop	{r4, r5, r6, r7}
  40505a:	3801      	subs	r0, #1
  40505c:	4770      	bx	lr
  40505e:	bf00      	nop

00405060 <memcpy>:
  405060:	4684      	mov	ip, r0
  405062:	ea41 0300 	orr.w	r3, r1, r0
  405066:	f013 0303 	ands.w	r3, r3, #3
  40506a:	d16d      	bne.n	405148 <memcpy+0xe8>
  40506c:	3a40      	subs	r2, #64	; 0x40
  40506e:	d341      	bcc.n	4050f4 <memcpy+0x94>
  405070:	f851 3b04 	ldr.w	r3, [r1], #4
  405074:	f840 3b04 	str.w	r3, [r0], #4
  405078:	f851 3b04 	ldr.w	r3, [r1], #4
  40507c:	f840 3b04 	str.w	r3, [r0], #4
  405080:	f851 3b04 	ldr.w	r3, [r1], #4
  405084:	f840 3b04 	str.w	r3, [r0], #4
  405088:	f851 3b04 	ldr.w	r3, [r1], #4
  40508c:	f840 3b04 	str.w	r3, [r0], #4
  405090:	f851 3b04 	ldr.w	r3, [r1], #4
  405094:	f840 3b04 	str.w	r3, [r0], #4
  405098:	f851 3b04 	ldr.w	r3, [r1], #4
  40509c:	f840 3b04 	str.w	r3, [r0], #4
  4050a0:	f851 3b04 	ldr.w	r3, [r1], #4
  4050a4:	f840 3b04 	str.w	r3, [r0], #4
  4050a8:	f851 3b04 	ldr.w	r3, [r1], #4
  4050ac:	f840 3b04 	str.w	r3, [r0], #4
  4050b0:	f851 3b04 	ldr.w	r3, [r1], #4
  4050b4:	f840 3b04 	str.w	r3, [r0], #4
  4050b8:	f851 3b04 	ldr.w	r3, [r1], #4
  4050bc:	f840 3b04 	str.w	r3, [r0], #4
  4050c0:	f851 3b04 	ldr.w	r3, [r1], #4
  4050c4:	f840 3b04 	str.w	r3, [r0], #4
  4050c8:	f851 3b04 	ldr.w	r3, [r1], #4
  4050cc:	f840 3b04 	str.w	r3, [r0], #4
  4050d0:	f851 3b04 	ldr.w	r3, [r1], #4
  4050d4:	f840 3b04 	str.w	r3, [r0], #4
  4050d8:	f851 3b04 	ldr.w	r3, [r1], #4
  4050dc:	f840 3b04 	str.w	r3, [r0], #4
  4050e0:	f851 3b04 	ldr.w	r3, [r1], #4
  4050e4:	f840 3b04 	str.w	r3, [r0], #4
  4050e8:	f851 3b04 	ldr.w	r3, [r1], #4
  4050ec:	f840 3b04 	str.w	r3, [r0], #4
  4050f0:	3a40      	subs	r2, #64	; 0x40
  4050f2:	d2bd      	bcs.n	405070 <memcpy+0x10>
  4050f4:	3230      	adds	r2, #48	; 0x30
  4050f6:	d311      	bcc.n	40511c <memcpy+0xbc>
  4050f8:	f851 3b04 	ldr.w	r3, [r1], #4
  4050fc:	f840 3b04 	str.w	r3, [r0], #4
  405100:	f851 3b04 	ldr.w	r3, [r1], #4
  405104:	f840 3b04 	str.w	r3, [r0], #4
  405108:	f851 3b04 	ldr.w	r3, [r1], #4
  40510c:	f840 3b04 	str.w	r3, [r0], #4
  405110:	f851 3b04 	ldr.w	r3, [r1], #4
  405114:	f840 3b04 	str.w	r3, [r0], #4
  405118:	3a10      	subs	r2, #16
  40511a:	d2ed      	bcs.n	4050f8 <memcpy+0x98>
  40511c:	320c      	adds	r2, #12
  40511e:	d305      	bcc.n	40512c <memcpy+0xcc>
  405120:	f851 3b04 	ldr.w	r3, [r1], #4
  405124:	f840 3b04 	str.w	r3, [r0], #4
  405128:	3a04      	subs	r2, #4
  40512a:	d2f9      	bcs.n	405120 <memcpy+0xc0>
  40512c:	3204      	adds	r2, #4
  40512e:	d008      	beq.n	405142 <memcpy+0xe2>
  405130:	07d2      	lsls	r2, r2, #31
  405132:	bf1c      	itt	ne
  405134:	f811 3b01 	ldrbne.w	r3, [r1], #1
  405138:	f800 3b01 	strbne.w	r3, [r0], #1
  40513c:	d301      	bcc.n	405142 <memcpy+0xe2>
  40513e:	880b      	ldrh	r3, [r1, #0]
  405140:	8003      	strh	r3, [r0, #0]
  405142:	4660      	mov	r0, ip
  405144:	4770      	bx	lr
  405146:	bf00      	nop
  405148:	2a08      	cmp	r2, #8
  40514a:	d313      	bcc.n	405174 <memcpy+0x114>
  40514c:	078b      	lsls	r3, r1, #30
  40514e:	d08d      	beq.n	40506c <memcpy+0xc>
  405150:	f010 0303 	ands.w	r3, r0, #3
  405154:	d08a      	beq.n	40506c <memcpy+0xc>
  405156:	f1c3 0304 	rsb	r3, r3, #4
  40515a:	1ad2      	subs	r2, r2, r3
  40515c:	07db      	lsls	r3, r3, #31
  40515e:	bf1c      	itt	ne
  405160:	f811 3b01 	ldrbne.w	r3, [r1], #1
  405164:	f800 3b01 	strbne.w	r3, [r0], #1
  405168:	d380      	bcc.n	40506c <memcpy+0xc>
  40516a:	f831 3b02 	ldrh.w	r3, [r1], #2
  40516e:	f820 3b02 	strh.w	r3, [r0], #2
  405172:	e77b      	b.n	40506c <memcpy+0xc>
  405174:	3a04      	subs	r2, #4
  405176:	d3d9      	bcc.n	40512c <memcpy+0xcc>
  405178:	3a01      	subs	r2, #1
  40517a:	f811 3b01 	ldrb.w	r3, [r1], #1
  40517e:	f800 3b01 	strb.w	r3, [r0], #1
  405182:	d2f9      	bcs.n	405178 <memcpy+0x118>
  405184:	780b      	ldrb	r3, [r1, #0]
  405186:	7003      	strb	r3, [r0, #0]
  405188:	784b      	ldrb	r3, [r1, #1]
  40518a:	7043      	strb	r3, [r0, #1]
  40518c:	788b      	ldrb	r3, [r1, #2]
  40518e:	7083      	strb	r3, [r0, #2]
  405190:	4660      	mov	r0, ip
  405192:	4770      	bx	lr

00405194 <__malloc_lock>:
  405194:	4801      	ldr	r0, [pc, #4]	; (40519c <__malloc_lock+0x8>)
  405196:	f7ff bc59 	b.w	404a4c <__retarget_lock_acquire_recursive>
  40519a:	bf00      	nop
  40519c:	20400d44 	.word	0x20400d44

004051a0 <__malloc_unlock>:
  4051a0:	4801      	ldr	r0, [pc, #4]	; (4051a8 <__malloc_unlock+0x8>)
  4051a2:	f7ff bc55 	b.w	404a50 <__retarget_lock_release_recursive>
  4051a6:	bf00      	nop
  4051a8:	20400d44 	.word	0x20400d44

004051ac <_Balloc>:
  4051ac:	6cc3      	ldr	r3, [r0, #76]	; 0x4c
  4051ae:	b570      	push	{r4, r5, r6, lr}
  4051b0:	4605      	mov	r5, r0
  4051b2:	460c      	mov	r4, r1
  4051b4:	b14b      	cbz	r3, 4051ca <_Balloc+0x1e>
  4051b6:	f853 0024 	ldr.w	r0, [r3, r4, lsl #2]
  4051ba:	b180      	cbz	r0, 4051de <_Balloc+0x32>
  4051bc:	6802      	ldr	r2, [r0, #0]
  4051be:	f843 2024 	str.w	r2, [r3, r4, lsl #2]
  4051c2:	2300      	movs	r3, #0
  4051c4:	6103      	str	r3, [r0, #16]
  4051c6:	60c3      	str	r3, [r0, #12]
  4051c8:	bd70      	pop	{r4, r5, r6, pc}
  4051ca:	2221      	movs	r2, #33	; 0x21
  4051cc:	2104      	movs	r1, #4
  4051ce:	f000 fc65 	bl	405a9c <_calloc_r>
  4051d2:	64e8      	str	r0, [r5, #76]	; 0x4c
  4051d4:	4603      	mov	r3, r0
  4051d6:	2800      	cmp	r0, #0
  4051d8:	d1ed      	bne.n	4051b6 <_Balloc+0xa>
  4051da:	2000      	movs	r0, #0
  4051dc:	bd70      	pop	{r4, r5, r6, pc}
  4051de:	2101      	movs	r1, #1
  4051e0:	fa01 f604 	lsl.w	r6, r1, r4
  4051e4:	1d72      	adds	r2, r6, #5
  4051e6:	4628      	mov	r0, r5
  4051e8:	0092      	lsls	r2, r2, #2
  4051ea:	f000 fc57 	bl	405a9c <_calloc_r>
  4051ee:	2800      	cmp	r0, #0
  4051f0:	d0f3      	beq.n	4051da <_Balloc+0x2e>
  4051f2:	6044      	str	r4, [r0, #4]
  4051f4:	6086      	str	r6, [r0, #8]
  4051f6:	e7e4      	b.n	4051c2 <_Balloc+0x16>

004051f8 <_Bfree>:
  4051f8:	b131      	cbz	r1, 405208 <_Bfree+0x10>
  4051fa:	6cc3      	ldr	r3, [r0, #76]	; 0x4c
  4051fc:	684a      	ldr	r2, [r1, #4]
  4051fe:	f853 0022 	ldr.w	r0, [r3, r2, lsl #2]
  405202:	6008      	str	r0, [r1, #0]
  405204:	f843 1022 	str.w	r1, [r3, r2, lsl #2]
  405208:	4770      	bx	lr
  40520a:	bf00      	nop

0040520c <__multadd>:
  40520c:	b5f0      	push	{r4, r5, r6, r7, lr}
  40520e:	690c      	ldr	r4, [r1, #16]
  405210:	b083      	sub	sp, #12
  405212:	460d      	mov	r5, r1
  405214:	4606      	mov	r6, r0
  405216:	f101 0e14 	add.w	lr, r1, #20
  40521a:	2700      	movs	r7, #0
  40521c:	f8de 0000 	ldr.w	r0, [lr]
  405220:	b281      	uxth	r1, r0
  405222:	fb02 3301 	mla	r3, r2, r1, r3
  405226:	0c01      	lsrs	r1, r0, #16
  405228:	0c18      	lsrs	r0, r3, #16
  40522a:	fb02 0101 	mla	r1, r2, r1, r0
  40522e:	b29b      	uxth	r3, r3
  405230:	3701      	adds	r7, #1
  405232:	eb03 4301 	add.w	r3, r3, r1, lsl #16
  405236:	42bc      	cmp	r4, r7
  405238:	f84e 3b04 	str.w	r3, [lr], #4
  40523c:	ea4f 4311 	mov.w	r3, r1, lsr #16
  405240:	dcec      	bgt.n	40521c <__multadd+0x10>
  405242:	b13b      	cbz	r3, 405254 <__multadd+0x48>
  405244:	68aa      	ldr	r2, [r5, #8]
  405246:	4294      	cmp	r4, r2
  405248:	da07      	bge.n	40525a <__multadd+0x4e>
  40524a:	eb05 0284 	add.w	r2, r5, r4, lsl #2
  40524e:	3401      	adds	r4, #1
  405250:	6153      	str	r3, [r2, #20]
  405252:	612c      	str	r4, [r5, #16]
  405254:	4628      	mov	r0, r5
  405256:	b003      	add	sp, #12
  405258:	bdf0      	pop	{r4, r5, r6, r7, pc}
  40525a:	6869      	ldr	r1, [r5, #4]
  40525c:	9301      	str	r3, [sp, #4]
  40525e:	3101      	adds	r1, #1
  405260:	4630      	mov	r0, r6
  405262:	f7ff ffa3 	bl	4051ac <_Balloc>
  405266:	692a      	ldr	r2, [r5, #16]
  405268:	3202      	adds	r2, #2
  40526a:	f105 010c 	add.w	r1, r5, #12
  40526e:	4607      	mov	r7, r0
  405270:	0092      	lsls	r2, r2, #2
  405272:	300c      	adds	r0, #12
  405274:	f7ff fef4 	bl	405060 <memcpy>
  405278:	6cf2      	ldr	r2, [r6, #76]	; 0x4c
  40527a:	6869      	ldr	r1, [r5, #4]
  40527c:	9b01      	ldr	r3, [sp, #4]
  40527e:	f852 0021 	ldr.w	r0, [r2, r1, lsl #2]
  405282:	6028      	str	r0, [r5, #0]
  405284:	f842 5021 	str.w	r5, [r2, r1, lsl #2]
  405288:	463d      	mov	r5, r7
  40528a:	e7de      	b.n	40524a <__multadd+0x3e>

0040528c <__hi0bits>:
  40528c:	0c02      	lsrs	r2, r0, #16
  40528e:	0412      	lsls	r2, r2, #16
  405290:	4603      	mov	r3, r0
  405292:	b9b2      	cbnz	r2, 4052c2 <__hi0bits+0x36>
  405294:	0403      	lsls	r3, r0, #16
  405296:	2010      	movs	r0, #16
  405298:	f013 4f7f 	tst.w	r3, #4278190080	; 0xff000000
  40529c:	bf04      	itt	eq
  40529e:	021b      	lsleq	r3, r3, #8
  4052a0:	3008      	addeq	r0, #8
  4052a2:	f013 4f70 	tst.w	r3, #4026531840	; 0xf0000000
  4052a6:	bf04      	itt	eq
  4052a8:	011b      	lsleq	r3, r3, #4
  4052aa:	3004      	addeq	r0, #4
  4052ac:	f013 4f40 	tst.w	r3, #3221225472	; 0xc0000000
  4052b0:	bf04      	itt	eq
  4052b2:	009b      	lsleq	r3, r3, #2
  4052b4:	3002      	addeq	r0, #2
  4052b6:	2b00      	cmp	r3, #0
  4052b8:	db02      	blt.n	4052c0 <__hi0bits+0x34>
  4052ba:	005b      	lsls	r3, r3, #1
  4052bc:	d403      	bmi.n	4052c6 <__hi0bits+0x3a>
  4052be:	2020      	movs	r0, #32
  4052c0:	4770      	bx	lr
  4052c2:	2000      	movs	r0, #0
  4052c4:	e7e8      	b.n	405298 <__hi0bits+0xc>
  4052c6:	3001      	adds	r0, #1
  4052c8:	4770      	bx	lr
  4052ca:	bf00      	nop

004052cc <__lo0bits>:
  4052cc:	6803      	ldr	r3, [r0, #0]
  4052ce:	f013 0207 	ands.w	r2, r3, #7
  4052d2:	4601      	mov	r1, r0
  4052d4:	d007      	beq.n	4052e6 <__lo0bits+0x1a>
  4052d6:	07da      	lsls	r2, r3, #31
  4052d8:	d421      	bmi.n	40531e <__lo0bits+0x52>
  4052da:	0798      	lsls	r0, r3, #30
  4052dc:	d421      	bmi.n	405322 <__lo0bits+0x56>
  4052de:	089b      	lsrs	r3, r3, #2
  4052e0:	600b      	str	r3, [r1, #0]
  4052e2:	2002      	movs	r0, #2
  4052e4:	4770      	bx	lr
  4052e6:	b298      	uxth	r0, r3
  4052e8:	b198      	cbz	r0, 405312 <__lo0bits+0x46>
  4052ea:	4610      	mov	r0, r2
  4052ec:	f013 0fff 	tst.w	r3, #255	; 0xff
  4052f0:	bf04      	itt	eq
  4052f2:	0a1b      	lsreq	r3, r3, #8
  4052f4:	3008      	addeq	r0, #8
  4052f6:	071a      	lsls	r2, r3, #28
  4052f8:	bf04      	itt	eq
  4052fa:	091b      	lsreq	r3, r3, #4
  4052fc:	3004      	addeq	r0, #4
  4052fe:	079a      	lsls	r2, r3, #30
  405300:	bf04      	itt	eq
  405302:	089b      	lsreq	r3, r3, #2
  405304:	3002      	addeq	r0, #2
  405306:	07da      	lsls	r2, r3, #31
  405308:	d407      	bmi.n	40531a <__lo0bits+0x4e>
  40530a:	085b      	lsrs	r3, r3, #1
  40530c:	d104      	bne.n	405318 <__lo0bits+0x4c>
  40530e:	2020      	movs	r0, #32
  405310:	4770      	bx	lr
  405312:	0c1b      	lsrs	r3, r3, #16
  405314:	2010      	movs	r0, #16
  405316:	e7e9      	b.n	4052ec <__lo0bits+0x20>
  405318:	3001      	adds	r0, #1
  40531a:	600b      	str	r3, [r1, #0]
  40531c:	4770      	bx	lr
  40531e:	2000      	movs	r0, #0
  405320:	4770      	bx	lr
  405322:	085b      	lsrs	r3, r3, #1
  405324:	600b      	str	r3, [r1, #0]
  405326:	2001      	movs	r0, #1
  405328:	4770      	bx	lr
  40532a:	bf00      	nop

0040532c <__i2b>:
  40532c:	b510      	push	{r4, lr}
  40532e:	460c      	mov	r4, r1
  405330:	2101      	movs	r1, #1
  405332:	f7ff ff3b 	bl	4051ac <_Balloc>
  405336:	2201      	movs	r2, #1
  405338:	6144      	str	r4, [r0, #20]
  40533a:	6102      	str	r2, [r0, #16]
  40533c:	bd10      	pop	{r4, pc}
  40533e:	bf00      	nop

00405340 <__multiply>:
  405340:	e92d 4ff0 	stmdb	sp!, {r4, r5, r6, r7, r8, r9, sl, fp, lr}
  405344:	690c      	ldr	r4, [r1, #16]
  405346:	6915      	ldr	r5, [r2, #16]
  405348:	42ac      	cmp	r4, r5
  40534a:	b083      	sub	sp, #12
  40534c:	468b      	mov	fp, r1
  40534e:	4616      	mov	r6, r2
  405350:	da04      	bge.n	40535c <__multiply+0x1c>
  405352:	4622      	mov	r2, r4
  405354:	46b3      	mov	fp, r6
  405356:	462c      	mov	r4, r5
  405358:	460e      	mov	r6, r1
  40535a:	4615      	mov	r5, r2
  40535c:	f8db 3008 	ldr.w	r3, [fp, #8]
  405360:	f8db 1004 	ldr.w	r1, [fp, #4]
  405364:	eb04 0805 	add.w	r8, r4, r5
  405368:	4598      	cmp	r8, r3
  40536a:	bfc8      	it	gt
  40536c:	3101      	addgt	r1, #1
  40536e:	f7ff ff1d 	bl	4051ac <_Balloc>
  405372:	f100 0914 	add.w	r9, r0, #20
  405376:	eb09 0a88 	add.w	sl, r9, r8, lsl #2
  40537a:	45d1      	cmp	r9, sl
  40537c:	9000      	str	r0, [sp, #0]
  40537e:	d205      	bcs.n	40538c <__multiply+0x4c>
  405380:	464b      	mov	r3, r9
  405382:	2100      	movs	r1, #0
  405384:	f843 1b04 	str.w	r1, [r3], #4
  405388:	459a      	cmp	sl, r3
  40538a:	d8fb      	bhi.n	405384 <__multiply+0x44>
  40538c:	f106 0c14 	add.w	ip, r6, #20
  405390:	eb0c 0385 	add.w	r3, ip, r5, lsl #2
  405394:	f10b 0b14 	add.w	fp, fp, #20
  405398:	459c      	cmp	ip, r3
  40539a:	eb0b 0e84 	add.w	lr, fp, r4, lsl #2
  40539e:	d24c      	bcs.n	40543a <__multiply+0xfa>
  4053a0:	f8cd a004 	str.w	sl, [sp, #4]
  4053a4:	469a      	mov	sl, r3
  4053a6:	f8dc 5000 	ldr.w	r5, [ip]
  4053aa:	b2af      	uxth	r7, r5
  4053ac:	b1ef      	cbz	r7, 4053ea <__multiply+0xaa>
  4053ae:	2100      	movs	r1, #0
  4053b0:	464d      	mov	r5, r9
  4053b2:	465e      	mov	r6, fp
  4053b4:	460c      	mov	r4, r1
  4053b6:	f856 2b04 	ldr.w	r2, [r6], #4
  4053ba:	6828      	ldr	r0, [r5, #0]
  4053bc:	b293      	uxth	r3, r2
  4053be:	b281      	uxth	r1, r0
  4053c0:	fb07 1303 	mla	r3, r7, r3, r1
  4053c4:	0c12      	lsrs	r2, r2, #16
  4053c6:	0c01      	lsrs	r1, r0, #16
  4053c8:	4423      	add	r3, r4
  4053ca:	fb07 1102 	mla	r1, r7, r2, r1
  4053ce:	eb01 4113 	add.w	r1, r1, r3, lsr #16
  4053d2:	b29b      	uxth	r3, r3
  4053d4:	ea43 4301 	orr.w	r3, r3, r1, lsl #16
  4053d8:	45b6      	cmp	lr, r6
  4053da:	f845 3b04 	str.w	r3, [r5], #4
  4053de:	ea4f 4411 	mov.w	r4, r1, lsr #16
  4053e2:	d8e8      	bhi.n	4053b6 <__multiply+0x76>
  4053e4:	602c      	str	r4, [r5, #0]
  4053e6:	f8dc 5000 	ldr.w	r5, [ip]
  4053ea:	0c2d      	lsrs	r5, r5, #16
  4053ec:	d01d      	beq.n	40542a <__multiply+0xea>
  4053ee:	f8d9 3000 	ldr.w	r3, [r9]
  4053f2:	4648      	mov	r0, r9
  4053f4:	461c      	mov	r4, r3
  4053f6:	4659      	mov	r1, fp
  4053f8:	2200      	movs	r2, #0
  4053fa:	880e      	ldrh	r6, [r1, #0]
  4053fc:	0c24      	lsrs	r4, r4, #16
  4053fe:	fb05 4406 	mla	r4, r5, r6, r4
  405402:	4422      	add	r2, r4
  405404:	b29b      	uxth	r3, r3
  405406:	ea43 4302 	orr.w	r3, r3, r2, lsl #16
  40540a:	f840 3b04 	str.w	r3, [r0], #4
  40540e:	f851 3b04 	ldr.w	r3, [r1], #4
  405412:	6804      	ldr	r4, [r0, #0]
  405414:	0c1b      	lsrs	r3, r3, #16
  405416:	b2a6      	uxth	r6, r4
  405418:	fb05 6303 	mla	r3, r5, r3, r6
  40541c:	eb03 4312 	add.w	r3, r3, r2, lsr #16
  405420:	458e      	cmp	lr, r1
  405422:	ea4f 4213 	mov.w	r2, r3, lsr #16
  405426:	d8e8      	bhi.n	4053fa <__multiply+0xba>
  405428:	6003      	str	r3, [r0, #0]
  40542a:	f10c 0c04 	add.w	ip, ip, #4
  40542e:	45e2      	cmp	sl, ip
  405430:	f109 0904 	add.w	r9, r9, #4
  405434:	d8b7      	bhi.n	4053a6 <__multiply+0x66>
  405436:	f8dd a004 	ldr.w	sl, [sp, #4]
  40543a:	f1b8 0f00 	cmp.w	r8, #0
  40543e:	dd0b      	ble.n	405458 <__multiply+0x118>
  405440:	f85a 3c04 	ldr.w	r3, [sl, #-4]
  405444:	f1aa 0a04 	sub.w	sl, sl, #4
  405448:	b11b      	cbz	r3, 405452 <__multiply+0x112>
  40544a:	e005      	b.n	405458 <__multiply+0x118>
  40544c:	f85a 3d04 	ldr.w	r3, [sl, #-4]!
  405450:	b913      	cbnz	r3, 405458 <__multiply+0x118>
  405452:	f1b8 0801 	subs.w	r8, r8, #1
  405456:	d1f9      	bne.n	40544c <__multiply+0x10c>
  405458:	9800      	ldr	r0, [sp, #0]
  40545a:	f8c0 8010 	str.w	r8, [r0, #16]
  40545e:	b003      	add	sp, #12
  405460:	e8bd 8ff0 	ldmia.w	sp!, {r4, r5, r6, r7, r8, r9, sl, fp, pc}

00405464 <__pow5mult>:
  405464:	f012 0303 	ands.w	r3, r2, #3
  405468:	e92d 41f0 	stmdb	sp!, {r4, r5, r6, r7, r8, lr}
  40546c:	4614      	mov	r4, r2
  40546e:	4607      	mov	r7, r0
  405470:	d12e      	bne.n	4054d0 <__pow5mult+0x6c>
  405472:	460d      	mov	r5, r1
  405474:	10a4      	asrs	r4, r4, #2
  405476:	d01c      	beq.n	4054b2 <__pow5mult+0x4e>
  405478:	6cbe      	ldr	r6, [r7, #72]	; 0x48
  40547a:	b396      	cbz	r6, 4054e2 <__pow5mult+0x7e>
  40547c:	07e3      	lsls	r3, r4, #31
  40547e:	f04f 0800 	mov.w	r8, #0
  405482:	d406      	bmi.n	405492 <__pow5mult+0x2e>
  405484:	1064      	asrs	r4, r4, #1
  405486:	d014      	beq.n	4054b2 <__pow5mult+0x4e>
  405488:	6830      	ldr	r0, [r6, #0]
  40548a:	b1a8      	cbz	r0, 4054b8 <__pow5mult+0x54>
  40548c:	4606      	mov	r6, r0
  40548e:	07e3      	lsls	r3, r4, #31
  405490:	d5f8      	bpl.n	405484 <__pow5mult+0x20>
  405492:	4632      	mov	r2, r6
  405494:	4629      	mov	r1, r5
  405496:	4638      	mov	r0, r7
  405498:	f7ff ff52 	bl	405340 <__multiply>
  40549c:	b1b5      	cbz	r5, 4054cc <__pow5mult+0x68>
  40549e:	686a      	ldr	r2, [r5, #4]
  4054a0:	6cfb      	ldr	r3, [r7, #76]	; 0x4c
  4054a2:	1064      	asrs	r4, r4, #1
  4054a4:	f853 1022 	ldr.w	r1, [r3, r2, lsl #2]
  4054a8:	6029      	str	r1, [r5, #0]
  4054aa:	f843 5022 	str.w	r5, [r3, r2, lsl #2]
  4054ae:	4605      	mov	r5, r0
  4054b0:	d1ea      	bne.n	405488 <__pow5mult+0x24>
  4054b2:	4628      	mov	r0, r5
  4054b4:	e8bd 81f0 	ldmia.w	sp!, {r4, r5, r6, r7, r8, pc}
  4054b8:	4632      	mov	r2, r6
  4054ba:	4631      	mov	r1, r6
  4054bc:	4638      	mov	r0, r7
  4054be:	f7ff ff3f 	bl	405340 <__multiply>
  4054c2:	6030      	str	r0, [r6, #0]
  4054c4:	f8c0 8000 	str.w	r8, [r0]
  4054c8:	4606      	mov	r6, r0
  4054ca:	e7e0      	b.n	40548e <__pow5mult+0x2a>
  4054cc:	4605      	mov	r5, r0
  4054ce:	e7d9      	b.n	405484 <__pow5mult+0x20>
  4054d0:	1e5a      	subs	r2, r3, #1
  4054d2:	4d0b      	ldr	r5, [pc, #44]	; (405500 <__pow5mult+0x9c>)
  4054d4:	2300      	movs	r3, #0
  4054d6:	f855 2022 	ldr.w	r2, [r5, r2, lsl #2]
  4054da:	f7ff fe97 	bl	40520c <__multadd>
  4054de:	4605      	mov	r5, r0
  4054e0:	e7c8      	b.n	405474 <__pow5mult+0x10>
  4054e2:	2101      	movs	r1, #1
  4054e4:	4638      	mov	r0, r7
  4054e6:	f7ff fe61 	bl	4051ac <_Balloc>
  4054ea:	f240 2171 	movw	r1, #625	; 0x271
  4054ee:	2201      	movs	r2, #1
  4054f0:	2300      	movs	r3, #0
  4054f2:	6141      	str	r1, [r0, #20]
  4054f4:	6102      	str	r2, [r0, #16]
  4054f6:	4606      	mov	r6, r0
  4054f8:	64b8      	str	r0, [r7, #72]	; 0x48
  4054fa:	6003      	str	r3, [r0, #0]
  4054fc:	e7be      	b.n	40547c <__pow5mult+0x18>
  4054fe:	bf00      	nop
  405500:	00406f10 	.word	0x00406f10

00405504 <__lshift>:
  405504:	e92d 43f8 	stmdb	sp!, {r3, r4, r5, r6, r7, r8, r9, lr}
  405508:	4691      	mov	r9, r2
  40550a:	690a      	ldr	r2, [r1, #16]
  40550c:	688b      	ldr	r3, [r1, #8]
  40550e:	ea4f 1469 	mov.w	r4, r9, asr #5
  405512:	eb04 0802 	add.w	r8, r4, r2
  405516:	f108 0501 	add.w	r5, r8, #1
  40551a:	429d      	cmp	r5, r3
  40551c:	460e      	mov	r6, r1
  40551e:	4607      	mov	r7, r0
  405520:	6849      	ldr	r1, [r1, #4]
  405522:	dd04      	ble.n	40552e <__lshift+0x2a>
  405524:	005b      	lsls	r3, r3, #1
  405526:	429d      	cmp	r5, r3
  405528:	f101 0101 	add.w	r1, r1, #1
  40552c:	dcfa      	bgt.n	405524 <__lshift+0x20>
  40552e:	4638      	mov	r0, r7
  405530:	f7ff fe3c 	bl	4051ac <_Balloc>
  405534:	2c00      	cmp	r4, #0
  405536:	f100 0314 	add.w	r3, r0, #20
  40553a:	dd06      	ble.n	40554a <__lshift+0x46>
  40553c:	eb03 0284 	add.w	r2, r3, r4, lsl #2
  405540:	2100      	movs	r1, #0
  405542:	f843 1b04 	str.w	r1, [r3], #4
  405546:	429a      	cmp	r2, r3
  405548:	d1fb      	bne.n	405542 <__lshift+0x3e>
  40554a:	6934      	ldr	r4, [r6, #16]
  40554c:	f106 0114 	add.w	r1, r6, #20
  405550:	f019 091f 	ands.w	r9, r9, #31
  405554:	eb01 0e84 	add.w	lr, r1, r4, lsl #2
  405558:	d01d      	beq.n	405596 <__lshift+0x92>
  40555a:	f1c9 0c20 	rsb	ip, r9, #32
  40555e:	2200      	movs	r2, #0
  405560:	680c      	ldr	r4, [r1, #0]
  405562:	fa04 f409 	lsl.w	r4, r4, r9
  405566:	4314      	orrs	r4, r2
  405568:	f843 4b04 	str.w	r4, [r3], #4
  40556c:	f851 2b04 	ldr.w	r2, [r1], #4
  405570:	458e      	cmp	lr, r1
  405572:	fa22 f20c 	lsr.w	r2, r2, ip
  405576:	d8f3      	bhi.n	405560 <__lshift+0x5c>
  405578:	601a      	str	r2, [r3, #0]
  40557a:	b10a      	cbz	r2, 405580 <__lshift+0x7c>
  40557c:	f108 0502 	add.w	r5, r8, #2
  405580:	6cfb      	ldr	r3, [r7, #76]	; 0x4c
  405582:	6872      	ldr	r2, [r6, #4]
  405584:	3d01      	subs	r5, #1
  405586:	f853 1022 	ldr.w	r1, [r3, r2, lsl #2]
  40558a:	6105      	str	r5, [r0, #16]
  40558c:	6031      	str	r1, [r6, #0]
  40558e:	f843 6022 	str.w	r6, [r3, r2, lsl #2]
  405592:	e8bd 83f8 	ldmia.w	sp!, {r3, r4, r5, r6, r7, r8, r9, pc}
  405596:	3b04      	subs	r3, #4
  405598:	f851 2b04 	ldr.w	r2, [r1], #4
  40559c:	f843 2f04 	str.w	r2, [r3, #4]!
  4055a0:	458e      	cmp	lr, r1
  4055a2:	d8f9      	bhi.n	405598 <__lshift+0x94>
  4055a4:	e7ec      	b.n	405580 <__lshift+0x7c>
  4055a6:	bf00      	nop

004055a8 <__mcmp>:
  4055a8:	b430      	push	{r4, r5}
  4055aa:	690b      	ldr	r3, [r1, #16]
  4055ac:	4605      	mov	r5, r0
  4055ae:	6900      	ldr	r0, [r0, #16]
  4055b0:	1ac0      	subs	r0, r0, r3
  4055b2:	d10f      	bne.n	4055d4 <__mcmp+0x2c>
  4055b4:	009b      	lsls	r3, r3, #2
  4055b6:	3514      	adds	r5, #20
  4055b8:	3114      	adds	r1, #20
  4055ba:	4419      	add	r1, r3
  4055bc:	442b      	add	r3, r5
  4055be:	e001      	b.n	4055c4 <__mcmp+0x1c>
  4055c0:	429d      	cmp	r5, r3
  4055c2:	d207      	bcs.n	4055d4 <__mcmp+0x2c>
  4055c4:	f853 4d04 	ldr.w	r4, [r3, #-4]!
  4055c8:	f851 2d04 	ldr.w	r2, [r1, #-4]!
  4055cc:	4294      	cmp	r4, r2
  4055ce:	d0f7      	beq.n	4055c0 <__mcmp+0x18>
  4055d0:	d302      	bcc.n	4055d8 <__mcmp+0x30>
  4055d2:	2001      	movs	r0, #1
  4055d4:	bc30      	pop	{r4, r5}
  4055d6:	4770      	bx	lr
  4055d8:	f04f 30ff 	mov.w	r0, #4294967295
  4055dc:	e7fa      	b.n	4055d4 <__mcmp+0x2c>
  4055de:	bf00      	nop

004055e0 <__mdiff>:
  4055e0:	e92d 41f0 	stmdb	sp!, {r4, r5, r6, r7, r8, lr}
  4055e4:	690f      	ldr	r7, [r1, #16]
  4055e6:	460e      	mov	r6, r1
  4055e8:	6911      	ldr	r1, [r2, #16]
  4055ea:	1a7f      	subs	r7, r7, r1
  4055ec:	2f00      	cmp	r7, #0
  4055ee:	4690      	mov	r8, r2
  4055f0:	d117      	bne.n	405622 <__mdiff+0x42>
  4055f2:	0089      	lsls	r1, r1, #2
  4055f4:	f106 0514 	add.w	r5, r6, #20
  4055f8:	f102 0e14 	add.w	lr, r2, #20
  4055fc:	186b      	adds	r3, r5, r1
  4055fe:	4471      	add	r1, lr
  405600:	e001      	b.n	405606 <__mdiff+0x26>
  405602:	429d      	cmp	r5, r3
  405604:	d25c      	bcs.n	4056c0 <__mdiff+0xe0>
  405606:	f853 2d04 	ldr.w	r2, [r3, #-4]!
  40560a:	f851 4d04 	ldr.w	r4, [r1, #-4]!
  40560e:	42a2      	cmp	r2, r4
  405610:	d0f7      	beq.n	405602 <__mdiff+0x22>
  405612:	d25e      	bcs.n	4056d2 <__mdiff+0xf2>
  405614:	4633      	mov	r3, r6
  405616:	462c      	mov	r4, r5
  405618:	4646      	mov	r6, r8
  40561a:	4675      	mov	r5, lr
  40561c:	4698      	mov	r8, r3
  40561e:	2701      	movs	r7, #1
  405620:	e005      	b.n	40562e <__mdiff+0x4e>
  405622:	db58      	blt.n	4056d6 <__mdiff+0xf6>
  405624:	f106 0514 	add.w	r5, r6, #20
  405628:	f108 0414 	add.w	r4, r8, #20
  40562c:	2700      	movs	r7, #0
  40562e:	6871      	ldr	r1, [r6, #4]
  405630:	f7ff fdbc 	bl	4051ac <_Balloc>
  405634:	f8d8 3010 	ldr.w	r3, [r8, #16]
  405638:	6936      	ldr	r6, [r6, #16]
  40563a:	60c7      	str	r7, [r0, #12]
  40563c:	eb04 0c83 	add.w	ip, r4, r3, lsl #2
  405640:	46a6      	mov	lr, r4
  405642:	eb05 0786 	add.w	r7, r5, r6, lsl #2
  405646:	f100 0414 	add.w	r4, r0, #20
  40564a:	2300      	movs	r3, #0
  40564c:	f85e 1b04 	ldr.w	r1, [lr], #4
  405650:	f855 8b04 	ldr.w	r8, [r5], #4
  405654:	b28a      	uxth	r2, r1
  405656:	fa13 f388 	uxtah	r3, r3, r8
  40565a:	0c09      	lsrs	r1, r1, #16
  40565c:	1a9a      	subs	r2, r3, r2
  40565e:	ebc1 4318 	rsb	r3, r1, r8, lsr #16
  405662:	eb03 4322 	add.w	r3, r3, r2, asr #16
  405666:	b292      	uxth	r2, r2
  405668:	ea42 4203 	orr.w	r2, r2, r3, lsl #16
  40566c:	45f4      	cmp	ip, lr
  40566e:	f844 2b04 	str.w	r2, [r4], #4
  405672:	ea4f 4323 	mov.w	r3, r3, asr #16
  405676:	d8e9      	bhi.n	40564c <__mdiff+0x6c>
  405678:	42af      	cmp	r7, r5
  40567a:	d917      	bls.n	4056ac <__mdiff+0xcc>
  40567c:	46a4      	mov	ip, r4
  40567e:	46ae      	mov	lr, r5
  405680:	f85e 2b04 	ldr.w	r2, [lr], #4
  405684:	fa13 f382 	uxtah	r3, r3, r2
  405688:	1419      	asrs	r1, r3, #16
  40568a:	eb01 4112 	add.w	r1, r1, r2, lsr #16
  40568e:	b29b      	uxth	r3, r3
  405690:	ea43 4201 	orr.w	r2, r3, r1, lsl #16
  405694:	4577      	cmp	r7, lr
  405696:	f84c 2b04 	str.w	r2, [ip], #4
  40569a:	ea4f 4321 	mov.w	r3, r1, asr #16
  40569e:	d8ef      	bhi.n	405680 <__mdiff+0xa0>
  4056a0:	43ed      	mvns	r5, r5
  4056a2:	442f      	add	r7, r5
  4056a4:	f027 0703 	bic.w	r7, r7, #3
  4056a8:	3704      	adds	r7, #4
  4056aa:	443c      	add	r4, r7
  4056ac:	3c04      	subs	r4, #4
  4056ae:	b922      	cbnz	r2, 4056ba <__mdiff+0xda>
  4056b0:	f854 3d04 	ldr.w	r3, [r4, #-4]!
  4056b4:	3e01      	subs	r6, #1
  4056b6:	2b00      	cmp	r3, #0
  4056b8:	d0fa      	beq.n	4056b0 <__mdiff+0xd0>
  4056ba:	6106      	str	r6, [r0, #16]
  4056bc:	e8bd 81f0 	ldmia.w	sp!, {r4, r5, r6, r7, r8, pc}
  4056c0:	2100      	movs	r1, #0
  4056c2:	f7ff fd73 	bl	4051ac <_Balloc>
  4056c6:	2201      	movs	r2, #1
  4056c8:	2300      	movs	r3, #0
  4056ca:	6102      	str	r2, [r0, #16]
  4056cc:	6143      	str	r3, [r0, #20]
  4056ce:	e8bd 81f0 	ldmia.w	sp!, {r4, r5, r6, r7, r8, pc}
  4056d2:	4674      	mov	r4, lr
  4056d4:	e7ab      	b.n	40562e <__mdiff+0x4e>
  4056d6:	4633      	mov	r3, r6
  4056d8:	f106 0414 	add.w	r4, r6, #20
  4056dc:	f102 0514 	add.w	r5, r2, #20
  4056e0:	4616      	mov	r6, r2
  4056e2:	2701      	movs	r7, #1
  4056e4:	4698      	mov	r8, r3
  4056e6:	e7a2      	b.n	40562e <__mdiff+0x4e>

004056e8 <__d2b>:
  4056e8:	e92d 41f0 	stmdb	sp!, {r4, r5, r6, r7, r8, lr}
  4056ec:	b082      	sub	sp, #8
  4056ee:	2101      	movs	r1, #1
  4056f0:	461c      	mov	r4, r3
  4056f2:	f3c3 570a 	ubfx	r7, r3, #20, #11
  4056f6:	4615      	mov	r5, r2
  4056f8:	9e08      	ldr	r6, [sp, #32]
  4056fa:	f7ff fd57 	bl	4051ac <_Balloc>
  4056fe:	f3c4 0413 	ubfx	r4, r4, #0, #20
  405702:	4680      	mov	r8, r0
  405704:	b10f      	cbz	r7, 40570a <__d2b+0x22>
  405706:	f444 1480 	orr.w	r4, r4, #1048576	; 0x100000
  40570a:	9401      	str	r4, [sp, #4]
  40570c:	b31d      	cbz	r5, 405756 <__d2b+0x6e>
  40570e:	a802      	add	r0, sp, #8
  405710:	f840 5d08 	str.w	r5, [r0, #-8]!
  405714:	f7ff fdda 	bl	4052cc <__lo0bits>
  405718:	2800      	cmp	r0, #0
  40571a:	d134      	bne.n	405786 <__d2b+0x9e>
  40571c:	e89d 000c 	ldmia.w	sp, {r2, r3}
  405720:	f8c8 2014 	str.w	r2, [r8, #20]
  405724:	2b00      	cmp	r3, #0
  405726:	bf0c      	ite	eq
  405728:	2101      	moveq	r1, #1
  40572a:	2102      	movne	r1, #2
  40572c:	f8c8 3018 	str.w	r3, [r8, #24]
  405730:	f8c8 1010 	str.w	r1, [r8, #16]
  405734:	b9df      	cbnz	r7, 40576e <__d2b+0x86>
  405736:	eb08 0381 	add.w	r3, r8, r1, lsl #2
  40573a:	f2a0 4032 	subw	r0, r0, #1074	; 0x432
  40573e:	6030      	str	r0, [r6, #0]
  405740:	6918      	ldr	r0, [r3, #16]
  405742:	f7ff fda3 	bl	40528c <__hi0bits>
  405746:	9b09      	ldr	r3, [sp, #36]	; 0x24
  405748:	ebc0 1041 	rsb	r0, r0, r1, lsl #5
  40574c:	6018      	str	r0, [r3, #0]
  40574e:	4640      	mov	r0, r8
  405750:	b002      	add	sp, #8
  405752:	e8bd 81f0 	ldmia.w	sp!, {r4, r5, r6, r7, r8, pc}
  405756:	a801      	add	r0, sp, #4
  405758:	f7ff fdb8 	bl	4052cc <__lo0bits>
  40575c:	9b01      	ldr	r3, [sp, #4]
  40575e:	f8c8 3014 	str.w	r3, [r8, #20]
  405762:	2101      	movs	r1, #1
  405764:	3020      	adds	r0, #32
  405766:	f8c8 1010 	str.w	r1, [r8, #16]
  40576a:	2f00      	cmp	r7, #0
  40576c:	d0e3      	beq.n	405736 <__d2b+0x4e>
  40576e:	9b09      	ldr	r3, [sp, #36]	; 0x24
  405770:	f2a7 4733 	subw	r7, r7, #1075	; 0x433
  405774:	4407      	add	r7, r0
  405776:	f1c0 0035 	rsb	r0, r0, #53	; 0x35
  40577a:	6037      	str	r7, [r6, #0]
  40577c:	6018      	str	r0, [r3, #0]
  40577e:	4640      	mov	r0, r8
  405780:	b002      	add	sp, #8
  405782:	e8bd 81f0 	ldmia.w	sp!, {r4, r5, r6, r7, r8, pc}
  405786:	e89d 000a 	ldmia.w	sp, {r1, r3}
  40578a:	f1c0 0220 	rsb	r2, r0, #32
  40578e:	fa03 f202 	lsl.w	r2, r3, r2
  405792:	430a      	orrs	r2, r1
  405794:	40c3      	lsrs	r3, r0
  405796:	9301      	str	r3, [sp, #4]
  405798:	f8c8 2014 	str.w	r2, [r8, #20]
  40579c:	e7c2      	b.n	405724 <__d2b+0x3c>
  40579e:	bf00      	nop

004057a0 <_sbrk_r>:
  4057a0:	b538      	push	{r3, r4, r5, lr}
  4057a2:	4c07      	ldr	r4, [pc, #28]	; (4057c0 <_sbrk_r+0x20>)
  4057a4:	2300      	movs	r3, #0
  4057a6:	4605      	mov	r5, r0
  4057a8:	4608      	mov	r0, r1
  4057aa:	6023      	str	r3, [r4, #0]
  4057ac:	f7fb fec0 	bl	401530 <_sbrk>
  4057b0:	1c43      	adds	r3, r0, #1
  4057b2:	d000      	beq.n	4057b6 <_sbrk_r+0x16>
  4057b4:	bd38      	pop	{r3, r4, r5, pc}
  4057b6:	6823      	ldr	r3, [r4, #0]
  4057b8:	2b00      	cmp	r3, #0
  4057ba:	d0fb      	beq.n	4057b4 <_sbrk_r+0x14>
  4057bc:	602b      	str	r3, [r5, #0]
  4057be:	bd38      	pop	{r3, r4, r5, pc}
  4057c0:	20400d58 	.word	0x20400d58
	...

00405800 <strlen>:
  405800:	f890 f000 	pld	[r0]
  405804:	e96d 4502 	strd	r4, r5, [sp, #-8]!
  405808:	f020 0107 	bic.w	r1, r0, #7
  40580c:	f06f 0c00 	mvn.w	ip, #0
  405810:	f010 0407 	ands.w	r4, r0, #7
  405814:	f891 f020 	pld	[r1, #32]
  405818:	f040 8049 	bne.w	4058ae <strlen+0xae>
  40581c:	f04f 0400 	mov.w	r4, #0
  405820:	f06f 0007 	mvn.w	r0, #7
  405824:	e9d1 2300 	ldrd	r2, r3, [r1]
  405828:	f891 f040 	pld	[r1, #64]	; 0x40
  40582c:	f100 0008 	add.w	r0, r0, #8
  405830:	fa82 f24c 	uadd8	r2, r2, ip
  405834:	faa4 f28c 	sel	r2, r4, ip
  405838:	fa83 f34c 	uadd8	r3, r3, ip
  40583c:	faa2 f38c 	sel	r3, r2, ip
  405840:	bb4b      	cbnz	r3, 405896 <strlen+0x96>
  405842:	e9d1 2302 	ldrd	r2, r3, [r1, #8]
  405846:	fa82 f24c 	uadd8	r2, r2, ip
  40584a:	f100 0008 	add.w	r0, r0, #8
  40584e:	faa4 f28c 	sel	r2, r4, ip
  405852:	fa83 f34c 	uadd8	r3, r3, ip
  405856:	faa2 f38c 	sel	r3, r2, ip
  40585a:	b9e3      	cbnz	r3, 405896 <strlen+0x96>
  40585c:	e9d1 2304 	ldrd	r2, r3, [r1, #16]
  405860:	fa82 f24c 	uadd8	r2, r2, ip
  405864:	f100 0008 	add.w	r0, r0, #8
  405868:	faa4 f28c 	sel	r2, r4, ip
  40586c:	fa83 f34c 	uadd8	r3, r3, ip
  405870:	faa2 f38c 	sel	r3, r2, ip
  405874:	b97b      	cbnz	r3, 405896 <strlen+0x96>
  405876:	e9d1 2306 	ldrd	r2, r3, [r1, #24]
  40587a:	f101 0120 	add.w	r1, r1, #32
  40587e:	fa82 f24c 	uadd8	r2, r2, ip
  405882:	f100 0008 	add.w	r0, r0, #8
  405886:	faa4 f28c 	sel	r2, r4, ip
  40588a:	fa83 f34c 	uadd8	r3, r3, ip
  40588e:	faa2 f38c 	sel	r3, r2, ip
  405892:	2b00      	cmp	r3, #0
  405894:	d0c6      	beq.n	405824 <strlen+0x24>
  405896:	2a00      	cmp	r2, #0
  405898:	bf04      	itt	eq
  40589a:	3004      	addeq	r0, #4
  40589c:	461a      	moveq	r2, r3
  40589e:	ba12      	rev	r2, r2
  4058a0:	fab2 f282 	clz	r2, r2
  4058a4:	e8fd 4502 	ldrd	r4, r5, [sp], #8
  4058a8:	eb00 00d2 	add.w	r0, r0, r2, lsr #3
  4058ac:	4770      	bx	lr
  4058ae:	e9d1 2300 	ldrd	r2, r3, [r1]
  4058b2:	f004 0503 	and.w	r5, r4, #3
  4058b6:	f1c4 0000 	rsb	r0, r4, #0
  4058ba:	ea4f 05c5 	mov.w	r5, r5, lsl #3
  4058be:	f014 0f04 	tst.w	r4, #4
  4058c2:	f891 f040 	pld	[r1, #64]	; 0x40
  4058c6:	fa0c f505 	lsl.w	r5, ip, r5
  4058ca:	ea62 0205 	orn	r2, r2, r5
  4058ce:	bf1c      	itt	ne
  4058d0:	ea63 0305 	ornne	r3, r3, r5
  4058d4:	4662      	movne	r2, ip
  4058d6:	f04f 0400 	mov.w	r4, #0
  4058da:	e7a9      	b.n	405830 <strlen+0x30>

004058dc <__ssprint_r>:
  4058dc:	e92d 4ff0 	stmdb	sp!, {r4, r5, r6, r7, r8, r9, sl, fp, lr}
  4058e0:	6893      	ldr	r3, [r2, #8]
  4058e2:	b083      	sub	sp, #12
  4058e4:	4690      	mov	r8, r2
  4058e6:	2b00      	cmp	r3, #0
  4058e8:	d070      	beq.n	4059cc <__ssprint_r+0xf0>
  4058ea:	4682      	mov	sl, r0
  4058ec:	460c      	mov	r4, r1
  4058ee:	6817      	ldr	r7, [r2, #0]
  4058f0:	688d      	ldr	r5, [r1, #8]
  4058f2:	6808      	ldr	r0, [r1, #0]
  4058f4:	e042      	b.n	40597c <__ssprint_r+0xa0>
  4058f6:	89a3      	ldrh	r3, [r4, #12]
  4058f8:	f413 6f90 	tst.w	r3, #1152	; 0x480
  4058fc:	d02e      	beq.n	40595c <__ssprint_r+0x80>
  4058fe:	6965      	ldr	r5, [r4, #20]
  405900:	6921      	ldr	r1, [r4, #16]
  405902:	eb05 0545 	add.w	r5, r5, r5, lsl #1
  405906:	eba0 0b01 	sub.w	fp, r0, r1
  40590a:	eb05 75d5 	add.w	r5, r5, r5, lsr #31
  40590e:	f10b 0001 	add.w	r0, fp, #1
  405912:	106d      	asrs	r5, r5, #1
  405914:	4430      	add	r0, r6
  405916:	42a8      	cmp	r0, r5
  405918:	462a      	mov	r2, r5
  40591a:	bf84      	itt	hi
  40591c:	4605      	movhi	r5, r0
  40591e:	462a      	movhi	r2, r5
  405920:	055b      	lsls	r3, r3, #21
  405922:	d538      	bpl.n	405996 <__ssprint_r+0xba>
  405924:	4611      	mov	r1, r2
  405926:	4650      	mov	r0, sl
  405928:	f7ff f894 	bl	404a54 <_malloc_r>
  40592c:	2800      	cmp	r0, #0
  40592e:	d03c      	beq.n	4059aa <__ssprint_r+0xce>
  405930:	465a      	mov	r2, fp
  405932:	6921      	ldr	r1, [r4, #16]
  405934:	9001      	str	r0, [sp, #4]
  405936:	f7ff fb93 	bl	405060 <memcpy>
  40593a:	89a2      	ldrh	r2, [r4, #12]
  40593c:	9b01      	ldr	r3, [sp, #4]
  40593e:	f422 6290 	bic.w	r2, r2, #1152	; 0x480
  405942:	f042 0280 	orr.w	r2, r2, #128	; 0x80
  405946:	81a2      	strh	r2, [r4, #12]
  405948:	eba5 020b 	sub.w	r2, r5, fp
  40594c:	eb03 000b 	add.w	r0, r3, fp
  405950:	6165      	str	r5, [r4, #20]
  405952:	6123      	str	r3, [r4, #16]
  405954:	6020      	str	r0, [r4, #0]
  405956:	60a2      	str	r2, [r4, #8]
  405958:	4635      	mov	r5, r6
  40595a:	46b3      	mov	fp, r6
  40595c:	465a      	mov	r2, fp
  40595e:	4649      	mov	r1, r9
  405960:	f000 fa18 	bl	405d94 <memmove>
  405964:	f8d8 3008 	ldr.w	r3, [r8, #8]
  405968:	68a2      	ldr	r2, [r4, #8]
  40596a:	6820      	ldr	r0, [r4, #0]
  40596c:	1b55      	subs	r5, r2, r5
  40596e:	4458      	add	r0, fp
  405970:	1b9e      	subs	r6, r3, r6
  405972:	60a5      	str	r5, [r4, #8]
  405974:	6020      	str	r0, [r4, #0]
  405976:	f8c8 6008 	str.w	r6, [r8, #8]
  40597a:	b33e      	cbz	r6, 4059cc <__ssprint_r+0xf0>
  40597c:	687e      	ldr	r6, [r7, #4]
  40597e:	463b      	mov	r3, r7
  405980:	3708      	adds	r7, #8
  405982:	2e00      	cmp	r6, #0
  405984:	d0fa      	beq.n	40597c <__ssprint_r+0xa0>
  405986:	42ae      	cmp	r6, r5
  405988:	f8d3 9000 	ldr.w	r9, [r3]
  40598c:	46ab      	mov	fp, r5
  40598e:	d2b2      	bcs.n	4058f6 <__ssprint_r+0x1a>
  405990:	4635      	mov	r5, r6
  405992:	46b3      	mov	fp, r6
  405994:	e7e2      	b.n	40595c <__ssprint_r+0x80>
  405996:	4650      	mov	r0, sl
  405998:	f000 fa60 	bl	405e5c <_realloc_r>
  40599c:	4603      	mov	r3, r0
  40599e:	2800      	cmp	r0, #0
  4059a0:	d1d2      	bne.n	405948 <__ssprint_r+0x6c>
  4059a2:	6921      	ldr	r1, [r4, #16]
  4059a4:	4650      	mov	r0, sl
  4059a6:	f000 f8f9 	bl	405b9c <_free_r>
  4059aa:	230c      	movs	r3, #12
  4059ac:	f8ca 3000 	str.w	r3, [sl]
  4059b0:	89a3      	ldrh	r3, [r4, #12]
  4059b2:	2200      	movs	r2, #0
  4059b4:	f043 0340 	orr.w	r3, r3, #64	; 0x40
  4059b8:	f04f 30ff 	mov.w	r0, #4294967295
  4059bc:	81a3      	strh	r3, [r4, #12]
  4059be:	f8c8 2008 	str.w	r2, [r8, #8]
  4059c2:	f8c8 2004 	str.w	r2, [r8, #4]
  4059c6:	b003      	add	sp, #12
  4059c8:	e8bd 8ff0 	ldmia.w	sp!, {r4, r5, r6, r7, r8, r9, sl, fp, pc}
  4059cc:	2000      	movs	r0, #0
  4059ce:	f8c8 0004 	str.w	r0, [r8, #4]
  4059d2:	b003      	add	sp, #12
  4059d4:	e8bd 8ff0 	ldmia.w	sp!, {r4, r5, r6, r7, r8, r9, sl, fp, pc}

004059d8 <__register_exitproc>:
  4059d8:	e92d 43f8 	stmdb	sp!, {r3, r4, r5, r6, r7, r8, r9, lr}
  4059dc:	4d2c      	ldr	r5, [pc, #176]	; (405a90 <__register_exitproc+0xb8>)
  4059de:	4606      	mov	r6, r0
  4059e0:	6828      	ldr	r0, [r5, #0]
  4059e2:	4698      	mov	r8, r3
  4059e4:	460f      	mov	r7, r1
  4059e6:	4691      	mov	r9, r2
  4059e8:	f7ff f830 	bl	404a4c <__retarget_lock_acquire_recursive>
  4059ec:	4b29      	ldr	r3, [pc, #164]	; (405a94 <__register_exitproc+0xbc>)
  4059ee:	681c      	ldr	r4, [r3, #0]
  4059f0:	f8d4 3148 	ldr.w	r3, [r4, #328]	; 0x148
  4059f4:	2b00      	cmp	r3, #0
  4059f6:	d03e      	beq.n	405a76 <__register_exitproc+0x9e>
  4059f8:	685a      	ldr	r2, [r3, #4]
  4059fa:	2a1f      	cmp	r2, #31
  4059fc:	dc1c      	bgt.n	405a38 <__register_exitproc+0x60>
  4059fe:	f102 0e01 	add.w	lr, r2, #1
  405a02:	b176      	cbz	r6, 405a22 <__register_exitproc+0x4a>
  405a04:	eb03 0182 	add.w	r1, r3, r2, lsl #2
  405a08:	2401      	movs	r4, #1
  405a0a:	f8c1 9088 	str.w	r9, [r1, #136]	; 0x88
  405a0e:	f8d3 0188 	ldr.w	r0, [r3, #392]	; 0x188
  405a12:	4094      	lsls	r4, r2
  405a14:	4320      	orrs	r0, r4
  405a16:	2e02      	cmp	r6, #2
  405a18:	f8c3 0188 	str.w	r0, [r3, #392]	; 0x188
  405a1c:	f8c1 8108 	str.w	r8, [r1, #264]	; 0x108
  405a20:	d023      	beq.n	405a6a <__register_exitproc+0x92>
  405a22:	3202      	adds	r2, #2
  405a24:	f8c3 e004 	str.w	lr, [r3, #4]
  405a28:	6828      	ldr	r0, [r5, #0]
  405a2a:	f843 7022 	str.w	r7, [r3, r2, lsl #2]
  405a2e:	f7ff f80f 	bl	404a50 <__retarget_lock_release_recursive>
  405a32:	2000      	movs	r0, #0
  405a34:	e8bd 83f8 	ldmia.w	sp!, {r3, r4, r5, r6, r7, r8, r9, pc}
  405a38:	4b17      	ldr	r3, [pc, #92]	; (405a98 <__register_exitproc+0xc0>)
  405a3a:	b30b      	cbz	r3, 405a80 <__register_exitproc+0xa8>
  405a3c:	f44f 70c8 	mov.w	r0, #400	; 0x190
  405a40:	f3af 8000 	nop.w
  405a44:	4603      	mov	r3, r0
  405a46:	b1d8      	cbz	r0, 405a80 <__register_exitproc+0xa8>
  405a48:	f8d4 2148 	ldr.w	r2, [r4, #328]	; 0x148
  405a4c:	6002      	str	r2, [r0, #0]
  405a4e:	2100      	movs	r1, #0
  405a50:	6041      	str	r1, [r0, #4]
  405a52:	460a      	mov	r2, r1
  405a54:	f8c4 0148 	str.w	r0, [r4, #328]	; 0x148
  405a58:	f04f 0e01 	mov.w	lr, #1
  405a5c:	f8c0 1188 	str.w	r1, [r0, #392]	; 0x188
  405a60:	f8c0 118c 	str.w	r1, [r0, #396]	; 0x18c
  405a64:	2e00      	cmp	r6, #0
  405a66:	d0dc      	beq.n	405a22 <__register_exitproc+0x4a>
  405a68:	e7cc      	b.n	405a04 <__register_exitproc+0x2c>
  405a6a:	f8d3 118c 	ldr.w	r1, [r3, #396]	; 0x18c
  405a6e:	430c      	orrs	r4, r1
  405a70:	f8c3 418c 	str.w	r4, [r3, #396]	; 0x18c
  405a74:	e7d5      	b.n	405a22 <__register_exitproc+0x4a>
  405a76:	f504 73a6 	add.w	r3, r4, #332	; 0x14c
  405a7a:	f8c4 3148 	str.w	r3, [r4, #328]	; 0x148
  405a7e:	e7bb      	b.n	4059f8 <__register_exitproc+0x20>
  405a80:	6828      	ldr	r0, [r5, #0]
  405a82:	f7fe ffe5 	bl	404a50 <__retarget_lock_release_recursive>
  405a86:	f04f 30ff 	mov.w	r0, #4294967295
  405a8a:	e8bd 83f8 	ldmia.w	sp!, {r3, r4, r5, r6, r7, r8, r9, pc}
  405a8e:	bf00      	nop
  405a90:	20400450 	.word	0x20400450
  405a94:	00406da8 	.word	0x00406da8
  405a98:	00000000 	.word	0x00000000

00405a9c <_calloc_r>:
  405a9c:	b510      	push	{r4, lr}
  405a9e:	fb02 f101 	mul.w	r1, r2, r1
  405aa2:	f7fe ffd7 	bl	404a54 <_malloc_r>
  405aa6:	4604      	mov	r4, r0
  405aa8:	b1d8      	cbz	r0, 405ae2 <_calloc_r+0x46>
  405aaa:	f850 2c04 	ldr.w	r2, [r0, #-4]
  405aae:	f022 0203 	bic.w	r2, r2, #3
  405ab2:	3a04      	subs	r2, #4
  405ab4:	2a24      	cmp	r2, #36	; 0x24
  405ab6:	d818      	bhi.n	405aea <_calloc_r+0x4e>
  405ab8:	2a13      	cmp	r2, #19
  405aba:	d914      	bls.n	405ae6 <_calloc_r+0x4a>
  405abc:	2300      	movs	r3, #0
  405abe:	2a1b      	cmp	r2, #27
  405ac0:	6003      	str	r3, [r0, #0]
  405ac2:	6043      	str	r3, [r0, #4]
  405ac4:	d916      	bls.n	405af4 <_calloc_r+0x58>
  405ac6:	2a24      	cmp	r2, #36	; 0x24
  405ac8:	6083      	str	r3, [r0, #8]
  405aca:	60c3      	str	r3, [r0, #12]
  405acc:	bf11      	iteee	ne
  405ace:	f100 0210 	addne.w	r2, r0, #16
  405ad2:	6103      	streq	r3, [r0, #16]
  405ad4:	6143      	streq	r3, [r0, #20]
  405ad6:	f100 0218 	addeq.w	r2, r0, #24
  405ada:	2300      	movs	r3, #0
  405adc:	6013      	str	r3, [r2, #0]
  405ade:	6053      	str	r3, [r2, #4]
  405ae0:	6093      	str	r3, [r2, #8]
  405ae2:	4620      	mov	r0, r4
  405ae4:	bd10      	pop	{r4, pc}
  405ae6:	4602      	mov	r2, r0
  405ae8:	e7f7      	b.n	405ada <_calloc_r+0x3e>
  405aea:	2100      	movs	r1, #0
  405aec:	f7fc fd14 	bl	402518 <memset>
  405af0:	4620      	mov	r0, r4
  405af2:	bd10      	pop	{r4, pc}
  405af4:	f100 0208 	add.w	r2, r0, #8
  405af8:	e7ef      	b.n	405ada <_calloc_r+0x3e>
  405afa:	bf00      	nop

00405afc <_malloc_trim_r>:
  405afc:	b5f8      	push	{r3, r4, r5, r6, r7, lr}
  405afe:	4f24      	ldr	r7, [pc, #144]	; (405b90 <_malloc_trim_r+0x94>)
  405b00:	460c      	mov	r4, r1
  405b02:	4606      	mov	r6, r0
  405b04:	f7ff fb46 	bl	405194 <__malloc_lock>
  405b08:	68bb      	ldr	r3, [r7, #8]
  405b0a:	685d      	ldr	r5, [r3, #4]
  405b0c:	f5c4 617e 	rsb	r1, r4, #4064	; 0xfe0
  405b10:	310f      	adds	r1, #15
  405b12:	f025 0503 	bic.w	r5, r5, #3
  405b16:	4429      	add	r1, r5
  405b18:	f421 617f 	bic.w	r1, r1, #4080	; 0xff0
  405b1c:	f021 010f 	bic.w	r1, r1, #15
  405b20:	f5a1 5480 	sub.w	r4, r1, #4096	; 0x1000
  405b24:	f5b4 5f80 	cmp.w	r4, #4096	; 0x1000
  405b28:	db07      	blt.n	405b3a <_malloc_trim_r+0x3e>
  405b2a:	2100      	movs	r1, #0
  405b2c:	4630      	mov	r0, r6
  405b2e:	f7ff fe37 	bl	4057a0 <_sbrk_r>
  405b32:	68bb      	ldr	r3, [r7, #8]
  405b34:	442b      	add	r3, r5
  405b36:	4298      	cmp	r0, r3
  405b38:	d004      	beq.n	405b44 <_malloc_trim_r+0x48>
  405b3a:	4630      	mov	r0, r6
  405b3c:	f7ff fb30 	bl	4051a0 <__malloc_unlock>
  405b40:	2000      	movs	r0, #0
  405b42:	bdf8      	pop	{r3, r4, r5, r6, r7, pc}
  405b44:	4261      	negs	r1, r4
  405b46:	4630      	mov	r0, r6
  405b48:	f7ff fe2a 	bl	4057a0 <_sbrk_r>
  405b4c:	3001      	adds	r0, #1
  405b4e:	d00d      	beq.n	405b6c <_malloc_trim_r+0x70>
  405b50:	4b10      	ldr	r3, [pc, #64]	; (405b94 <_malloc_trim_r+0x98>)
  405b52:	68ba      	ldr	r2, [r7, #8]
  405b54:	6819      	ldr	r1, [r3, #0]
  405b56:	1b2d      	subs	r5, r5, r4
  405b58:	f045 0501 	orr.w	r5, r5, #1
  405b5c:	4630      	mov	r0, r6
  405b5e:	1b09      	subs	r1, r1, r4
  405b60:	6055      	str	r5, [r2, #4]
  405b62:	6019      	str	r1, [r3, #0]
  405b64:	f7ff fb1c 	bl	4051a0 <__malloc_unlock>
  405b68:	2001      	movs	r0, #1
  405b6a:	bdf8      	pop	{r3, r4, r5, r6, r7, pc}
  405b6c:	2100      	movs	r1, #0
  405b6e:	4630      	mov	r0, r6
  405b70:	f7ff fe16 	bl	4057a0 <_sbrk_r>
  405b74:	68ba      	ldr	r2, [r7, #8]
  405b76:	1a83      	subs	r3, r0, r2
  405b78:	2b0f      	cmp	r3, #15
  405b7a:	ddde      	ble.n	405b3a <_malloc_trim_r+0x3e>
  405b7c:	4c06      	ldr	r4, [pc, #24]	; (405b98 <_malloc_trim_r+0x9c>)
  405b7e:	4905      	ldr	r1, [pc, #20]	; (405b94 <_malloc_trim_r+0x98>)
  405b80:	6824      	ldr	r4, [r4, #0]
  405b82:	f043 0301 	orr.w	r3, r3, #1
  405b86:	1b00      	subs	r0, r0, r4
  405b88:	6053      	str	r3, [r2, #4]
  405b8a:	6008      	str	r0, [r1, #0]
  405b8c:	e7d5      	b.n	405b3a <_malloc_trim_r+0x3e>
  405b8e:	bf00      	nop
  405b90:	20400454 	.word	0x20400454
  405b94:	20400c70 	.word	0x20400c70
  405b98:	2040085c 	.word	0x2040085c

00405b9c <_free_r>:
  405b9c:	2900      	cmp	r1, #0
  405b9e:	d044      	beq.n	405c2a <_free_r+0x8e>
  405ba0:	e92d 41f0 	stmdb	sp!, {r4, r5, r6, r7, r8, lr}
  405ba4:	460d      	mov	r5, r1
  405ba6:	4680      	mov	r8, r0
  405ba8:	f7ff faf4 	bl	405194 <__malloc_lock>
  405bac:	f855 7c04 	ldr.w	r7, [r5, #-4]
  405bb0:	4969      	ldr	r1, [pc, #420]	; (405d58 <_free_r+0x1bc>)
  405bb2:	f027 0301 	bic.w	r3, r7, #1
  405bb6:	f1a5 0408 	sub.w	r4, r5, #8
  405bba:	18e2      	adds	r2, r4, r3
  405bbc:	688e      	ldr	r6, [r1, #8]
  405bbe:	6850      	ldr	r0, [r2, #4]
  405bc0:	42b2      	cmp	r2, r6
  405bc2:	f020 0003 	bic.w	r0, r0, #3
  405bc6:	d05e      	beq.n	405c86 <_free_r+0xea>
  405bc8:	07fe      	lsls	r6, r7, #31
  405bca:	6050      	str	r0, [r2, #4]
  405bcc:	d40b      	bmi.n	405be6 <_free_r+0x4a>
  405bce:	f855 7c08 	ldr.w	r7, [r5, #-8]
  405bd2:	1be4      	subs	r4, r4, r7
  405bd4:	f101 0e08 	add.w	lr, r1, #8
  405bd8:	68a5      	ldr	r5, [r4, #8]
  405bda:	4575      	cmp	r5, lr
  405bdc:	443b      	add	r3, r7
  405bde:	d06d      	beq.n	405cbc <_free_r+0x120>
  405be0:	68e7      	ldr	r7, [r4, #12]
  405be2:	60ef      	str	r7, [r5, #12]
  405be4:	60bd      	str	r5, [r7, #8]
  405be6:	1815      	adds	r5, r2, r0
  405be8:	686d      	ldr	r5, [r5, #4]
  405bea:	07ed      	lsls	r5, r5, #31
  405bec:	d53e      	bpl.n	405c6c <_free_r+0xd0>
  405bee:	f043 0201 	orr.w	r2, r3, #1
  405bf2:	6062      	str	r2, [r4, #4]
  405bf4:	50e3      	str	r3, [r4, r3]
  405bf6:	f5b3 7f00 	cmp.w	r3, #512	; 0x200
  405bfa:	d217      	bcs.n	405c2c <_free_r+0x90>
  405bfc:	08db      	lsrs	r3, r3, #3
  405bfe:	1c58      	adds	r0, r3, #1
  405c00:	109a      	asrs	r2, r3, #2
  405c02:	684d      	ldr	r5, [r1, #4]
  405c04:	f851 7030 	ldr.w	r7, [r1, r0, lsl #3]
  405c08:	60a7      	str	r7, [r4, #8]
  405c0a:	2301      	movs	r3, #1
  405c0c:	4093      	lsls	r3, r2
  405c0e:	eb01 02c0 	add.w	r2, r1, r0, lsl #3
  405c12:	432b      	orrs	r3, r5
  405c14:	3a08      	subs	r2, #8
  405c16:	60e2      	str	r2, [r4, #12]
  405c18:	604b      	str	r3, [r1, #4]
  405c1a:	f841 4030 	str.w	r4, [r1, r0, lsl #3]
  405c1e:	60fc      	str	r4, [r7, #12]
  405c20:	4640      	mov	r0, r8
  405c22:	e8bd 41f0 	ldmia.w	sp!, {r4, r5, r6, r7, r8, lr}
  405c26:	f7ff babb 	b.w	4051a0 <__malloc_unlock>
  405c2a:	4770      	bx	lr
  405c2c:	0a5a      	lsrs	r2, r3, #9
  405c2e:	2a04      	cmp	r2, #4
  405c30:	d852      	bhi.n	405cd8 <_free_r+0x13c>
  405c32:	099a      	lsrs	r2, r3, #6
  405c34:	f102 0739 	add.w	r7, r2, #57	; 0x39
  405c38:	00ff      	lsls	r7, r7, #3
  405c3a:	f102 0538 	add.w	r5, r2, #56	; 0x38
  405c3e:	19c8      	adds	r0, r1, r7
  405c40:	59ca      	ldr	r2, [r1, r7]
  405c42:	3808      	subs	r0, #8
  405c44:	4290      	cmp	r0, r2
  405c46:	d04f      	beq.n	405ce8 <_free_r+0x14c>
  405c48:	6851      	ldr	r1, [r2, #4]
  405c4a:	f021 0103 	bic.w	r1, r1, #3
  405c4e:	428b      	cmp	r3, r1
  405c50:	d232      	bcs.n	405cb8 <_free_r+0x11c>
  405c52:	6892      	ldr	r2, [r2, #8]
  405c54:	4290      	cmp	r0, r2
  405c56:	d1f7      	bne.n	405c48 <_free_r+0xac>
  405c58:	68c3      	ldr	r3, [r0, #12]
  405c5a:	60a0      	str	r0, [r4, #8]
  405c5c:	60e3      	str	r3, [r4, #12]
  405c5e:	609c      	str	r4, [r3, #8]
  405c60:	60c4      	str	r4, [r0, #12]
  405c62:	4640      	mov	r0, r8
  405c64:	e8bd 41f0 	ldmia.w	sp!, {r4, r5, r6, r7, r8, lr}
  405c68:	f7ff ba9a 	b.w	4051a0 <__malloc_unlock>
  405c6c:	6895      	ldr	r5, [r2, #8]
  405c6e:	4f3b      	ldr	r7, [pc, #236]	; (405d5c <_free_r+0x1c0>)
  405c70:	42bd      	cmp	r5, r7
  405c72:	4403      	add	r3, r0
  405c74:	d040      	beq.n	405cf8 <_free_r+0x15c>
  405c76:	68d0      	ldr	r0, [r2, #12]
  405c78:	60e8      	str	r0, [r5, #12]
  405c7a:	f043 0201 	orr.w	r2, r3, #1
  405c7e:	6085      	str	r5, [r0, #8]
  405c80:	6062      	str	r2, [r4, #4]
  405c82:	50e3      	str	r3, [r4, r3]
  405c84:	e7b7      	b.n	405bf6 <_free_r+0x5a>
  405c86:	07ff      	lsls	r7, r7, #31
  405c88:	4403      	add	r3, r0
  405c8a:	d407      	bmi.n	405c9c <_free_r+0x100>
  405c8c:	f855 2c08 	ldr.w	r2, [r5, #-8]
  405c90:	1aa4      	subs	r4, r4, r2
  405c92:	4413      	add	r3, r2
  405c94:	68a0      	ldr	r0, [r4, #8]
  405c96:	68e2      	ldr	r2, [r4, #12]
  405c98:	60c2      	str	r2, [r0, #12]
  405c9a:	6090      	str	r0, [r2, #8]
  405c9c:	4a30      	ldr	r2, [pc, #192]	; (405d60 <_free_r+0x1c4>)
  405c9e:	6812      	ldr	r2, [r2, #0]
  405ca0:	f043 0001 	orr.w	r0, r3, #1
  405ca4:	4293      	cmp	r3, r2
  405ca6:	6060      	str	r0, [r4, #4]
  405ca8:	608c      	str	r4, [r1, #8]
  405caa:	d3b9      	bcc.n	405c20 <_free_r+0x84>
  405cac:	4b2d      	ldr	r3, [pc, #180]	; (405d64 <_free_r+0x1c8>)
  405cae:	4640      	mov	r0, r8
  405cb0:	6819      	ldr	r1, [r3, #0]
  405cb2:	f7ff ff23 	bl	405afc <_malloc_trim_r>
  405cb6:	e7b3      	b.n	405c20 <_free_r+0x84>
  405cb8:	4610      	mov	r0, r2
  405cba:	e7cd      	b.n	405c58 <_free_r+0xbc>
  405cbc:	1811      	adds	r1, r2, r0
  405cbe:	6849      	ldr	r1, [r1, #4]
  405cc0:	07c9      	lsls	r1, r1, #31
  405cc2:	d444      	bmi.n	405d4e <_free_r+0x1b2>
  405cc4:	6891      	ldr	r1, [r2, #8]
  405cc6:	68d2      	ldr	r2, [r2, #12]
  405cc8:	60ca      	str	r2, [r1, #12]
  405cca:	4403      	add	r3, r0
  405ccc:	f043 0001 	orr.w	r0, r3, #1
  405cd0:	6091      	str	r1, [r2, #8]
  405cd2:	6060      	str	r0, [r4, #4]
  405cd4:	50e3      	str	r3, [r4, r3]
  405cd6:	e7a3      	b.n	405c20 <_free_r+0x84>
  405cd8:	2a14      	cmp	r2, #20
  405cda:	d816      	bhi.n	405d0a <_free_r+0x16e>
  405cdc:	f102 075c 	add.w	r7, r2, #92	; 0x5c
  405ce0:	00ff      	lsls	r7, r7, #3
  405ce2:	f102 055b 	add.w	r5, r2, #91	; 0x5b
  405ce6:	e7aa      	b.n	405c3e <_free_r+0xa2>
  405ce8:	10aa      	asrs	r2, r5, #2
  405cea:	2301      	movs	r3, #1
  405cec:	684d      	ldr	r5, [r1, #4]
  405cee:	4093      	lsls	r3, r2
  405cf0:	432b      	orrs	r3, r5
  405cf2:	604b      	str	r3, [r1, #4]
  405cf4:	4603      	mov	r3, r0
  405cf6:	e7b0      	b.n	405c5a <_free_r+0xbe>
  405cf8:	f043 0201 	orr.w	r2, r3, #1
  405cfc:	614c      	str	r4, [r1, #20]
  405cfe:	610c      	str	r4, [r1, #16]
  405d00:	60e5      	str	r5, [r4, #12]
  405d02:	60a5      	str	r5, [r4, #8]
  405d04:	6062      	str	r2, [r4, #4]
  405d06:	50e3      	str	r3, [r4, r3]
  405d08:	e78a      	b.n	405c20 <_free_r+0x84>
  405d0a:	2a54      	cmp	r2, #84	; 0x54
  405d0c:	d806      	bhi.n	405d1c <_free_r+0x180>
  405d0e:	0b1a      	lsrs	r2, r3, #12
  405d10:	f102 076f 	add.w	r7, r2, #111	; 0x6f
  405d14:	00ff      	lsls	r7, r7, #3
  405d16:	f102 056e 	add.w	r5, r2, #110	; 0x6e
  405d1a:	e790      	b.n	405c3e <_free_r+0xa2>
  405d1c:	f5b2 7faa 	cmp.w	r2, #340	; 0x154
  405d20:	d806      	bhi.n	405d30 <_free_r+0x194>
  405d22:	0bda      	lsrs	r2, r3, #15
  405d24:	f102 0778 	add.w	r7, r2, #120	; 0x78
  405d28:	00ff      	lsls	r7, r7, #3
  405d2a:	f102 0577 	add.w	r5, r2, #119	; 0x77
  405d2e:	e786      	b.n	405c3e <_free_r+0xa2>
  405d30:	f240 5054 	movw	r0, #1364	; 0x554
  405d34:	4282      	cmp	r2, r0
  405d36:	d806      	bhi.n	405d46 <_free_r+0x1aa>
  405d38:	0c9a      	lsrs	r2, r3, #18
  405d3a:	f102 077d 	add.w	r7, r2, #125	; 0x7d
  405d3e:	00ff      	lsls	r7, r7, #3
  405d40:	f102 057c 	add.w	r5, r2, #124	; 0x7c
  405d44:	e77b      	b.n	405c3e <_free_r+0xa2>
  405d46:	f44f 777e 	mov.w	r7, #1016	; 0x3f8
  405d4a:	257e      	movs	r5, #126	; 0x7e
  405d4c:	e777      	b.n	405c3e <_free_r+0xa2>
  405d4e:	f043 0101 	orr.w	r1, r3, #1
  405d52:	6061      	str	r1, [r4, #4]
  405d54:	6013      	str	r3, [r2, #0]
  405d56:	e763      	b.n	405c20 <_free_r+0x84>
  405d58:	20400454 	.word	0x20400454
  405d5c:	2040045c 	.word	0x2040045c
  405d60:	20400860 	.word	0x20400860
  405d64:	20400ca0 	.word	0x20400ca0

00405d68 <__ascii_mbtowc>:
  405d68:	b082      	sub	sp, #8
  405d6a:	b149      	cbz	r1, 405d80 <__ascii_mbtowc+0x18>
  405d6c:	b15a      	cbz	r2, 405d86 <__ascii_mbtowc+0x1e>
  405d6e:	b16b      	cbz	r3, 405d8c <__ascii_mbtowc+0x24>
  405d70:	7813      	ldrb	r3, [r2, #0]
  405d72:	600b      	str	r3, [r1, #0]
  405d74:	7812      	ldrb	r2, [r2, #0]
  405d76:	1c10      	adds	r0, r2, #0
  405d78:	bf18      	it	ne
  405d7a:	2001      	movne	r0, #1
  405d7c:	b002      	add	sp, #8
  405d7e:	4770      	bx	lr
  405d80:	a901      	add	r1, sp, #4
  405d82:	2a00      	cmp	r2, #0
  405d84:	d1f3      	bne.n	405d6e <__ascii_mbtowc+0x6>
  405d86:	4610      	mov	r0, r2
  405d88:	b002      	add	sp, #8
  405d8a:	4770      	bx	lr
  405d8c:	f06f 0001 	mvn.w	r0, #1
  405d90:	e7f4      	b.n	405d7c <__ascii_mbtowc+0x14>
  405d92:	bf00      	nop

00405d94 <memmove>:
  405d94:	4288      	cmp	r0, r1
  405d96:	b5f0      	push	{r4, r5, r6, r7, lr}
  405d98:	d90d      	bls.n	405db6 <memmove+0x22>
  405d9a:	188b      	adds	r3, r1, r2
  405d9c:	4298      	cmp	r0, r3
  405d9e:	d20a      	bcs.n	405db6 <memmove+0x22>
  405da0:	1884      	adds	r4, r0, r2
  405da2:	2a00      	cmp	r2, #0
  405da4:	d051      	beq.n	405e4a <memmove+0xb6>
  405da6:	4622      	mov	r2, r4
  405da8:	f813 4d01 	ldrb.w	r4, [r3, #-1]!
  405dac:	f802 4d01 	strb.w	r4, [r2, #-1]!
  405db0:	4299      	cmp	r1, r3
  405db2:	d1f9      	bne.n	405da8 <memmove+0x14>
  405db4:	bdf0      	pop	{r4, r5, r6, r7, pc}
  405db6:	2a0f      	cmp	r2, #15
  405db8:	d948      	bls.n	405e4c <memmove+0xb8>
  405dba:	ea41 0300 	orr.w	r3, r1, r0
  405dbe:	079b      	lsls	r3, r3, #30
  405dc0:	d146      	bne.n	405e50 <memmove+0xbc>
  405dc2:	f100 0410 	add.w	r4, r0, #16
  405dc6:	f101 0310 	add.w	r3, r1, #16
  405dca:	4615      	mov	r5, r2
  405dcc:	f853 6c10 	ldr.w	r6, [r3, #-16]
  405dd0:	f844 6c10 	str.w	r6, [r4, #-16]
  405dd4:	f853 6c0c 	ldr.w	r6, [r3, #-12]
  405dd8:	f844 6c0c 	str.w	r6, [r4, #-12]
  405ddc:	f853 6c08 	ldr.w	r6, [r3, #-8]
  405de0:	f844 6c08 	str.w	r6, [r4, #-8]
  405de4:	3d10      	subs	r5, #16
  405de6:	f853 6c04 	ldr.w	r6, [r3, #-4]
  405dea:	f844 6c04 	str.w	r6, [r4, #-4]
  405dee:	2d0f      	cmp	r5, #15
  405df0:	f103 0310 	add.w	r3, r3, #16
  405df4:	f104 0410 	add.w	r4, r4, #16
  405df8:	d8e8      	bhi.n	405dcc <memmove+0x38>
  405dfa:	f1a2 0310 	sub.w	r3, r2, #16
  405dfe:	f023 030f 	bic.w	r3, r3, #15
  405e02:	f002 0e0f 	and.w	lr, r2, #15
  405e06:	3310      	adds	r3, #16
  405e08:	f1be 0f03 	cmp.w	lr, #3
  405e0c:	4419      	add	r1, r3
  405e0e:	4403      	add	r3, r0
  405e10:	d921      	bls.n	405e56 <memmove+0xc2>
  405e12:	1f1e      	subs	r6, r3, #4
  405e14:	460d      	mov	r5, r1
  405e16:	4674      	mov	r4, lr
  405e18:	3c04      	subs	r4, #4
  405e1a:	f855 7b04 	ldr.w	r7, [r5], #4
  405e1e:	f846 7f04 	str.w	r7, [r6, #4]!
  405e22:	2c03      	cmp	r4, #3
  405e24:	d8f8      	bhi.n	405e18 <memmove+0x84>
  405e26:	f1ae 0404 	sub.w	r4, lr, #4
  405e2a:	f024 0403 	bic.w	r4, r4, #3
  405e2e:	3404      	adds	r4, #4
  405e30:	4421      	add	r1, r4
  405e32:	4423      	add	r3, r4
  405e34:	f002 0203 	and.w	r2, r2, #3
  405e38:	b162      	cbz	r2, 405e54 <memmove+0xc0>
  405e3a:	3b01      	subs	r3, #1
  405e3c:	440a      	add	r2, r1
  405e3e:	f811 4b01 	ldrb.w	r4, [r1], #1
  405e42:	f803 4f01 	strb.w	r4, [r3, #1]!
  405e46:	428a      	cmp	r2, r1
  405e48:	d1f9      	bne.n	405e3e <memmove+0xaa>
  405e4a:	bdf0      	pop	{r4, r5, r6, r7, pc}
  405e4c:	4603      	mov	r3, r0
  405e4e:	e7f3      	b.n	405e38 <memmove+0xa4>
  405e50:	4603      	mov	r3, r0
  405e52:	e7f2      	b.n	405e3a <memmove+0xa6>
  405e54:	bdf0      	pop	{r4, r5, r6, r7, pc}
  405e56:	4672      	mov	r2, lr
  405e58:	e7ee      	b.n	405e38 <memmove+0xa4>
  405e5a:	bf00      	nop

00405e5c <_realloc_r>:
  405e5c:	2900      	cmp	r1, #0
  405e5e:	f000 8095 	beq.w	405f8c <_realloc_r+0x130>
  405e62:	e92d 4ff0 	stmdb	sp!, {r4, r5, r6, r7, r8, r9, sl, fp, lr}
  405e66:	460d      	mov	r5, r1
  405e68:	4616      	mov	r6, r2
  405e6a:	b083      	sub	sp, #12
  405e6c:	4680      	mov	r8, r0
  405e6e:	f106 070b 	add.w	r7, r6, #11
  405e72:	f7ff f98f 	bl	405194 <__malloc_lock>
  405e76:	f855 ec04 	ldr.w	lr, [r5, #-4]
  405e7a:	2f16      	cmp	r7, #22
  405e7c:	f02e 0403 	bic.w	r4, lr, #3
  405e80:	f1a5 0908 	sub.w	r9, r5, #8
  405e84:	d83c      	bhi.n	405f00 <_realloc_r+0xa4>
  405e86:	2210      	movs	r2, #16
  405e88:	4617      	mov	r7, r2
  405e8a:	42be      	cmp	r6, r7
  405e8c:	d83d      	bhi.n	405f0a <_realloc_r+0xae>
  405e8e:	4294      	cmp	r4, r2
  405e90:	da43      	bge.n	405f1a <_realloc_r+0xbe>
  405e92:	4bc4      	ldr	r3, [pc, #784]	; (4061a4 <_realloc_r+0x348>)
  405e94:	6899      	ldr	r1, [r3, #8]
  405e96:	eb09 0004 	add.w	r0, r9, r4
  405e9a:	4288      	cmp	r0, r1
  405e9c:	f000 80b4 	beq.w	406008 <_realloc_r+0x1ac>
  405ea0:	6843      	ldr	r3, [r0, #4]
  405ea2:	f023 0101 	bic.w	r1, r3, #1
  405ea6:	4401      	add	r1, r0
  405ea8:	6849      	ldr	r1, [r1, #4]
  405eaa:	07c9      	lsls	r1, r1, #31
  405eac:	d54c      	bpl.n	405f48 <_realloc_r+0xec>
  405eae:	f01e 0f01 	tst.w	lr, #1
  405eb2:	f000 809b 	beq.w	405fec <_realloc_r+0x190>
  405eb6:	4631      	mov	r1, r6
  405eb8:	4640      	mov	r0, r8
  405eba:	f7fe fdcb 	bl	404a54 <_malloc_r>
  405ebe:	4606      	mov	r6, r0
  405ec0:	2800      	cmp	r0, #0
  405ec2:	d03a      	beq.n	405f3a <_realloc_r+0xde>
  405ec4:	f855 3c04 	ldr.w	r3, [r5, #-4]
  405ec8:	f023 0301 	bic.w	r3, r3, #1
  405ecc:	444b      	add	r3, r9
  405ece:	f1a0 0208 	sub.w	r2, r0, #8
  405ed2:	429a      	cmp	r2, r3
  405ed4:	f000 8121 	beq.w	40611a <_realloc_r+0x2be>
  405ed8:	1f22      	subs	r2, r4, #4
  405eda:	2a24      	cmp	r2, #36	; 0x24
  405edc:	f200 8107 	bhi.w	4060ee <_realloc_r+0x292>
  405ee0:	2a13      	cmp	r2, #19
  405ee2:	f200 80db 	bhi.w	40609c <_realloc_r+0x240>
  405ee6:	4603      	mov	r3, r0
  405ee8:	462a      	mov	r2, r5
  405eea:	6811      	ldr	r1, [r2, #0]
  405eec:	6019      	str	r1, [r3, #0]
  405eee:	6851      	ldr	r1, [r2, #4]
  405ef0:	6059      	str	r1, [r3, #4]
  405ef2:	6892      	ldr	r2, [r2, #8]
  405ef4:	609a      	str	r2, [r3, #8]
  405ef6:	4629      	mov	r1, r5
  405ef8:	4640      	mov	r0, r8
  405efa:	f7ff fe4f 	bl	405b9c <_free_r>
  405efe:	e01c      	b.n	405f3a <_realloc_r+0xde>
  405f00:	f027 0707 	bic.w	r7, r7, #7
  405f04:	2f00      	cmp	r7, #0
  405f06:	463a      	mov	r2, r7
  405f08:	dabf      	bge.n	405e8a <_realloc_r+0x2e>
  405f0a:	2600      	movs	r6, #0
  405f0c:	230c      	movs	r3, #12
  405f0e:	4630      	mov	r0, r6
  405f10:	f8c8 3000 	str.w	r3, [r8]
  405f14:	b003      	add	sp, #12
  405f16:	e8bd 8ff0 	ldmia.w	sp!, {r4, r5, r6, r7, r8, r9, sl, fp, pc}
  405f1a:	462e      	mov	r6, r5
  405f1c:	1be3      	subs	r3, r4, r7
  405f1e:	2b0f      	cmp	r3, #15
  405f20:	d81e      	bhi.n	405f60 <_realloc_r+0x104>
  405f22:	f8d9 3004 	ldr.w	r3, [r9, #4]
  405f26:	f003 0301 	and.w	r3, r3, #1
  405f2a:	4323      	orrs	r3, r4
  405f2c:	444c      	add	r4, r9
  405f2e:	f8c9 3004 	str.w	r3, [r9, #4]
  405f32:	6863      	ldr	r3, [r4, #4]
  405f34:	f043 0301 	orr.w	r3, r3, #1
  405f38:	6063      	str	r3, [r4, #4]
  405f3a:	4640      	mov	r0, r8
  405f3c:	f7ff f930 	bl	4051a0 <__malloc_unlock>
  405f40:	4630      	mov	r0, r6
  405f42:	b003      	add	sp, #12
  405f44:	e8bd 8ff0 	ldmia.w	sp!, {r4, r5, r6, r7, r8, r9, sl, fp, pc}
  405f48:	f023 0303 	bic.w	r3, r3, #3
  405f4c:	18e1      	adds	r1, r4, r3
  405f4e:	4291      	cmp	r1, r2
  405f50:	db1f      	blt.n	405f92 <_realloc_r+0x136>
  405f52:	68c3      	ldr	r3, [r0, #12]
  405f54:	6882      	ldr	r2, [r0, #8]
  405f56:	462e      	mov	r6, r5
  405f58:	60d3      	str	r3, [r2, #12]
  405f5a:	460c      	mov	r4, r1
  405f5c:	609a      	str	r2, [r3, #8]
  405f5e:	e7dd      	b.n	405f1c <_realloc_r+0xc0>
  405f60:	f8d9 2004 	ldr.w	r2, [r9, #4]
  405f64:	eb09 0107 	add.w	r1, r9, r7
  405f68:	f002 0201 	and.w	r2, r2, #1
  405f6c:	444c      	add	r4, r9
  405f6e:	f043 0301 	orr.w	r3, r3, #1
  405f72:	4317      	orrs	r7, r2
  405f74:	f8c9 7004 	str.w	r7, [r9, #4]
  405f78:	604b      	str	r3, [r1, #4]
  405f7a:	6863      	ldr	r3, [r4, #4]
  405f7c:	f043 0301 	orr.w	r3, r3, #1
  405f80:	3108      	adds	r1, #8
  405f82:	6063      	str	r3, [r4, #4]
  405f84:	4640      	mov	r0, r8
  405f86:	f7ff fe09 	bl	405b9c <_free_r>
  405f8a:	e7d6      	b.n	405f3a <_realloc_r+0xde>
  405f8c:	4611      	mov	r1, r2
  405f8e:	f7fe bd61 	b.w	404a54 <_malloc_r>
  405f92:	f01e 0f01 	tst.w	lr, #1
  405f96:	d18e      	bne.n	405eb6 <_realloc_r+0x5a>
  405f98:	f855 1c08 	ldr.w	r1, [r5, #-8]
  405f9c:	eba9 0a01 	sub.w	sl, r9, r1
  405fa0:	f8da 1004 	ldr.w	r1, [sl, #4]
  405fa4:	f021 0103 	bic.w	r1, r1, #3
  405fa8:	440b      	add	r3, r1
  405faa:	4423      	add	r3, r4
  405fac:	4293      	cmp	r3, r2
  405fae:	db25      	blt.n	405ffc <_realloc_r+0x1a0>
  405fb0:	68c2      	ldr	r2, [r0, #12]
  405fb2:	6881      	ldr	r1, [r0, #8]
  405fb4:	4656      	mov	r6, sl
  405fb6:	60ca      	str	r2, [r1, #12]
  405fb8:	6091      	str	r1, [r2, #8]
  405fba:	f8da 100c 	ldr.w	r1, [sl, #12]
  405fbe:	f856 0f08 	ldr.w	r0, [r6, #8]!
  405fc2:	1f22      	subs	r2, r4, #4
  405fc4:	2a24      	cmp	r2, #36	; 0x24
  405fc6:	60c1      	str	r1, [r0, #12]
  405fc8:	6088      	str	r0, [r1, #8]
  405fca:	f200 8094 	bhi.w	4060f6 <_realloc_r+0x29a>
  405fce:	2a13      	cmp	r2, #19
  405fd0:	d96f      	bls.n	4060b2 <_realloc_r+0x256>
  405fd2:	6829      	ldr	r1, [r5, #0]
  405fd4:	f8ca 1008 	str.w	r1, [sl, #8]
  405fd8:	6869      	ldr	r1, [r5, #4]
  405fda:	f8ca 100c 	str.w	r1, [sl, #12]
  405fde:	2a1b      	cmp	r2, #27
  405fe0:	f200 80a2 	bhi.w	406128 <_realloc_r+0x2cc>
  405fe4:	3508      	adds	r5, #8
  405fe6:	f10a 0210 	add.w	r2, sl, #16
  405fea:	e063      	b.n	4060b4 <_realloc_r+0x258>
  405fec:	f855 3c08 	ldr.w	r3, [r5, #-8]
  405ff0:	eba9 0a03 	sub.w	sl, r9, r3
  405ff4:	f8da 1004 	ldr.w	r1, [sl, #4]
  405ff8:	f021 0103 	bic.w	r1, r1, #3
  405ffc:	1863      	adds	r3, r4, r1
  405ffe:	4293      	cmp	r3, r2
  406000:	f6ff af59 	blt.w	405eb6 <_realloc_r+0x5a>
  406004:	4656      	mov	r6, sl
  406006:	e7d8      	b.n	405fba <_realloc_r+0x15e>
  406008:	6841      	ldr	r1, [r0, #4]
  40600a:	f021 0b03 	bic.w	fp, r1, #3
  40600e:	44a3      	add	fp, r4
  406010:	f107 0010 	add.w	r0, r7, #16
  406014:	4583      	cmp	fp, r0
  406016:	da56      	bge.n	4060c6 <_realloc_r+0x26a>
  406018:	f01e 0f01 	tst.w	lr, #1
  40601c:	f47f af4b 	bne.w	405eb6 <_realloc_r+0x5a>
  406020:	f855 1c08 	ldr.w	r1, [r5, #-8]
  406024:	eba9 0a01 	sub.w	sl, r9, r1
  406028:	f8da 1004 	ldr.w	r1, [sl, #4]
  40602c:	f021 0103 	bic.w	r1, r1, #3
  406030:	448b      	add	fp, r1
  406032:	4558      	cmp	r0, fp
  406034:	dce2      	bgt.n	405ffc <_realloc_r+0x1a0>
  406036:	4656      	mov	r6, sl
  406038:	f8da 100c 	ldr.w	r1, [sl, #12]
  40603c:	f856 0f08 	ldr.w	r0, [r6, #8]!
  406040:	1f22      	subs	r2, r4, #4
  406042:	2a24      	cmp	r2, #36	; 0x24
  406044:	60c1      	str	r1, [r0, #12]
  406046:	6088      	str	r0, [r1, #8]
  406048:	f200 808f 	bhi.w	40616a <_realloc_r+0x30e>
  40604c:	2a13      	cmp	r2, #19
  40604e:	f240 808a 	bls.w	406166 <_realloc_r+0x30a>
  406052:	6829      	ldr	r1, [r5, #0]
  406054:	f8ca 1008 	str.w	r1, [sl, #8]
  406058:	6869      	ldr	r1, [r5, #4]
  40605a:	f8ca 100c 	str.w	r1, [sl, #12]
  40605e:	2a1b      	cmp	r2, #27
  406060:	f200 808a 	bhi.w	406178 <_realloc_r+0x31c>
  406064:	3508      	adds	r5, #8
  406066:	f10a 0210 	add.w	r2, sl, #16
  40606a:	6829      	ldr	r1, [r5, #0]
  40606c:	6011      	str	r1, [r2, #0]
  40606e:	6869      	ldr	r1, [r5, #4]
  406070:	6051      	str	r1, [r2, #4]
  406072:	68a9      	ldr	r1, [r5, #8]
  406074:	6091      	str	r1, [r2, #8]
  406076:	eb0a 0107 	add.w	r1, sl, r7
  40607a:	ebab 0207 	sub.w	r2, fp, r7
  40607e:	f042 0201 	orr.w	r2, r2, #1
  406082:	6099      	str	r1, [r3, #8]
  406084:	604a      	str	r2, [r1, #4]
  406086:	f8da 3004 	ldr.w	r3, [sl, #4]
  40608a:	f003 0301 	and.w	r3, r3, #1
  40608e:	431f      	orrs	r7, r3
  406090:	4640      	mov	r0, r8
  406092:	f8ca 7004 	str.w	r7, [sl, #4]
  406096:	f7ff f883 	bl	4051a0 <__malloc_unlock>
  40609a:	e751      	b.n	405f40 <_realloc_r+0xe4>
  40609c:	682b      	ldr	r3, [r5, #0]
  40609e:	6003      	str	r3, [r0, #0]
  4060a0:	686b      	ldr	r3, [r5, #4]
  4060a2:	6043      	str	r3, [r0, #4]
  4060a4:	2a1b      	cmp	r2, #27
  4060a6:	d82d      	bhi.n	406104 <_realloc_r+0x2a8>
  4060a8:	f100 0308 	add.w	r3, r0, #8
  4060ac:	f105 0208 	add.w	r2, r5, #8
  4060b0:	e71b      	b.n	405eea <_realloc_r+0x8e>
  4060b2:	4632      	mov	r2, r6
  4060b4:	6829      	ldr	r1, [r5, #0]
  4060b6:	6011      	str	r1, [r2, #0]
  4060b8:	6869      	ldr	r1, [r5, #4]
  4060ba:	6051      	str	r1, [r2, #4]
  4060bc:	68a9      	ldr	r1, [r5, #8]
  4060be:	6091      	str	r1, [r2, #8]
  4060c0:	461c      	mov	r4, r3
  4060c2:	46d1      	mov	r9, sl
  4060c4:	e72a      	b.n	405f1c <_realloc_r+0xc0>
  4060c6:	eb09 0107 	add.w	r1, r9, r7
  4060ca:	ebab 0b07 	sub.w	fp, fp, r7
  4060ce:	f04b 0201 	orr.w	r2, fp, #1
  4060d2:	6099      	str	r1, [r3, #8]
  4060d4:	604a      	str	r2, [r1, #4]
  4060d6:	f855 3c04 	ldr.w	r3, [r5, #-4]
  4060da:	f003 0301 	and.w	r3, r3, #1
  4060de:	431f      	orrs	r7, r3
  4060e0:	4640      	mov	r0, r8
  4060e2:	f845 7c04 	str.w	r7, [r5, #-4]
  4060e6:	f7ff f85b 	bl	4051a0 <__malloc_unlock>
  4060ea:	462e      	mov	r6, r5
  4060ec:	e728      	b.n	405f40 <_realloc_r+0xe4>
  4060ee:	4629      	mov	r1, r5
  4060f0:	f7ff fe50 	bl	405d94 <memmove>
  4060f4:	e6ff      	b.n	405ef6 <_realloc_r+0x9a>
  4060f6:	4629      	mov	r1, r5
  4060f8:	4630      	mov	r0, r6
  4060fa:	461c      	mov	r4, r3
  4060fc:	46d1      	mov	r9, sl
  4060fe:	f7ff fe49 	bl	405d94 <memmove>
  406102:	e70b      	b.n	405f1c <_realloc_r+0xc0>
  406104:	68ab      	ldr	r3, [r5, #8]
  406106:	6083      	str	r3, [r0, #8]
  406108:	68eb      	ldr	r3, [r5, #12]
  40610a:	60c3      	str	r3, [r0, #12]
  40610c:	2a24      	cmp	r2, #36	; 0x24
  40610e:	d017      	beq.n	406140 <_realloc_r+0x2e4>
  406110:	f100 0310 	add.w	r3, r0, #16
  406114:	f105 0210 	add.w	r2, r5, #16
  406118:	e6e7      	b.n	405eea <_realloc_r+0x8e>
  40611a:	f850 3c04 	ldr.w	r3, [r0, #-4]
  40611e:	f023 0303 	bic.w	r3, r3, #3
  406122:	441c      	add	r4, r3
  406124:	462e      	mov	r6, r5
  406126:	e6f9      	b.n	405f1c <_realloc_r+0xc0>
  406128:	68a9      	ldr	r1, [r5, #8]
  40612a:	f8ca 1010 	str.w	r1, [sl, #16]
  40612e:	68e9      	ldr	r1, [r5, #12]
  406130:	f8ca 1014 	str.w	r1, [sl, #20]
  406134:	2a24      	cmp	r2, #36	; 0x24
  406136:	d00c      	beq.n	406152 <_realloc_r+0x2f6>
  406138:	3510      	adds	r5, #16
  40613a:	f10a 0218 	add.w	r2, sl, #24
  40613e:	e7b9      	b.n	4060b4 <_realloc_r+0x258>
  406140:	692b      	ldr	r3, [r5, #16]
  406142:	6103      	str	r3, [r0, #16]
  406144:	696b      	ldr	r3, [r5, #20]
  406146:	6143      	str	r3, [r0, #20]
  406148:	f105 0218 	add.w	r2, r5, #24
  40614c:	f100 0318 	add.w	r3, r0, #24
  406150:	e6cb      	b.n	405eea <_realloc_r+0x8e>
  406152:	692a      	ldr	r2, [r5, #16]
  406154:	f8ca 2018 	str.w	r2, [sl, #24]
  406158:	696a      	ldr	r2, [r5, #20]
  40615a:	f8ca 201c 	str.w	r2, [sl, #28]
  40615e:	3518      	adds	r5, #24
  406160:	f10a 0220 	add.w	r2, sl, #32
  406164:	e7a6      	b.n	4060b4 <_realloc_r+0x258>
  406166:	4632      	mov	r2, r6
  406168:	e77f      	b.n	40606a <_realloc_r+0x20e>
  40616a:	4629      	mov	r1, r5
  40616c:	4630      	mov	r0, r6
  40616e:	9301      	str	r3, [sp, #4]
  406170:	f7ff fe10 	bl	405d94 <memmove>
  406174:	9b01      	ldr	r3, [sp, #4]
  406176:	e77e      	b.n	406076 <_realloc_r+0x21a>
  406178:	68a9      	ldr	r1, [r5, #8]
  40617a:	f8ca 1010 	str.w	r1, [sl, #16]
  40617e:	68e9      	ldr	r1, [r5, #12]
  406180:	f8ca 1014 	str.w	r1, [sl, #20]
  406184:	2a24      	cmp	r2, #36	; 0x24
  406186:	d003      	beq.n	406190 <_realloc_r+0x334>
  406188:	3510      	adds	r5, #16
  40618a:	f10a 0218 	add.w	r2, sl, #24
  40618e:	e76c      	b.n	40606a <_realloc_r+0x20e>
  406190:	692a      	ldr	r2, [r5, #16]
  406192:	f8ca 2018 	str.w	r2, [sl, #24]
  406196:	696a      	ldr	r2, [r5, #20]
  406198:	f8ca 201c 	str.w	r2, [sl, #28]
  40619c:	3518      	adds	r5, #24
  40619e:	f10a 0220 	add.w	r2, sl, #32
  4061a2:	e762      	b.n	40606a <_realloc_r+0x20e>
  4061a4:	20400454 	.word	0x20400454

004061a8 <__ascii_wctomb>:
  4061a8:	b121      	cbz	r1, 4061b4 <__ascii_wctomb+0xc>
  4061aa:	2aff      	cmp	r2, #255	; 0xff
  4061ac:	d804      	bhi.n	4061b8 <__ascii_wctomb+0x10>
  4061ae:	700a      	strb	r2, [r1, #0]
  4061b0:	2001      	movs	r0, #1
  4061b2:	4770      	bx	lr
  4061b4:	4608      	mov	r0, r1
  4061b6:	4770      	bx	lr
  4061b8:	238a      	movs	r3, #138	; 0x8a
  4061ba:	6003      	str	r3, [r0, #0]
  4061bc:	f04f 30ff 	mov.w	r0, #4294967295
  4061c0:	4770      	bx	lr
  4061c2:	bf00      	nop

004061c4 <__gedf2>:
  4061c4:	f04f 3cff 	mov.w	ip, #4294967295
  4061c8:	e006      	b.n	4061d8 <__cmpdf2+0x4>
  4061ca:	bf00      	nop

004061cc <__ledf2>:
  4061cc:	f04f 0c01 	mov.w	ip, #1
  4061d0:	e002      	b.n	4061d8 <__cmpdf2+0x4>
  4061d2:	bf00      	nop

004061d4 <__cmpdf2>:
  4061d4:	f04f 0c01 	mov.w	ip, #1
  4061d8:	f84d cd04 	str.w	ip, [sp, #-4]!
  4061dc:	ea4f 0c41 	mov.w	ip, r1, lsl #1
  4061e0:	ea7f 5c6c 	mvns.w	ip, ip, asr #21
  4061e4:	ea4f 0c43 	mov.w	ip, r3, lsl #1
  4061e8:	bf18      	it	ne
  4061ea:	ea7f 5c6c 	mvnsne.w	ip, ip, asr #21
  4061ee:	d01b      	beq.n	406228 <__cmpdf2+0x54>
  4061f0:	b001      	add	sp, #4
  4061f2:	ea50 0c41 	orrs.w	ip, r0, r1, lsl #1
  4061f6:	bf0c      	ite	eq
  4061f8:	ea52 0c43 	orrseq.w	ip, r2, r3, lsl #1
  4061fc:	ea91 0f03 	teqne	r1, r3
  406200:	bf02      	ittt	eq
  406202:	ea90 0f02 	teqeq	r0, r2
  406206:	2000      	moveq	r0, #0
  406208:	4770      	bxeq	lr
  40620a:	f110 0f00 	cmn.w	r0, #0
  40620e:	ea91 0f03 	teq	r1, r3
  406212:	bf58      	it	pl
  406214:	4299      	cmppl	r1, r3
  406216:	bf08      	it	eq
  406218:	4290      	cmpeq	r0, r2
  40621a:	bf2c      	ite	cs
  40621c:	17d8      	asrcs	r0, r3, #31
  40621e:	ea6f 70e3 	mvncc.w	r0, r3, asr #31
  406222:	f040 0001 	orr.w	r0, r0, #1
  406226:	4770      	bx	lr
  406228:	ea4f 0c41 	mov.w	ip, r1, lsl #1
  40622c:	ea7f 5c6c 	mvns.w	ip, ip, asr #21
  406230:	d102      	bne.n	406238 <__cmpdf2+0x64>
  406232:	ea50 3c01 	orrs.w	ip, r0, r1, lsl #12
  406236:	d107      	bne.n	406248 <__cmpdf2+0x74>
  406238:	ea4f 0c43 	mov.w	ip, r3, lsl #1
  40623c:	ea7f 5c6c 	mvns.w	ip, ip, asr #21
  406240:	d1d6      	bne.n	4061f0 <__cmpdf2+0x1c>
  406242:	ea52 3c03 	orrs.w	ip, r2, r3, lsl #12
  406246:	d0d3      	beq.n	4061f0 <__cmpdf2+0x1c>
  406248:	f85d 0b04 	ldr.w	r0, [sp], #4
  40624c:	4770      	bx	lr
  40624e:	bf00      	nop

00406250 <__aeabi_cdrcmple>:
  406250:	4684      	mov	ip, r0
  406252:	4610      	mov	r0, r2
  406254:	4662      	mov	r2, ip
  406256:	468c      	mov	ip, r1
  406258:	4619      	mov	r1, r3
  40625a:	4663      	mov	r3, ip
  40625c:	e000      	b.n	406260 <__aeabi_cdcmpeq>
  40625e:	bf00      	nop

00406260 <__aeabi_cdcmpeq>:
  406260:	b501      	push	{r0, lr}
  406262:	f7ff ffb7 	bl	4061d4 <__cmpdf2>
  406266:	2800      	cmp	r0, #0
  406268:	bf48      	it	mi
  40626a:	f110 0f00 	cmnmi.w	r0, #0
  40626e:	bd01      	pop	{r0, pc}

00406270 <__aeabi_dcmpeq>:
  406270:	f84d ed08 	str.w	lr, [sp, #-8]!
  406274:	f7ff fff4 	bl	406260 <__aeabi_cdcmpeq>
  406278:	bf0c      	ite	eq
  40627a:	2001      	moveq	r0, #1
  40627c:	2000      	movne	r0, #0
  40627e:	f85d fb08 	ldr.w	pc, [sp], #8
  406282:	bf00      	nop

00406284 <__aeabi_dcmplt>:
  406284:	f84d ed08 	str.w	lr, [sp, #-8]!
  406288:	f7ff ffea 	bl	406260 <__aeabi_cdcmpeq>
  40628c:	bf34      	ite	cc
  40628e:	2001      	movcc	r0, #1
  406290:	2000      	movcs	r0, #0
  406292:	f85d fb08 	ldr.w	pc, [sp], #8
  406296:	bf00      	nop

00406298 <__aeabi_dcmple>:
  406298:	f84d ed08 	str.w	lr, [sp, #-8]!
  40629c:	f7ff ffe0 	bl	406260 <__aeabi_cdcmpeq>
  4062a0:	bf94      	ite	ls
  4062a2:	2001      	movls	r0, #1
  4062a4:	2000      	movhi	r0, #0
  4062a6:	f85d fb08 	ldr.w	pc, [sp], #8
  4062aa:	bf00      	nop

004062ac <__aeabi_dcmpge>:
  4062ac:	f84d ed08 	str.w	lr, [sp, #-8]!
  4062b0:	f7ff ffce 	bl	406250 <__aeabi_cdrcmple>
  4062b4:	bf94      	ite	ls
  4062b6:	2001      	movls	r0, #1
  4062b8:	2000      	movhi	r0, #0
  4062ba:	f85d fb08 	ldr.w	pc, [sp], #8
  4062be:	bf00      	nop

004062c0 <__aeabi_dcmpgt>:
  4062c0:	f84d ed08 	str.w	lr, [sp, #-8]!
  4062c4:	f7ff ffc4 	bl	406250 <__aeabi_cdrcmple>
  4062c8:	bf34      	ite	cc
  4062ca:	2001      	movcc	r0, #1
  4062cc:	2000      	movcs	r0, #0
  4062ce:	f85d fb08 	ldr.w	pc, [sp], #8
  4062d2:	bf00      	nop

004062d4 <__aeabi_dcmpun>:
  4062d4:	ea4f 0c41 	mov.w	ip, r1, lsl #1
  4062d8:	ea7f 5c6c 	mvns.w	ip, ip, asr #21
  4062dc:	d102      	bne.n	4062e4 <__aeabi_dcmpun+0x10>
  4062de:	ea50 3c01 	orrs.w	ip, r0, r1, lsl #12
  4062e2:	d10a      	bne.n	4062fa <__aeabi_dcmpun+0x26>
  4062e4:	ea4f 0c43 	mov.w	ip, r3, lsl #1
  4062e8:	ea7f 5c6c 	mvns.w	ip, ip, asr #21
  4062ec:	d102      	bne.n	4062f4 <__aeabi_dcmpun+0x20>
  4062ee:	ea52 3c03 	orrs.w	ip, r2, r3, lsl #12
  4062f2:	d102      	bne.n	4062fa <__aeabi_dcmpun+0x26>
  4062f4:	f04f 0000 	mov.w	r0, #0
  4062f8:	4770      	bx	lr
  4062fa:	f04f 0001 	mov.w	r0, #1
  4062fe:	4770      	bx	lr

00406300 <__aeabi_d2iz>:
  406300:	ea4f 0241 	mov.w	r2, r1, lsl #1
  406304:	f512 1200 	adds.w	r2, r2, #2097152	; 0x200000
  406308:	d215      	bcs.n	406336 <__aeabi_d2iz+0x36>
  40630a:	d511      	bpl.n	406330 <__aeabi_d2iz+0x30>
  40630c:	f46f 7378 	mvn.w	r3, #992	; 0x3e0
  406310:	ebb3 5262 	subs.w	r2, r3, r2, asr #21
  406314:	d912      	bls.n	40633c <__aeabi_d2iz+0x3c>
  406316:	ea4f 23c1 	mov.w	r3, r1, lsl #11
  40631a:	f043 4300 	orr.w	r3, r3, #2147483648	; 0x80000000
  40631e:	ea43 5350 	orr.w	r3, r3, r0, lsr #21
  406322:	f011 4f00 	tst.w	r1, #2147483648	; 0x80000000
  406326:	fa23 f002 	lsr.w	r0, r3, r2
  40632a:	bf18      	it	ne
  40632c:	4240      	negne	r0, r0
  40632e:	4770      	bx	lr
  406330:	f04f 0000 	mov.w	r0, #0
  406334:	4770      	bx	lr
  406336:	ea50 3001 	orrs.w	r0, r0, r1, lsl #12
  40633a:	d105      	bne.n	406348 <__aeabi_d2iz+0x48>
  40633c:	f011 4000 	ands.w	r0, r1, #2147483648	; 0x80000000
  406340:	bf08      	it	eq
  406342:	f06f 4000 	mvneq.w	r0, #2147483648	; 0x80000000
  406346:	4770      	bx	lr
  406348:	f04f 0000 	mov.w	r0, #0
  40634c:	4770      	bx	lr
  40634e:	bf00      	nop

00406350 <sysfont_glyphs>:
	...
  406370:	0030 0030 0030 0030 0030 0030 0000 0030     0.0.0.0.0.0...0.
  406380:	0030 0000 0000 0000 0000 0000 006c 006c     0...........l.l.
  406390:	006c 006c 0000 0000 0000 0000 0000 0000     l.l.............
	...
  4063a8:	0000 0028 0028 007c 0028 0028 007c 0028     ..(.(.|.(.(.|.(.
  4063b8:	0028 0000 0000 0000 0000 0000 0010 003c     (.............<.
  4063c8:	0040 0020 0010 0008 0004 0078 0010 0000     @. .......x.....
	...
  4063e0:	0000 007c 00a4 00a8 0050 0028 0054 0094     ..|.....P.(.T...
  4063f0:	0088 0000 0000 0000 0000 0000 0060 0090     ............`...
  406400:	0090 0090 0060 0094 0088 0088 0070 0000     ....`.......p...
	...
  406418:	0010 0010 0010 0000 0000 0000 0000 0000     ................
	...
  406434:	0008 0010 0020 0020 0020 0020 0020 0020     .... . . . . . .
  406444:	0010 0008 0000 0000 0000 0000 0020 0010     ............ ...
  406454:	0008 0008 0008 0008 0008 0008 0010 0020     .............. .
  406464:	0000 0000 0000 0028 0010 007c 0010 0028     ......(...|...(.
	...
  40648c:	0010 0010 0010 00fe 0010 0010 0010 0000     ................
	...
  4064b4:	0010 0030 0020 0000 0000 0000 0000 0000     ..0. ...........
  4064c4:	0000 0000 0000 007c 0000 0000 0000 0000     ......|.........
	...
  4064e8:	0000 0030 0030 0000 0000 0000 0000 0000     ..0.0...........
  4064f8:	0000 0008 0008 0010 0010 0020 0020 0040     .......... . .@.
  406508:	0040 0000 0000 0000 0000 0000 0000 0078     @.............x.
  406518:	0084 008c 0094 00a4 00c4 0084 0078 0000     ............x...
	...
  406530:	0000 0010 0030 0050 0010 0010 0010 0010     ....0.P.........
  406540:	007c 0000 0000 0000 0000 0000 0000 0070     |.............p.
  406550:	0088 0008 0010 0020 0040 0080 00f8 0000     ...... .@.......
	...
  406568:	0000 0070 0088 0008 0030 0008 0008 0088     ..p.....0.......
  406578:	0070 0000 0000 0000 0000 0000 0000 0008     p...............
  406588:	0018 0028 0048 0088 00fc 0008 0008 0000     ..(.H...........
	...
  4065a0:	0000 0078 0080 0080 00f0 0008 0008 0008     ..x.............
  4065b0:	00f0 0000 0000 0000 0000 0000 0000 0030     ..............0.
  4065c0:	0040 0080 00f0 0088 0088 0088 0070 0000     @...........p...
	...
  4065d8:	0000 00f8 0008 0010 0010 0020 0020 0040     .......... . .@.
  4065e8:	0040 0000 0000 0000 0000 0000 0000 0070     @.............p.
  4065f8:	0088 0088 0070 0088 0088 0088 0070 0000     ....p.......p...
	...
  406610:	0000 0070 0088 0088 0088 0078 0008 0010     ..p.......x.....
  406620:	0060 0000 0000 0000 0000 0000 0000 0000     `...............
  406630:	0000 0030 0030 0000 0000 0030 0030 0000     ..0.0.....0.0...
	...
  40664c:	0000 0030 0030 0000 0000 0030 0030 0060     ..0.0.....0.0.`.
  40665c:	0040 0000 0000 0000 0000 0000 0008 0010     @...............
  40666c:	0020 0040 0020 0010 0008 0000 0000 0000      .@. ...........
	...
  406688:	007c 0000 007c 0000 0000 0000 0000 0000     |...|...........
	...
  4066a0:	0040 0020 0010 0008 0010 0020 0040 0000     @. ....... .@...
	...
  4066b8:	0000 0030 0048 0008 0010 0020 0000 0000     ..0.H..... .....
  4066c8:	0020 0000 0000 0000 0000 0000 0000 0000      ...............
  4066d8:	003c 0042 009a 00aa 00aa 00be 0080 0078     <.B...........x.
	...
  4066f0:	0000 0010 0028 0028 0044 007c 0044 0044     ....(.(.D.|.D.D.
  406700:	0044 0000 0000 0000 0000 0000 0000 00f8     D...............
  406710:	0084 0084 00f8 0084 0084 0084 00f8 0000     ................
	...
  406728:	0000 003c 0040 0080 0080 0080 0080 0040     ..<.@.........@.
  406738:	003c 0000 0000 0000 0000 0000 0000 00f0     <...............
  406748:	0088 0084 0084 0084 0084 0088 00f0 0000     ................
	...
  406760:	0000 00f8 0080 0080 00f0 0080 0080 0080     ................
  406770:	00f8 0000 0000 0000 0000 0000 0000 00f8     ................
  406780:	0080 0080 00f8 0080 0080 0080 0080 0000     ................
	...
  406798:	0000 003c 0040 0080 0080 009c 0084 0044     ..<.@.........D.
  4067a8:	0038 0000 0000 0000 0000 0000 0000 0088     8...............
  4067b8:	0088 0088 00f8 0088 0088 0088 0088 0000     ................
	...
  4067d0:	0000 00f8 0020 0020 0020 0020 0020 0020     .... . . . . . .
  4067e0:	00f8 0000 0000 0000 0000 0000 0000 00f8     ................
  4067f0:	0008 0008 0008 0008 0008 0008 00f0 0000     ................
	...
  406808:	0000 0084 0088 0090 00a0 00d0 0088 0084     ................
  406818:	0084 0000 0000 0000 0000 0000 0000 0080     ................
  406828:	0080 0080 0080 0080 0080 0080 00fc 0000     ................
	...
  406840:	0000 0084 00cc 00cc 00b4 00b4 0084 0084     ................
  406850:	0084 0000 0000 0000 0000 0000 0000 0084     ................
  406860:	00c4 00c4 00a4 00a4 0094 0094 008c 0000     ................
	...
  406878:	0000 0078 0084 0084 0084 0084 0084 0084     ..x.............
  406888:	0078 0000 0000 0000 0000 0000 0000 00f8     x...............
  406898:	0084 0084 0084 00f8 0080 0080 0080 0000     ................
	...
  4068b0:	0000 0078 0084 0084 0084 0084 0084 0084     ..x.............
  4068c0:	0078 0020 0018 0000 0000 0000 0000 00f8     x. .............
  4068d0:	0084 0084 0084 00f8 0088 0084 0084 0000     ................
	...
  4068e8:	0000 007c 0080 0080 0060 0018 0004 0004     ..|.....`.......
  4068f8:	00f8 0000 0000 0000 0000 0000 0000 00f8     ................
  406908:	0020 0020 0020 0020 0020 0020 0020 0000      . . . . . . ...
	...
  406920:	0000 0084 0084 0084 0084 0084 0084 0084     ................
  406930:	0078 0000 0000 0000 0000 0000 0000 0084     x...............
  406940:	0084 0084 0048 0048 0048 0030 0030 0000     ....H.H.H.0.0...
	...
  406958:	0000 0088 00a8 00a8 00a8 00a8 00a8 0050     ..............P.
  406968:	0050 0000 0000 0000 0000 0000 0000 0088     P...............
  406978:	0088 0050 0020 0020 0050 0088 0088 0000     ..P. . .P.......
	...
  406990:	0000 0088 0088 0088 0050 0050 0020 0020     ........P.P. . .
  4069a0:	0020 0000 0000 0000 0000 0000 0000 00fc      ...............
  4069b0:	0004 0008 0010 0020 0040 0080 00fc 0000     ...... .@.......
	...
  4069c8:	0070 0040 0040 0040 0040 0040 0040 0040     p.@.@.@.@.@.@.@.
  4069d8:	0040 0040 0070 0000 0000 0000 0040 0040     @.@.p.......@.@.
  4069e8:	0020 0020 0020 0010 0010 0010 0008 0008      . . ...........
	...
  406a00:	0038 0008 0008 0008 0008 0008 0008 0008     8...............
  406a10:	0008 0008 0038 0000 0000 0000 0010 0028     ....8.........(.
  406a20:	0044 0000 0000 0000 0000 0000 0000 0000     D...............
	...
  406a48:	0038 0000 0000 0000 0000 0000 0000 0020     8............. .
  406a58:	0010 0000 0000 0000 0000 0000 0000 0000     ................
	...
  406a74:	0000 0070 0008 0008 0078 0088 007c 0000     ..p.....x...|...
	...
  406a8c:	0080 0080 0080 00f8 0084 0084 0084 0084     ................
  406a9c:	00f8 0000 0000 0000 0000 0000 0000 0000     ................
  406aac:	0000 0078 0080 0080 0080 0080 0078 0000     ..x.........x...
	...
  406ac4:	0004 0004 0004 007c 0084 0084 0084 008c     ......|.........
  406ad4:	0074 0000 0000 0000 0000 0000 0000 0000     t...............
  406ae4:	0000 0078 0084 00fc 0080 0080 007c 0000     ..x.........|...
	...
  406afc:	001c 0020 0020 00fc 0020 0020 0020 0020     .. . ... . . . .
  406b0c:	00fc 0000 0000 0000 0000 0000 0000 0000     ................
  406b1c:	0000 007c 0084 0084 0084 0084 007c 0004     ..|.........|...
  406b2c:	0078 0000 0000 0000 0080 0080 0080 00b8     x...............
  406b3c:	00c4 0084 0084 0084 0084 0000 0000 0000     ................
  406b4c:	0000 0000 0000 0010 0000 0070 0010 0010     ..........p.....
  406b5c:	0010 0010 007c 0000 0000 0000 0000 0000     ....|...........
  406b6c:	0000 0008 0000 0078 0008 0008 0008 0008     ......x.........
  406b7c:	0008 0008 0008 0070 0000 0000 0080 0080     ......p.........
  406b8c:	0080 0088 0090 00a0 00d0 0088 0088 0000     ................
	...
  406ba4:	00e0 0020 0020 0020 0020 0020 0020 0020     .. . . . . . . .
  406bb4:	00f8 0000 0000 0000 0000 0000 0000 0000     ................
  406bc4:	0000 00a4 00fc 00a4 00a4 00a4 00a4 0000     ................
	...
  406be0:	0000 00b8 00c4 0084 0084 0084 0084 0000     ................
	...
  406bfc:	0000 0078 0084 0084 0084 0084 0078 0000     ..x.........x...
	...
  406c18:	0000 00b8 00c4 0084 0084 0084 00f8 0080     ................
  406c28:	0080 0000 0000 0000 0000 0000 0000 007c     ..............|.
  406c38:	0084 0084 0084 0084 007c 0004 0004 0000     ........|.......
	...
  406c50:	0000 00d8 0060 0040 0040 0040 00f0 0000     ....`.@.@.@.....
	...
  406c6c:	0000 0078 0080 0040 0030 0008 00f0 0000     ..x...@.0.......
	...
  406c88:	0020 00fc 0020 0020 0020 0020 001c 0000      ... . . . .....
	...
  406ca4:	0000 0088 0088 0088 0088 0088 007c 0000     ............|...
	...
  406cc0:	0000 0084 0084 0084 0048 0048 0030 0000     ........H.H.0...
	...
  406cdc:	0000 0088 00a8 00a8 00a8 00a8 0050 0000     ............P...
	...
  406cf8:	0000 0088 0050 0020 0020 0050 0088 0000     ....P. . .P.....
	...
  406d14:	0000 0084 0084 0048 0048 0030 0010 0020     ......H.H.0... .
  406d24:	0040 0000 0000 0000 0000 0000 0000 00f8     @...............
  406d34:	0008 0010 0020 0040 00f8 0000 0000 0000     .... .@.........
  406d44:	0000 0000 0010 0020 0020 0010 0020 0020     ...... . ... . .
  406d54:	0010 0020 0020 0010 0000 0000 0000 0000     .. . ...........
  406d64:	0010 0010 0010 0010 0000 0000 0010 0010     ................
  406d74:	0010 0010 0000 0000 0000 0000 0020 0010     ............ ...
  406d84:	0010 0020 0010 0010 0020 0010 0010 0020     .. ..... ..... .
  406d94:	0000 0000 7246 7165 203a 2e25 6632 7a48     ....Freq: %.2fHz
  406da4:	0000 0000                                   ....

00406da8 <_global_impure_ptr>:
  406da8:	0028 2040 4e49 0046 6e69 0066 414e 004e     (.@ INF.inf.NAN.
  406db8:	616e 006e 3130 3332 3534 3736 3938 4241     nan.0123456789AB
  406dc8:	4443 4645 0000 0000 3130 3332 3534 3736     CDEF....01234567
  406dd8:	3938 6261 6463 6665 0000 0000 6e28 6c75     89abcdef....(nul
  406de8:	296c 0000 0030 0000                         l)..0...

00406df0 <blanks.7223>:
  406df0:	2020 2020 2020 2020 2020 2020 2020 2020                     

00406e00 <zeroes.7224>:
  406e00:	3030 3030 3030 3030 3030 3030 3030 3030     0000000000000000
  406e10:	6e49 6966 696e 7974 0000 0000 614e 004e     Infinity....NaN.

00406e20 <__mprec_bigtens>:
  406e20:	8000 37e0 c379 4341 6e17 b505 b8b5 4693     ...7y.AC.n.....F
  406e30:	f9f5 e93f 4f03 4d38 1d32 f930 7748 5a82     ..?..O8M2.0.Hw.Z
  406e40:	bf3c 7f73 4fdd 7515                         <.s..O.u

00406e48 <__mprec_tens>:
  406e48:	0000 0000 0000 3ff0 0000 0000 0000 4024     .......?......$@
  406e58:	0000 0000 0000 4059 0000 0000 4000 408f     ......Y@.....@.@
  406e68:	0000 0000 8800 40c3 0000 0000 6a00 40f8     .......@.....j.@
  406e78:	0000 0000 8480 412e 0000 0000 12d0 4163     .......A......cA
  406e88:	0000 0000 d784 4197 0000 0000 cd65 41cd     .......A....e..A
  406e98:	0000 2000 a05f 4202 0000 e800 4876 4237     ... _..B....vH7B
  406ea8:	0000 a200 1a94 426d 0000 e540 309c 42a2     ......mB..@..0.B
  406eb8:	0000 1e90 bcc4 42d6 0000 2634 6bf5 430c     .......B..4&.k.C
  406ec8:	8000 37e0 c379 4341 a000 85d8 3457 4376     ...7y.AC....W4vC
  406ed8:	c800 674e c16d 43ab 3d00 6091 58e4 43e1     ..Ngm..C.=.`.X.C
  406ee8:	8c40 78b5 af1d 4415 ef50 d6e2 1ae4 444b     @..x...DP.....KD
  406ef8:	d592 064d f0cf 4480 4af6 c7e1 2d02 44b5     ..M....D.J...-.D
  406f08:	9db4 79d9 7843 44ea                         ...yCx.D

00406f10 <p05.6055>:
  406f10:	0005 0000 0019 0000 007d 0000 0043 0000     ........}...C...
  406f20:	4f50 4953 0058 0000 002e 0000               POSIX.......

00406f2c <_ctype_>:
  406f2c:	2000 2020 2020 2020 2020 2828 2828 2028     .         ((((( 
  406f3c:	2020 2020 2020 2020 2020 2020 2020 2020                     
  406f4c:	8820 1010 1010 1010 1010 1010 1010 1010      ...............
  406f5c:	0410 0404 0404 0404 0404 1004 1010 1010     ................
  406f6c:	1010 4141 4141 4141 0101 0101 0101 0101     ..AAAAAA........
  406f7c:	0101 0101 0101 0101 0101 0101 1010 1010     ................
  406f8c:	1010 4242 4242 4242 0202 0202 0202 0202     ..BBBBBB........
  406f9c:	0202 0202 0202 0202 0202 0202 1010 1010     ................
  406fac:	0020 0000 0000 0000 0000 0000 0000 0000      ...............
	...

00407030 <_init>:
  407030:	b5f8      	push	{r3, r4, r5, r6, r7, lr}
  407032:	bf00      	nop
  407034:	bcf8      	pop	{r3, r4, r5, r6, r7}
  407036:	bc08      	pop	{r3}
  407038:	469e      	mov	lr, r3
  40703a:	4770      	bx	lr

0040703c <__init_array_start>:
  40703c:	00403a5d 	.word	0x00403a5d

00407040 <__frame_dummy_init_array_entry>:
  407040:	00400165                                e.@.

00407044 <_fini>:
  407044:	b5f8      	push	{r3, r4, r5, r6, r7, lr}
  407046:	bf00      	nop
  407048:	bcf8      	pop	{r3, r4, r5, r6, r7}
  40704a:	bc08      	pop	{r3}
  40704c:	469e      	mov	lr, r3
  40704e:	4770      	bx	lr

00407050 <__fini_array_start>:
  407050:	00400141 	.word	0x00400141

Disassembly of section .relocate:

20400000 <portable_delay_cycles>:
20400000:	f3bf 8f5f 	dmb	sy
20400004:	3801      	subs	r0, #1
20400006:	d1fb      	bne.n	20400000 <portable_delay_cycles>
20400008:	4770      	bx	lr
	...

2040000c <sysfont>:
2040000c:	0000 0000 6350 0040 0e0a 7d20               ....Pc@... }

20400018 <g_interrupt_enabled>:
20400018:	0001 0000                                   ....

2040001c <SystemCoreClock>:
2040001c:	0900 003d                                   ..=.

20400020 <delay>:
20400020:	0190 0000                                   ....

20400024 <_impure_ptr>:
20400024:	0028 2040                                   (.@ 

20400028 <impure_data>:
20400028:	0000 0000 0314 2040 037c 2040 03e4 2040     ......@ |.@ ..@ 
	...
204000d0:	0001 0000 0000 0000 330e abcd 1234 e66d     .........3..4.m.
204000e0:	deec 0005 000b 0000 0000 0000 0000 0000     ................
	...

20400450 <__atexit_recursive_mutex>:
20400450:	0d34 2040                                   4.@ 

20400454 <__malloc_av_>:
	...
2040045c:	0454 2040 0454 2040 045c 2040 045c 2040     T.@ T.@ \.@ \.@ 
2040046c:	0464 2040 0464 2040 046c 2040 046c 2040     d.@ d.@ l.@ l.@ 
2040047c:	0474 2040 0474 2040 047c 2040 047c 2040     t.@ t.@ |.@ |.@ 
2040048c:	0484 2040 0484 2040 048c 2040 048c 2040     ..@ ..@ ..@ ..@ 
2040049c:	0494 2040 0494 2040 049c 2040 049c 2040     ..@ ..@ ..@ ..@ 
204004ac:	04a4 2040 04a4 2040 04ac 2040 04ac 2040     ..@ ..@ ..@ ..@ 
204004bc:	04b4 2040 04b4 2040 04bc 2040 04bc 2040     ..@ ..@ ..@ ..@ 
204004cc:	04c4 2040 04c4 2040 04cc 2040 04cc 2040     ..@ ..@ ..@ ..@ 
204004dc:	04d4 2040 04d4 2040 04dc 2040 04dc 2040     ..@ ..@ ..@ ..@ 
204004ec:	04e4 2040 04e4 2040 04ec 2040 04ec 2040     ..@ ..@ ..@ ..@ 
204004fc:	04f4 2040 04f4 2040 04fc 2040 04fc 2040     ..@ ..@ ..@ ..@ 
2040050c:	0504 2040 0504 2040 050c 2040 050c 2040     ..@ ..@ ..@ ..@ 
2040051c:	0514 2040 0514 2040 051c 2040 051c 2040     ..@ ..@ ..@ ..@ 
2040052c:	0524 2040 0524 2040 052c 2040 052c 2040     $.@ $.@ ,.@ ,.@ 
2040053c:	0534 2040 0534 2040 053c 2040 053c 2040     4.@ 4.@ <.@ <.@ 
2040054c:	0544 2040 0544 2040 054c 2040 054c 2040     D.@ D.@ L.@ L.@ 
2040055c:	0554 2040 0554 2040 055c 2040 055c 2040     T.@ T.@ \.@ \.@ 
2040056c:	0564 2040 0564 2040 056c 2040 056c 2040     d.@ d.@ l.@ l.@ 
2040057c:	0574 2040 0574 2040 057c 2040 057c 2040     t.@ t.@ |.@ |.@ 
2040058c:	0584 2040 0584 2040 058c 2040 058c 2040     ..@ ..@ ..@ ..@ 
2040059c:	0594 2040 0594 2040 059c 2040 059c 2040     ..@ ..@ ..@ ..@ 
204005ac:	05a4 2040 05a4 2040 05ac 2040 05ac 2040     ..@ ..@ ..@ ..@ 
204005bc:	05b4 2040 05b4 2040 05bc 2040 05bc 2040     ..@ ..@ ..@ ..@ 
204005cc:	05c4 2040 05c4 2040 05cc 2040 05cc 2040     ..@ ..@ ..@ ..@ 
204005dc:	05d4 2040 05d4 2040 05dc 2040 05dc 2040     ..@ ..@ ..@ ..@ 
204005ec:	05e4 2040 05e4 2040 05ec 2040 05ec 2040     ..@ ..@ ..@ ..@ 
204005fc:	05f4 2040 05f4 2040 05fc 2040 05fc 2040     ..@ ..@ ..@ ..@ 
2040060c:	0604 2040 0604 2040 060c 2040 060c 2040     ..@ ..@ ..@ ..@ 
2040061c:	0614 2040 0614 2040 061c 2040 061c 2040     ..@ ..@ ..@ ..@ 
2040062c:	0624 2040 0624 2040 062c 2040 062c 2040     $.@ $.@ ,.@ ,.@ 
2040063c:	0634 2040 0634 2040 063c 2040 063c 2040     4.@ 4.@ <.@ <.@ 
2040064c:	0644 2040 0644 2040 064c 2040 064c 2040     D.@ D.@ L.@ L.@ 
2040065c:	0654 2040 0654 2040 065c 2040 065c 2040     T.@ T.@ \.@ \.@ 
2040066c:	0664 2040 0664 2040 066c 2040 066c 2040     d.@ d.@ l.@ l.@ 
2040067c:	0674 2040 0674 2040 067c 2040 067c 2040     t.@ t.@ |.@ |.@ 
2040068c:	0684 2040 0684 2040 068c 2040 068c 2040     ..@ ..@ ..@ ..@ 
2040069c:	0694 2040 0694 2040 069c 2040 069c 2040     ..@ ..@ ..@ ..@ 
204006ac:	06a4 2040 06a4 2040 06ac 2040 06ac 2040     ..@ ..@ ..@ ..@ 
204006bc:	06b4 2040 06b4 2040 06bc 2040 06bc 2040     ..@ ..@ ..@ ..@ 
204006cc:	06c4 2040 06c4 2040 06cc 2040 06cc 2040     ..@ ..@ ..@ ..@ 
204006dc:	06d4 2040 06d4 2040 06dc 2040 06dc 2040     ..@ ..@ ..@ ..@ 
204006ec:	06e4 2040 06e4 2040 06ec 2040 06ec 2040     ..@ ..@ ..@ ..@ 
204006fc:	06f4 2040 06f4 2040 06fc 2040 06fc 2040     ..@ ..@ ..@ ..@ 
2040070c:	0704 2040 0704 2040 070c 2040 070c 2040     ..@ ..@ ..@ ..@ 
2040071c:	0714 2040 0714 2040 071c 2040 071c 2040     ..@ ..@ ..@ ..@ 
2040072c:	0724 2040 0724 2040 072c 2040 072c 2040     $.@ $.@ ,.@ ,.@ 
2040073c:	0734 2040 0734 2040 073c 2040 073c 2040     4.@ 4.@ <.@ <.@ 
2040074c:	0744 2040 0744 2040 074c 2040 074c 2040     D.@ D.@ L.@ L.@ 
2040075c:	0754 2040 0754 2040 075c 2040 075c 2040     T.@ T.@ \.@ \.@ 
2040076c:	0764 2040 0764 2040 076c 2040 076c 2040     d.@ d.@ l.@ l.@ 
2040077c:	0774 2040 0774 2040 077c 2040 077c 2040     t.@ t.@ |.@ |.@ 
2040078c:	0784 2040 0784 2040 078c 2040 078c 2040     ..@ ..@ ..@ ..@ 
2040079c:	0794 2040 0794 2040 079c 2040 079c 2040     ..@ ..@ ..@ ..@ 
204007ac:	07a4 2040 07a4 2040 07ac 2040 07ac 2040     ..@ ..@ ..@ ..@ 
204007bc:	07b4 2040 07b4 2040 07bc 2040 07bc 2040     ..@ ..@ ..@ ..@ 
204007cc:	07c4 2040 07c4 2040 07cc 2040 07cc 2040     ..@ ..@ ..@ ..@ 
204007dc:	07d4 2040 07d4 2040 07dc 2040 07dc 2040     ..@ ..@ ..@ ..@ 
204007ec:	07e4 2040 07e4 2040 07ec 2040 07ec 2040     ..@ ..@ ..@ ..@ 
204007fc:	07f4 2040 07f4 2040 07fc 2040 07fc 2040     ..@ ..@ ..@ ..@ 
2040080c:	0804 2040 0804 2040 080c 2040 080c 2040     ..@ ..@ ..@ ..@ 
2040081c:	0814 2040 0814 2040 081c 2040 081c 2040     ..@ ..@ ..@ ..@ 
2040082c:	0824 2040 0824 2040 082c 2040 082c 2040     $.@ $.@ ,.@ ,.@ 
2040083c:	0834 2040 0834 2040 083c 2040 083c 2040     4.@ 4.@ <.@ <.@ 
2040084c:	0844 2040 0844 2040 084c 2040 084c 2040     D.@ D.@ L.@ L.@ 

2040085c <__malloc_sbrk_base>:
2040085c:	ffff ffff                                   ....

20400860 <__malloc_trim_threshold>:
20400860:	0000 0002                                   ....

20400864 <__global_locale>:
20400864:	0043 0000 0000 0000 0000 0000 0000 0000     C...............
	...
20400884:	0043 0000 0000 0000 0000 0000 0000 0000     C...............
	...
204008a4:	0043 0000 0000 0000 0000 0000 0000 0000     C...............
	...
204008c4:	0043 0000 0000 0000 0000 0000 0000 0000     C...............
	...
204008e4:	0043 0000 0000 0000 0000 0000 0000 0000     C...............
	...
20400904:	0043 0000 0000 0000 0000 0000 0000 0000     C...............
	...
20400924:	0043 0000 0000 0000 0000 0000 0000 0000     C...............
	...
20400944:	61a9 0040 5d69 0040 0000 0000 6f2c 0040     .a@.i]@.....,o@.
20400954:	6f28 0040 6dcc 0040 6dcc 0040 6dcc 0040     (o@..m@..m@..m@.
20400964:	6dcc 0040 6dcc 0040 6dcc 0040 6dcc 0040     .m@..m@..m@..m@.
20400974:	6dcc 0040 6dcc 0040 ffff ffff ffff ffff     .m@..m@.........
20400984:	ffff ffff ffff 0000 0001 5341 4943 0049     ..........ASCII.
	...
204009ac:	0000 5341 4943 0049 0000 0000 0000 0000     ..ASCII.........
	...
