
FREERTOS_SAM_EXAMPLE1.elf:     file format elf32-littlearm

Sections:
Idx Name          Size      VMA       LMA       File off  Algn
  0 .text         0000606c  00400000  00400000  00010000  2**6
                  CONTENTS, ALLOC, LOAD, READONLY, CODE
  1 .ARM.exidx    00000008  0040606c  0040606c  0001606c  2**2
                  CONTENTS, ALLOC, LOAD, READONLY, DATA
  2 .relocate     000009c0  20400000  00406074  00020000  2**3
                  CONTENTS, ALLOC, LOAD, CODE
  3 .bss          00000290  204009c0  00406a34  000209c0  2**2
                  ALLOC
  4 .stack        00002000  20400c50  00406cc4  000209c0  2**0
                  ALLOC
  5 .heap         00000200  20402c50  00408cc4  000209c0  2**0
                  ALLOC
  6 .ARM.attributes 0000002e  00000000  00000000  000209c0  2**0
                  CONTENTS, READONLY
  7 .comment      00000059  00000000  00000000  000209ee  2**0
                  CONTENTS, READONLY
  8 .debug_info   0001e7b3  00000000  00000000  00020a47  2**0
                  CONTENTS, READONLY, DEBUGGING
  9 .debug_abbrev 0000418f  00000000  00000000  0003f1fa  2**0
                  CONTENTS, READONLY, DEBUGGING
 10 .debug_loc    0000a58a  00000000  00000000  00043389  2**0
                  CONTENTS, READONLY, DEBUGGING
 11 .debug_aranges 00000e08  00000000  00000000  0004d913  2**0
                  CONTENTS, READONLY, DEBUGGING
 12 .debug_ranges 00001e20  00000000  00000000  0004e71b  2**0
                  CONTENTS, READONLY, DEBUGGING
 13 .debug_macro  00021893  00000000  00000000  0005053b  2**0
                  CONTENTS, READONLY, DEBUGGING
 14 .debug_line   00010f93  00000000  00000000  00071dce  2**0
                  CONTENTS, READONLY, DEBUGGING
 15 .debug_str    00093779  00000000  00000000  00082d61  2**0
                  CONTENTS, READONLY, DEBUGGING
 16 .debug_frame  000031f4  00000000  00000000  001164dc  2**2
                  CONTENTS, READONLY, DEBUGGING

Disassembly of section .text:

00400000 <exception_table>:
  400000:	50 2c 40 20 b1 09 40 00 ad 09 40 00 ad 09 40 00     P,@ ..@...@...@.
  400010:	ad 09 40 00 ad 09 40 00 ad 09 40 00 00 00 00 00     ..@...@...@.....
	...
  40002c:	6d 0d 40 00 ad 09 40 00 00 00 00 00 09 0e 40 00     m.@...@.......@.
  40003c:	71 0e 40 00 ad 09 40 00 ad 09 40 00 ad 09 40 00     q.@...@...@...@.
  40004c:	ad 09 40 00 ad 09 40 00 ad 09 40 00 ad 09 40 00     ..@...@...@...@.
  40005c:	ad 09 40 00 ad 09 40 00 00 00 00 00 e5 06 40 00     ..@...@.......@.
  40006c:	f5 06 40 00 05 07 40 00 ad 09 40 00 ad 09 40 00     ..@...@...@...@.
  40007c:	ad 09 40 00 15 07 40 00 25 07 40 00 ad 09 40 00     ..@...@.%.@...@.
  40008c:	ad 09 40 00 ad 09 40 00 ad 09 40 00 ad 09 40 00     ..@...@...@...@.
  40009c:	ad 09 40 00 ad 09 40 00 ad 09 40 00 ad 09 40 00     ..@...@...@...@.
  4000ac:	ad 09 40 00 ad 09 40 00 ad 09 40 00 ad 09 40 00     ..@...@...@...@.
  4000bc:	ad 09 40 00 ad 09 40 00 ad 09 40 00 ad 09 40 00     ..@...@...@...@.
  4000cc:	ad 09 40 00 00 00 00 00 ad 09 40 00 00 00 00 00     ..@.......@.....
  4000dc:	ad 09 40 00 ad 09 40 00 ad 09 40 00 ad 09 40 00     ..@...@...@...@.
  4000ec:	ad 09 40 00 ad 09 40 00 ad 09 40 00 ad 09 40 00     ..@...@...@...@.
  4000fc:	ad 09 40 00 ad 09 40 00 ad 09 40 00 ad 09 40 00     ..@...@...@...@.
  40010c:	ad 09 40 00 ad 09 40 00 00 00 00 00 00 00 00 00     ..@...@.........
  40011c:	00 00 00 00 ad 09 40 00 ad 09 40 00 ad 09 40 00     ......@...@...@.
  40012c:	ad 09 40 00 ad 09 40 00 00 00 00 00 ad 09 40 00     ..@...@.......@.
  40013c:	ad 09 40 00                                         ..@.

00400140 <__do_global_dtors_aux>:
  400140:	b510      	push	{r4, lr}
  400142:	4c05      	ldr	r4, [pc, #20]	; (400158 <__do_global_dtors_aux+0x18>)
  400144:	7823      	ldrb	r3, [r4, #0]
  400146:	b933      	cbnz	r3, 400156 <__do_global_dtors_aux+0x16>
  400148:	4b04      	ldr	r3, [pc, #16]	; (40015c <__do_global_dtors_aux+0x1c>)
  40014a:	b113      	cbz	r3, 400152 <__do_global_dtors_aux+0x12>
  40014c:	4804      	ldr	r0, [pc, #16]	; (400160 <__do_global_dtors_aux+0x20>)
  40014e:	f3af 8000 	nop.w
  400152:	2301      	movs	r3, #1
  400154:	7023      	strb	r3, [r4, #0]
  400156:	bd10      	pop	{r4, pc}
  400158:	204009c0 	.word	0x204009c0
  40015c:	00000000 	.word	0x00000000
  400160:	00406074 	.word	0x00406074

00400164 <frame_dummy>:
  400164:	4b0c      	ldr	r3, [pc, #48]	; (400198 <frame_dummy+0x34>)
  400166:	b143      	cbz	r3, 40017a <frame_dummy+0x16>
  400168:	480c      	ldr	r0, [pc, #48]	; (40019c <frame_dummy+0x38>)
  40016a:	490d      	ldr	r1, [pc, #52]	; (4001a0 <frame_dummy+0x3c>)
  40016c:	b510      	push	{r4, lr}
  40016e:	f3af 8000 	nop.w
  400172:	480c      	ldr	r0, [pc, #48]	; (4001a4 <frame_dummy+0x40>)
  400174:	6803      	ldr	r3, [r0, #0]
  400176:	b923      	cbnz	r3, 400182 <frame_dummy+0x1e>
  400178:	bd10      	pop	{r4, pc}
  40017a:	480a      	ldr	r0, [pc, #40]	; (4001a4 <frame_dummy+0x40>)
  40017c:	6803      	ldr	r3, [r0, #0]
  40017e:	b933      	cbnz	r3, 40018e <frame_dummy+0x2a>
  400180:	4770      	bx	lr
  400182:	4b09      	ldr	r3, [pc, #36]	; (4001a8 <frame_dummy+0x44>)
  400184:	2b00      	cmp	r3, #0
  400186:	d0f7      	beq.n	400178 <frame_dummy+0x14>
  400188:	e8bd 4010 	ldmia.w	sp!, {r4, lr}
  40018c:	4718      	bx	r3
  40018e:	4b06      	ldr	r3, [pc, #24]	; (4001a8 <frame_dummy+0x44>)
  400190:	2b00      	cmp	r3, #0
  400192:	d0f5      	beq.n	400180 <frame_dummy+0x1c>
  400194:	4718      	bx	r3
  400196:	bf00      	nop
  400198:	00000000 	.word	0x00000000
  40019c:	00406074 	.word	0x00406074
  4001a0:	204009c4 	.word	0x204009c4
  4001a4:	00406074 	.word	0x00406074
  4001a8:	00000000 	.word	0x00000000

004001ac <sysclk_init>:
	pmc_disable_udpck();
}
#endif // CONFIG_USBCLK_SOURCE

void sysclk_init(void)
{
  4001ac:	b570      	push	{r4, r5, r6, lr}
	struct pll_config pllcfg;

	/* Set flash wait state to max in case the below clock switching. */
	system_init_flash(CHIP_FREQ_CPU_MAX);
  4001ae:	4810      	ldr	r0, [pc, #64]	; (4001f0 <sysclk_init+0x44>)
  4001b0:	4d10      	ldr	r5, [pc, #64]	; (4001f4 <sysclk_init+0x48>)
  4001b2:	47a8      	blx	r5
		pmc_switch_mainck_to_fastrc(CKGR_MOR_MOSCRCF_12_MHz);
		break;


	case OSC_MAINCK_XTAL:
		pmc_switch_mainck_to_xtal(PMC_OSC_XTAL,
  4001b4:	213e      	movs	r1, #62	; 0x3e
  4001b6:	2000      	movs	r0, #0
  4001b8:	4b0f      	ldr	r3, [pc, #60]	; (4001f8 <sysclk_init+0x4c>)
  4001ba:	4c10      	ldr	r4, [pc, #64]	; (4001fc <sysclk_init+0x50>)
  4001bc:	4798      	blx	r3
	case OSC_MAINCK_4M_RC:
	case OSC_MAINCK_8M_RC:
	case OSC_MAINCK_12M_RC:
	case OSC_MAINCK_XTAL:
	case OSC_MAINCK_BYPASS:
		return pmc_osc_is_ready_mainck();
  4001be:	47a0      	blx	r4
 *
 * \param id A number identifying the oscillator to wait for.
 */
static inline void osc_wait_ready(uint8_t id)
{
	while (!osc_is_ready(id)) {
  4001c0:	2800      	cmp	r0, #0
  4001c2:	d0fc      	beq.n	4001be <sysclk_init+0x12>
static inline void pll_enable(const struct pll_config *p_cfg, uint32_t ul_pll_id)
{
	Assert(ul_pll_id < NR_PLLS);

	if (ul_pll_id == PLLA_ID) {
		pmc_disable_pllack(); // Always stop PLL first!
  4001c4:	4b0e      	ldr	r3, [pc, #56]	; (400200 <sysclk_init+0x54>)
  4001c6:	4798      	blx	r3
  4001c8:	4c0e      	ldr	r4, [pc, #56]	; (400204 <sysclk_init+0x58>)
		PMC->CKGR_PLLAR = CKGR_PLLAR_ONE | p_cfg->ctrl;
  4001ca:	4b0f      	ldr	r3, [pc, #60]	; (400208 <sysclk_init+0x5c>)
  4001cc:	4a0f      	ldr	r2, [pc, #60]	; (40020c <sysclk_init+0x60>)
  4001ce:	629a      	str	r2, [r3, #40]	; 0x28
static inline uint32_t pll_is_locked(uint32_t ul_pll_id)
{
	Assert(ul_pll_id < NR_PLLS);

	if (ul_pll_id == PLLA_ID) {
	return pmc_is_locked_pllack();
  4001d0:	47a0      	blx	r4
 */
static inline int pll_wait_for_lock(unsigned int pll_id)
{
	Assert(pll_id < NR_PLLS);

	while (!pll_is_locked(pll_id)) {
  4001d2:	2800      	cmp	r0, #0
  4001d4:	d0fc      	beq.n	4001d0 <sysclk_init+0x24>
	else if (CONFIG_SYSCLK_SOURCE == SYSCLK_SRC_PLLACK) {
		pll_enable_source(CONFIG_PLL0_SOURCE);
		pll_config_defaults(&pllcfg, 0);
		pll_enable(&pllcfg, 0);
		pll_wait_for_lock(0);
		pmc_mck_set_division(CONFIG_SYSCLK_DIV);
  4001d6:	2002      	movs	r0, #2
  4001d8:	4b0d      	ldr	r3, [pc, #52]	; (400210 <sysclk_init+0x64>)
  4001da:	4798      	blx	r3
		pmc_switch_mck_to_pllack(CONFIG_SYSCLK_PRES);
  4001dc:	4b0d      	ldr	r3, [pc, #52]	; (400214 <sysclk_init+0x68>)
  4001de:	2000      	movs	r0, #0
  4001e0:	4798      	blx	r3
		pll_wait_for_lock(1);
		pmc_mck_set_division(CONFIG_SYSCLK_DIV);
		pmc_switch_mck_to_upllck(CONFIG_SYSCLK_PRES);
	}
	/* Update the SystemFrequency variable */
	SystemCoreClockUpdate();
  4001e2:	4b0d      	ldr	r3, [pc, #52]	; (400218 <sysclk_init+0x6c>)
  4001e4:	4798      	blx	r3

	/* Set a flash wait state depending on the new cpu frequency */
	system_init_flash(sysclk_get_cpu_hz());
  4001e6:	462b      	mov	r3, r5
  4001e8:	4801      	ldr	r0, [pc, #4]	; (4001f0 <sysclk_init+0x44>)

#if (defined CONFIG_SYSCLK_DEFAULT_RETURNS_SLOW_OSC)
	/* Signal that the internal frequencies are setup */
	sysclk_initialized = 1;
#endif
}
  4001ea:	e8bd 4070 	ldmia.w	sp!, {r4, r5, r6, lr}
	system_init_flash(sysclk_get_cpu_hz());
  4001ee:	4718      	bx	r3
  4001f0:	11e1a300 	.word	0x11e1a300
  4001f4:	00400b55 	.word	0x00400b55
  4001f8:	004007b9 	.word	0x004007b9
  4001fc:	0040080d 	.word	0x0040080d
  400200:	0040081d 	.word	0x0040081d
  400204:	0040082d 	.word	0x0040082d
  400208:	400e0600 	.word	0x400e0600
  40020c:	20183f01 	.word	0x20183f01
  400210:	00400735 	.word	0x00400735
  400214:	00400765 	.word	0x00400765
  400218:	00400a71 	.word	0x00400a71

0040021c <_read>:
int __attribute__((weak))
_read (int file, char * ptr, int len); // Remove GCC compiler warning

int __attribute__((weak))
_read (int file, char * ptr, int len)
{
  40021c:	e92d 41f0 	stmdb	sp!, {r4, r5, r6, r7, r8, lr}
	int nChars = 0;

	if (file != 0) {
  400220:	b990      	cbnz	r0, 400248 <_read+0x2c>
		return -1;
	}

	for (; len > 0; --len) {
  400222:	2a00      	cmp	r2, #0
  400224:	4690      	mov	r8, r2
  400226:	dd0d      	ble.n	400244 <_read+0x28>
  400228:	460c      	mov	r4, r1
  40022a:	188f      	adds	r7, r1, r2
  40022c:	4e08      	ldr	r6, [pc, #32]	; (400250 <_read+0x34>)
  40022e:	4d09      	ldr	r5, [pc, #36]	; (400254 <_read+0x38>)
		ptr_get(stdio_base, ptr);
  400230:	4621      	mov	r1, r4
		ptr++;
  400232:	3401      	adds	r4, #1
		ptr_get(stdio_base, ptr);
  400234:	6830      	ldr	r0, [r6, #0]
  400236:	682b      	ldr	r3, [r5, #0]
  400238:	4798      	blx	r3
	for (; len > 0; --len) {
  40023a:	42bc      	cmp	r4, r7
  40023c:	d1f8      	bne.n	400230 <_read+0x14>
		nChars++;
	}
	return nChars;
}
  40023e:	4640      	mov	r0, r8
  400240:	e8bd 81f0 	ldmia.w	sp!, {r4, r5, r6, r7, r8, pc}
	for (; len > 0; --len) {
  400244:	4680      	mov	r8, r0
  400246:	e7fa      	b.n	40023e <_read+0x22>
		return -1;
  400248:	f04f 38ff 	mov.w	r8, #4294967295
  40024c:	e7f7      	b.n	40023e <_read+0x22>
  40024e:	bf00      	nop
  400250:	20400bdc 	.word	0x20400bdc
  400254:	20400bd4 	.word	0x20400bd4

00400258 <_write>:
int __attribute__((weak))
_write (int file, const char *ptr, int len)
{
	int nChars = 0;

	if ((file != 1) && (file != 2) && (file!=3)) {
  400258:	3801      	subs	r0, #1
  40025a:	2802      	cmp	r0, #2
  40025c:	d81e      	bhi.n	40029c <_write+0x44>
{
  40025e:	e92d 41f0 	stmdb	sp!, {r4, r5, r6, r7, r8, lr}
  400262:	4615      	mov	r5, r2
		return -1;
	}

	for (; len != 0; --len) {
  400264:	b1ba      	cbz	r2, 400296 <_write+0x3e>
  400266:	460e      	mov	r6, r1
  400268:	460c      	mov	r4, r1
  40026a:	f8df 803c 	ldr.w	r8, [pc, #60]	; 4002a8 <_write+0x50>
  40026e:	4f0d      	ldr	r7, [pc, #52]	; (4002a4 <_write+0x4c>)
  400270:	e001      	b.n	400276 <_write+0x1e>
  400272:	3d01      	subs	r5, #1
  400274:	d00d      	beq.n	400292 <_write+0x3a>
		if (ptr_put(stdio_base, *ptr++) < 0) {
  400276:	f814 1b01 	ldrb.w	r1, [r4], #1
  40027a:	f8d8 0000 	ldr.w	r0, [r8]
  40027e:	683b      	ldr	r3, [r7, #0]
  400280:	4798      	blx	r3
  400282:	2800      	cmp	r0, #0
  400284:	eba4 0006 	sub.w	r0, r4, r6
  400288:	daf3      	bge.n	400272 <_write+0x1a>
		return -1;
  40028a:	f04f 30ff 	mov.w	r0, #4294967295
  40028e:	e8bd 81f0 	ldmia.w	sp!, {r4, r5, r6, r7, r8, pc}
  400292:	e8bd 81f0 	ldmia.w	sp!, {r4, r5, r6, r7, r8, pc}
	for (; len != 0; --len) {
  400296:	4610      	mov	r0, r2
			return -1;
		}
		++nChars;
	}
	return nChars;
}
  400298:	e8bd 81f0 	ldmia.w	sp!, {r4, r5, r6, r7, r8, pc}
		return -1;
  40029c:	f04f 30ff 	mov.w	r0, #4294967295
}
  4002a0:	4770      	bx	lr
  4002a2:	bf00      	nop
  4002a4:	20400bd8 	.word	0x20400bd8
  4002a8:	20400bdc 	.word	0x20400bdc

004002ac <board_init>:
	__ISB();
}
#endif

void board_init(void)
{
  4002ac:	b5f8      	push	{r3, r4, r5, r6, r7, lr}
#ifndef CONF_BOARD_KEEP_WATCHDOG_AT_INIT
	/* Disable the watchdog */
	WDT->WDT_MR = WDT_MR_WDDIS;
  4002ae:	f44f 4200 	mov.w	r2, #32768	; 0x8000
  4002b2:	4b5a      	ldr	r3, [pc, #360]	; (40041c <board_init+0x170>)
  4002b4:	605a      	str	r2, [r3, #4]
    This function acts as a special kind of Data Memory Barrier.
    It completes when all explicit memory accesses before this instruction complete.
 */
__attribute__( ( always_inline ) ) __STATIC_INLINE void __DSB(void)
{
  __ASM volatile ("dsb");
  4002b6:	f3bf 8f4f 	dsb	sy
  __ASM volatile ("isb");
  4002ba:	f3bf 8f6f 	isb	sy
__STATIC_INLINE void SCB_EnableICache(void)
{
  #if (__ICACHE_PRESENT == 1)
    __DSB();
    __ISB();
    SCB->ICIALLU = 0;                       // invalidate I-Cache
  4002be:	4c58      	ldr	r4, [pc, #352]	; (400420 <board_init+0x174>)
  4002c0:	2300      	movs	r3, #0
  4002c2:	f8c4 3250 	str.w	r3, [r4, #592]	; 0x250
    SCB->CCR |=  SCB_CCR_IC_Msk;            // enable I-Cache
  4002c6:	6963      	ldr	r3, [r4, #20]
  4002c8:	f443 3300 	orr.w	r3, r3, #131072	; 0x20000
  4002cc:	6163      	str	r3, [r4, #20]
  __ASM volatile ("dsb");
  4002ce:	f3bf 8f4f 	dsb	sy
  __ASM volatile ("isb");
  4002d2:	f3bf 8f6f 	isb	sy
{
  #if (__DCACHE_PRESENT == 1)
    uint32_t ccsidr, sshift, wshift, sw;
    uint32_t sets, ways;

    ccsidr  = SCB->CCSIDR;
  4002d6:	f8d4 3080 	ldr.w	r3, [r4, #128]	; 0x80
    sets    = CCSIDR_SETS(ccsidr);
    sshift  = CCSIDR_LSSHIFT(ccsidr) + 4;
  4002da:	f003 0607 	and.w	r6, r3, #7
    sets    = CCSIDR_SETS(ccsidr);
  4002de:	f3c3 3e4e 	ubfx	lr, r3, #13, #15
    ways    = CCSIDR_WAYS(ccsidr);
  4002e2:	f3c3 0cc9 	ubfx	ip, r3, #3, #10
    sshift  = CCSIDR_LSSHIFT(ccsidr) + 4;
  4002e6:	3604      	adds	r6, #4
 */
__attribute__( ( always_inline ) ) __STATIC_INLINE uint8_t __CLZ(uint32_t value)
{
  uint32_t result;

  __ASM volatile ("clz %0, %1" : "=r" (result) : "r" (value) );
  4002e8:	fabc f38c 	clz	r3, ip
    wshift  = __CLZ(ways) & 0x1f;
  4002ec:	f003 031f 	and.w	r3, r3, #31
  __ASM volatile ("dsb");
  4002f0:	f3bf 8f4f 	dsb	sy
  4002f4:	f04f 35ff 	mov.w	r5, #4294967295
  4002f8:	fa0e f006 	lsl.w	r0, lr, r6
  4002fc:	fa0c f703 	lsl.w	r7, ip, r3
  400300:	fa05 f606 	lsl.w	r6, r5, r6
  400304:	409d      	lsls	r5, r3
{
  400306:	463a      	mov	r2, r7

    __DSB();

    do {                                    // invalidate D-Cache
         int32_t tmpways = ways;
  400308:	4663      	mov	r3, ip
         do {
              sw = ((tmpways << wshift) | (sets << sshift));
  40030a:	ea40 0102 	orr.w	r1, r0, r2
              SCB->DCISW = sw;
            } while(tmpways--);
  40030e:	3b01      	subs	r3, #1
  400310:	442a      	add	r2, r5
              SCB->DCISW = sw;
  400312:	f8c4 1260 	str.w	r1, [r4, #608]	; 0x260
            } while(tmpways--);
  400316:	1c59      	adds	r1, r3, #1
  400318:	d1f7      	bne.n	40030a <board_init+0x5e>
        } while(sets--);
  40031a:	f10e 3eff 	add.w	lr, lr, #4294967295
  40031e:	4430      	add	r0, r6
  400320:	f1be 3fff 	cmp.w	lr, #4294967295
  400324:	d1ef      	bne.n	400306 <board_init+0x5a>
  400326:	f3bf 8f4f 	dsb	sy
    __DSB();

    SCB->CCR |=  SCB_CCR_DC_Msk;            // enable D-Cache
  40032a:	6963      	ldr	r3, [r4, #20]
  40032c:	f443 3380 	orr.w	r3, r3, #65536	; 0x10000
  400330:	6163      	str	r3, [r4, #20]
  400332:	f3bf 8f4f 	dsb	sy
  __ASM volatile ("isb");
  400336:	f3bf 8f6f 	isb	sy
		*dst++ = *src++;
	}
#endif
#else
	/* TCM Configuration */
	EFC->EEFC_FCR = (EEFC_FCR_FKEY_PASSWD | EEFC_FCR_FCMD_CGPB 
  40033a:	4b3a      	ldr	r3, [pc, #232]	; (400424 <board_init+0x178>)
  40033c:	493a      	ldr	r1, [pc, #232]	; (400428 <board_init+0x17c>)
					| EEFC_FCR_FARG(8));
	EFC->EEFC_FCR = (EEFC_FCR_FKEY_PASSWD | EEFC_FCR_FCMD_CGPB 
  40033e:	4a3b      	ldr	r2, [pc, #236]	; (40042c <board_init+0x180>)
	EFC->EEFC_FCR = (EEFC_FCR_FKEY_PASSWD | EEFC_FCR_FCMD_CGPB 
  400340:	6059      	str	r1, [r3, #4]
	EFC->EEFC_FCR = (EEFC_FCR_FKEY_PASSWD | EEFC_FCR_FCMD_CGPB 
  400342:	605a      	str	r2, [r3, #4]
  __ASM volatile ("dsb");
  400344:	f3bf 8f4f 	dsb	sy
  __ASM volatile ("isb");
  400348:	f3bf 8f6f 	isb	sy
	SCB->ITCMCR &= ~(uint32_t)(1UL);
  40034c:	f8d4 3290 	ldr.w	r3, [r4, #656]	; 0x290
  400350:	f023 0301 	bic.w	r3, r3, #1
  400354:	f8c4 3290 	str.w	r3, [r4, #656]	; 0x290
	SCB->DTCMCR &= ~(uint32_t)SCB_DTCMCR_EN_Msk;
  400358:	f8d4 3294 	ldr.w	r3, [r4, #660]	; 0x294
  40035c:	f023 0301 	bic.w	r3, r3, #1
  400360:	f8c4 3294 	str.w	r3, [r4, #660]	; 0x294
  __ASM volatile ("dsb");
  400364:	f3bf 8f4f 	dsb	sy
  __ASM volatile ("isb");
  400368:	f3bf 8f6f 	isb	sy
 *
 * \param ul_id Id (number) of the peripheral clock.
 */
static inline void sysclk_enable_peripheral_clock(uint32_t ul_id)
{
	pmc_enable_periph_clk(ul_id);
  40036c:	4c30      	ldr	r4, [pc, #192]	; (400430 <board_init+0x184>)
  40036e:	200a      	movs	r0, #10
  400370:	47a0      	blx	r4
  400372:	200b      	movs	r0, #11
  400374:	47a0      	blx	r4
  400376:	200c      	movs	r0, #12
  400378:	47a0      	blx	r4
  40037a:	2010      	movs	r0, #16
  40037c:	47a0      	blx	r4
  40037e:	2011      	movs	r0, #17
  400380:	47a0      	blx	r4
		enum ioport_direction dir)
{
	Pio *base = arch_ioport_pin_to_base(pin);

	if (dir == IOPORT_DIR_OUTPUT) {
		base->PIO_OER = arch_ioport_pin_to_mask(pin);
  400382:	f44f 7580 	mov.w	r5, #256	; 0x100
	} else if (dir == IOPORT_DIR_INPUT) {
		base->PIO_ODR = arch_ioport_pin_to_mask(pin);
  400386:	4a2b      	ldr	r2, [pc, #172]	; (400434 <board_init+0x188>)
  400388:	f44f 6300 	mov.w	r3, #2048	; 0x800
		base->PIO_OER = arch_ioport_pin_to_mask(pin);
  40038c:	492a      	ldr	r1, [pc, #168]	; (400438 <board_init+0x18c>)
		base->PIO_PUDR = mask;
  40038e:	f44f 1400 	mov.w	r4, #2097152	; 0x200000
			GPIO_PUSH_BUTTON_1_SENSE);

#ifdef CONF_BOARD_UART_CONSOLE
	/* Configure UART pins */
	ioport_set_pin_peripheral_mode(USART1_RXD_GPIO, USART1_RXD_FLAGS);
	MATRIX->CCFG_SYSIO |= CCFG_SYSIO_SYSIO4;
  400392:	4e2a      	ldr	r6, [pc, #168]	; (40043c <board_init+0x190>)
  400394:	2010      	movs	r0, #16
		base->PIO_OER = arch_ioport_pin_to_mask(pin);
  400396:	610d      	str	r5, [r1, #16]
		base->PIO_PUDR = mask;
  400398:	f5a1 7100 	sub.w	r1, r1, #512	; 0x200
	}

	base->PIO_OWER = arch_ioport_pin_to_mask(pin);
  40039c:	f8c1 52a0 	str.w	r5, [r1, #672]	; 0x2a0
		bool level)
{
	Pio *base = arch_ioport_pin_to_base(pin);

	if (level) {
		base->PIO_SODR = arch_ioport_pin_to_mask(pin);
  4003a0:	f8c1 5230 	str.w	r5, [r1, #560]	; 0x230
		base->PIO_ODR = arch_ioport_pin_to_mask(pin);
  4003a4:	6153      	str	r3, [r2, #20]
	base->PIO_OWER = arch_ioport_pin_to_mask(pin);
  4003a6:	f8c2 30a0 	str.w	r3, [r2, #160]	; 0xa0
		base->PIO_PUER = mask;
  4003aa:	6653      	str	r3, [r2, #100]	; 0x64
		base->PIO_PPDDR = mask;
  4003ac:	f8c2 3090 	str.w	r3, [r2, #144]	; 0x90
		base->PIO_MDDR = mask;
  4003b0:	6553      	str	r3, [r2, #84]	; 0x54
		base->PIO_IFER = mask;
  4003b2:	6213      	str	r3, [r2, #32]
		base->PIO_IFSCER = mask;
  4003b4:	f8c2 3084 	str.w	r3, [r2, #132]	; 0x84
		base->PIO_ABCDSR[0] &= ~mask;
  4003b8:	6f15      	ldr	r5, [r2, #112]	; 0x70
  4003ba:	f425 6500 	bic.w	r5, r5, #2048	; 0x800
  4003be:	6715      	str	r5, [r2, #112]	; 0x70
		base->PIO_ABCDSR[1] &= ~mask;
  4003c0:	6f55      	ldr	r5, [r2, #116]	; 0x74
  4003c2:	f425 6500 	bic.w	r5, r5, #2048	; 0x800
  4003c6:	6755      	str	r5, [r2, #116]	; 0x74
	case IOPORT_SENSE_FALLING:
		base->PIO_ESR = mask;
		base->PIO_FELLSR = mask;
		break;
	case IOPORT_SENSE_RISING:
		base->PIO_ESR = mask;
  4003c8:	f8c2 30c0 	str.w	r3, [r2, #192]	; 0xc0
		base->PIO_REHLSR = mask;
  4003cc:	f8c2 30d4 	str.w	r3, [r2, #212]	; 0xd4
		break;
	default:
		base->PIO_AIMDR = mask;
		return;
	}
	base->PIO_AIMER = mask;
  4003d0:	f8c2 30b0 	str.w	r3, [r2, #176]	; 0xb0
		base->PIO_PUDR = mask;
  4003d4:	6614      	str	r4, [r2, #96]	; 0x60
		base->PIO_PPDDR = mask;
  4003d6:	f8c2 4090 	str.w	r4, [r2, #144]	; 0x90
		base->PIO_MDDR = mask;
  4003da:	6554      	str	r4, [r2, #84]	; 0x54
		base->PIO_IFDR = mask;
  4003dc:	6254      	str	r4, [r2, #36]	; 0x24
		base->PIO_IFSCDR = mask;
  4003de:	f8c2 4080 	str.w	r4, [r2, #128]	; 0x80
		base->PIO_ABCDSR[0] &= ~mask;
  4003e2:	6f13      	ldr	r3, [r2, #112]	; 0x70
  4003e4:	f423 1300 	bic.w	r3, r3, #2097152	; 0x200000
  4003e8:	6713      	str	r3, [r2, #112]	; 0x70
		base->PIO_ABCDSR[1] &= ~mask;
  4003ea:	6f53      	ldr	r3, [r2, #116]	; 0x74
  4003ec:	f423 1300 	bic.w	r3, r3, #2097152	; 0x200000
  4003f0:	6753      	str	r3, [r2, #116]	; 0x74
	arch_ioport_port_to_base(port)->PIO_PDR = mask;
  4003f2:	6054      	str	r4, [r2, #4]
  4003f4:	f8d6 3114 	ldr.w	r3, [r6, #276]	; 0x114
  4003f8:	4303      	orrs	r3, r0
  4003fa:	f8c6 3114 	str.w	r3, [r6, #276]	; 0x114
		base->PIO_PUDR = mask;
  4003fe:	6608      	str	r0, [r1, #96]	; 0x60
		base->PIO_PPDDR = mask;
  400400:	f8c1 0090 	str.w	r0, [r1, #144]	; 0x90
		base->PIO_MDDR = mask;
  400404:	6548      	str	r0, [r1, #84]	; 0x54
		base->PIO_IFDR = mask;
  400406:	6248      	str	r0, [r1, #36]	; 0x24
		base->PIO_IFSCDR = mask;
  400408:	f8c1 0080 	str.w	r0, [r1, #128]	; 0x80
		base->PIO_ABCDSR[0] |= mask;
  40040c:	6f0b      	ldr	r3, [r1, #112]	; 0x70
  40040e:	4303      	orrs	r3, r0
  400410:	670b      	str	r3, [r1, #112]	; 0x70
		base->PIO_ABCDSR[1] |= mask;
  400412:	6f4b      	ldr	r3, [r1, #116]	; 0x74
  400414:	4303      	orrs	r3, r0
  400416:	674b      	str	r3, [r1, #116]	; 0x74
	arch_ioport_port_to_base(port)->PIO_PDR = mask;
  400418:	6048      	str	r0, [r1, #4]
  40041a:	bdf8      	pop	{r3, r4, r5, r6, r7, pc}
  40041c:	400e1850 	.word	0x400e1850
  400420:	e000ed00 	.word	0xe000ed00
  400424:	400e0c00 	.word	0x400e0c00
  400428:	5a00080c 	.word	0x5a00080c
  40042c:	5a00070c 	.word	0x5a00070c
  400430:	0040083d 	.word	0x0040083d
  400434:	400e0e00 	.word	0x400e0e00
  400438:	400e1200 	.word	0x400e1200
  40043c:	40088000 	.word	0x40088000

00400440 <pio_set>:
  400440:	6301      	str	r1, [r0, #48]	; 0x30
  400442:	4770      	bx	lr

00400444 <pio_clear>:
  400444:	6341      	str	r1, [r0, #52]	; 0x34
  400446:	4770      	bx	lr

00400448 <pio_set_peripheral>:

	/* Disable interrupts on the pin(s) */
	p_pio->PIO_IDR = ul_mask;

#if (SAM3S || SAM3N || SAM4S || SAM4E || SAM4N || SAM4C || SAMG || SAM4CP || SAM4CM || SAMV71 || SAMV70 || SAME70 || SAMS70)
	switch (ul_type) {
  400448:	f1b1 5fc0 	cmp.w	r1, #402653184	; 0x18000000
	p_pio->PIO_IDR = ul_mask;
  40044c:	6442      	str	r2, [r0, #68]	; 0x44
	switch (ul_type) {
  40044e:	d034      	beq.n	4004ba <pio_set_peripheral+0x72>
  400450:	d810      	bhi.n	400474 <pio_set_peripheral+0x2c>
  400452:	f1b1 6f00 	cmp.w	r1, #134217728	; 0x8000000
  400456:	d01c      	beq.n	400492 <pio_set_peripheral+0x4a>
  400458:	f1b1 5f80 	cmp.w	r1, #268435456	; 0x10000000
  40045c:	d12a      	bne.n	4004b4 <pio_set_peripheral+0x6c>

		ul_sr = p_pio->PIO_ABCDSR[1];
		p_pio->PIO_ABCDSR[1] &= (~ul_mask & ul_sr);
		break;
	case PIO_PERIPH_B:
		ul_sr = p_pio->PIO_ABCDSR[0];
  40045e:	6f03      	ldr	r3, [r0, #112]	; 0x70
		p_pio->PIO_ABCDSR[0] = (ul_mask | ul_sr);
  400460:	4313      	orrs	r3, r2
  400462:	6703      	str	r3, [r0, #112]	; 0x70

		ul_sr = p_pio->PIO_ABCDSR[1];
  400464:	6f43      	ldr	r3, [r0, #116]	; 0x74
		p_pio->PIO_ABCDSR[1] &= (~ul_mask & ul_sr);
  400466:	6f41      	ldr	r1, [r0, #116]	; 0x74
  400468:	400b      	ands	r3, r1
  40046a:	ea23 0302 	bic.w	r3, r3, r2
  40046e:	6743      	str	r3, [r0, #116]	; 0x74
#else
#error "Unsupported device"
#endif

	/* Remove the pins from under the control of PIO */
	p_pio->PIO_PDR = ul_mask;
  400470:	6042      	str	r2, [r0, #4]
  400472:	4770      	bx	lr
	switch (ul_type) {
  400474:	f1b1 5f20 	cmp.w	r1, #671088640	; 0x28000000
  400478:	d01b      	beq.n	4004b2 <pio_set_peripheral+0x6a>
  40047a:	d829      	bhi.n	4004d0 <pio_set_peripheral+0x88>
  40047c:	f1b1 5f00 	cmp.w	r1, #536870912	; 0x20000000
  400480:	d1f6      	bne.n	400470 <pio_set_peripheral+0x28>
		ul_sr = p_pio->PIO_ABCDSR[0];
  400482:	6f03      	ldr	r3, [r0, #112]	; 0x70
		p_pio->PIO_ABCDSR[0] = (ul_mask | ul_sr);
  400484:	4313      	orrs	r3, r2
  400486:	6703      	str	r3, [r0, #112]	; 0x70
		ul_sr = p_pio->PIO_ABCDSR[1];
  400488:	6f43      	ldr	r3, [r0, #116]	; 0x74
		p_pio->PIO_ABCDSR[1] = (ul_mask | ul_sr);
  40048a:	4313      	orrs	r3, r2
  40048c:	6743      	str	r3, [r0, #116]	; 0x74
	p_pio->PIO_PDR = ul_mask;
  40048e:	6042      	str	r2, [r0, #4]
  400490:	4770      	bx	lr
		ul_sr = p_pio->PIO_ABCDSR[0];
  400492:	6f01      	ldr	r1, [r0, #112]	; 0x70
		p_pio->PIO_ABCDSR[0] &= (~ul_mask & ul_sr);
  400494:	43d3      	mvns	r3, r2
{
  400496:	b410      	push	{r4}
		p_pio->PIO_ABCDSR[0] &= (~ul_mask & ul_sr);
  400498:	6f04      	ldr	r4, [r0, #112]	; 0x70
  40049a:	4021      	ands	r1, r4
  40049c:	461c      	mov	r4, r3
  40049e:	4019      	ands	r1, r3
  4004a0:	6701      	str	r1, [r0, #112]	; 0x70
		ul_sr = p_pio->PIO_ABCDSR[1];
  4004a2:	6f43      	ldr	r3, [r0, #116]	; 0x74
		p_pio->PIO_ABCDSR[1] &= (~ul_mask & ul_sr);
  4004a4:	6f41      	ldr	r1, [r0, #116]	; 0x74
  4004a6:	400b      	ands	r3, r1
  4004a8:	4023      	ands	r3, r4
}
  4004aa:	f85d 4b04 	ldr.w	r4, [sp], #4
		p_pio->PIO_ABCDSR[1] &= (~ul_mask & ul_sr);
  4004ae:	6743      	str	r3, [r0, #116]	; 0x74
	p_pio->PIO_PDR = ul_mask;
  4004b0:	6042      	str	r2, [r0, #4]
}
  4004b2:	4770      	bx	lr
	switch (ul_type) {
  4004b4:	2900      	cmp	r1, #0
  4004b6:	d1db      	bne.n	400470 <pio_set_peripheral+0x28>
  4004b8:	4770      	bx	lr
		ul_sr = p_pio->PIO_ABCDSR[0];
  4004ba:	6f03      	ldr	r3, [r0, #112]	; 0x70
		p_pio->PIO_ABCDSR[0] &= (~ul_mask & ul_sr);
  4004bc:	6f01      	ldr	r1, [r0, #112]	; 0x70
  4004be:	400b      	ands	r3, r1
  4004c0:	ea23 0302 	bic.w	r3, r3, r2
  4004c4:	6703      	str	r3, [r0, #112]	; 0x70
		ul_sr = p_pio->PIO_ABCDSR[1];
  4004c6:	6f43      	ldr	r3, [r0, #116]	; 0x74
		p_pio->PIO_ABCDSR[1] = (ul_mask | ul_sr);
  4004c8:	4313      	orrs	r3, r2
  4004ca:	6743      	str	r3, [r0, #116]	; 0x74
	p_pio->PIO_PDR = ul_mask;
  4004cc:	6042      	str	r2, [r0, #4]
  4004ce:	4770      	bx	lr
	switch (ul_type) {
  4004d0:	f1b1 5f40 	cmp.w	r1, #805306368	; 0x30000000
  4004d4:	d0ed      	beq.n	4004b2 <pio_set_peripheral+0x6a>
  4004d6:	f1b1 5f60 	cmp.w	r1, #939524096	; 0x38000000
  4004da:	d0ea      	beq.n	4004b2 <pio_set_peripheral+0x6a>
  4004dc:	e7c8      	b.n	400470 <pio_set_peripheral+0x28>
  4004de:	bf00      	nop

004004e0 <pio_set_output>:
 */
void pio_set_output(Pio *p_pio, const uint32_t ul_mask,
		const uint32_t ul_default_level,
		const uint32_t ul_multidrive_enable,
		const uint32_t ul_pull_up_enable)
{
  4004e0:	b410      	push	{r4}
  4004e2:	9c01      	ldr	r4, [sp, #4]
 * \param p_pio Pointer to a PIO instance.
 * \param ul_mask Interrupt sources bit map.
 */
void pio_disable_interrupt(Pio *p_pio, const uint32_t ul_mask)
{
	p_pio->PIO_IDR = ul_mask;
  4004e4:	6441      	str	r1, [r0, #68]	; 0x44
	if (ul_pull_up_enable) {
  4004e6:	b194      	cbz	r4, 40050e <pio_set_output+0x2e>
		p_pio->PIO_PUER = ul_mask;
  4004e8:	6641      	str	r1, [r0, #100]	; 0x64
	if (ul_multidrive_enable) {
  4004ea:	b13b      	cbz	r3, 4004fc <pio_set_output+0x1c>
		p_pio->PIO_MDER = ul_mask;
  4004ec:	6501      	str	r1, [r0, #80]	; 0x50
	if (ul_default_level) {
  4004ee:	b942      	cbnz	r2, 400502 <pio_set_output+0x22>
		p_pio->PIO_CODR = ul_mask;
  4004f0:	6341      	str	r1, [r0, #52]	; 0x34
}
  4004f2:	f85d 4b04 	ldr.w	r4, [sp], #4
	p_pio->PIO_OER = ul_mask;
  4004f6:	6101      	str	r1, [r0, #16]
	p_pio->PIO_PER = ul_mask;
  4004f8:	6001      	str	r1, [r0, #0]
}
  4004fa:	4770      	bx	lr
		p_pio->PIO_MDDR = ul_mask;
  4004fc:	6541      	str	r1, [r0, #84]	; 0x54
	if (ul_default_level) {
  4004fe:	2a00      	cmp	r2, #0
  400500:	d0f6      	beq.n	4004f0 <pio_set_output+0x10>
		p_pio->PIO_SODR = ul_mask;
  400502:	6301      	str	r1, [r0, #48]	; 0x30
}
  400504:	f85d 4b04 	ldr.w	r4, [sp], #4
	p_pio->PIO_OER = ul_mask;
  400508:	6101      	str	r1, [r0, #16]
	p_pio->PIO_PER = ul_mask;
  40050a:	6001      	str	r1, [r0, #0]
}
  40050c:	4770      	bx	lr
		p_pio->PIO_PUDR = ul_mask;
  40050e:	6601      	str	r1, [r0, #96]	; 0x60
  400510:	e7eb      	b.n	4004ea <pio_set_output+0xa>
  400512:	bf00      	nop

00400514 <pio_configure>:
	switch (ul_type) {
  400514:	f1b1 5f00 	cmp.w	r1, #536870912	; 0x20000000
{
  400518:	b570      	push	{r4, r5, r6, lr}
	switch (ul_type) {
  40051a:	d037      	beq.n	40058c <pio_configure+0x78>
  40051c:	d92d      	bls.n	40057a <pio_configure+0x66>
  40051e:	f1b1 5f40 	cmp.w	r1, #805306368	; 0x30000000
  400522:	d019      	beq.n	400558 <pio_configure+0x44>
  400524:	f1b1 5f60 	cmp.w	r1, #939524096	; 0x38000000
  400528:	d016      	beq.n	400558 <pio_configure+0x44>
  40052a:	f1b1 5f20 	cmp.w	r1, #671088640	; 0x28000000
  40052e:	d002      	beq.n	400536 <pio_configure+0x22>
		return 0;
  400530:	2300      	movs	r3, #0
}
  400532:	4618      	mov	r0, r3
  400534:	bd70      	pop	{r4, r5, r6, pc}
	if (ul_pull_up_enable) {
  400536:	07dd      	lsls	r5, r3, #31
	p_pio->PIO_IDR = ul_mask;
  400538:	6442      	str	r2, [r0, #68]	; 0x44
	if (ul_pull_up_enable) {
  40053a:	d436      	bmi.n	4005aa <pio_configure+0x96>
	if (ul_attribute & (PIO_DEGLITCH | PIO_DEBOUNCE)) {
  40053c:	f013 0f0a 	tst.w	r3, #10
		p_pio->PIO_PUDR = ul_mask;
  400540:	6602      	str	r2, [r0, #96]	; 0x60
	if (ul_attribute & (PIO_DEGLITCH | PIO_DEBOUNCE)) {
  400542:	d036      	beq.n	4005b2 <pio_configure+0x9e>
	if (ul_attribute & PIO_DEGLITCH) {
  400544:	079c      	lsls	r4, r3, #30
		p_pio->PIO_IFER = ul_mask;
  400546:	6202      	str	r2, [r0, #32]
	if (ul_attribute & PIO_DEGLITCH) {
  400548:	d536      	bpl.n	4005b8 <pio_configure+0xa4>
		p_pio->PIO_IFSCDR = ul_mask;
  40054a:	f8c0 2080 	str.w	r2, [r0, #128]	; 0x80
	return 1;
  40054e:	2301      	movs	r3, #1
	p_pio->PIO_ODR = ul_mask;
  400550:	6142      	str	r2, [r0, #20]
	p_pio->PIO_PER = ul_mask;
  400552:	6002      	str	r2, [r0, #0]
}
  400554:	4618      	mov	r0, r3
  400556:	bd70      	pop	{r4, r5, r6, pc}
				(ul_attribute & PIO_OPENDRAIN) ? 1 : 0,
  400558:	f003 0404 	and.w	r4, r3, #4
	if (ul_pull_up_enable) {
  40055c:	07db      	lsls	r3, r3, #31
	p_pio->PIO_IDR = ul_mask;
  40055e:	6442      	str	r2, [r0, #68]	; 0x44
	if (ul_pull_up_enable) {
  400560:	d51e      	bpl.n	4005a0 <pio_configure+0x8c>
		p_pio->PIO_PUER = ul_mask;
  400562:	6642      	str	r2, [r0, #100]	; 0x64
	if (ul_multidrive_enable) {
  400564:	b1fc      	cbz	r4, 4005a6 <pio_configure+0x92>
		p_pio->PIO_MDER = ul_mask;
  400566:	6502      	str	r2, [r0, #80]	; 0x50
	if (ul_default_level) {
  400568:	f1b1 5f60 	cmp.w	r1, #939524096	; 0x38000000
  40056c:	d02d      	beq.n	4005ca <pio_configure+0xb6>
		p_pio->PIO_CODR = ul_mask;
  40056e:	6342      	str	r2, [r0, #52]	; 0x34
	return 1;
  400570:	2301      	movs	r3, #1
	p_pio->PIO_OER = ul_mask;
  400572:	6102      	str	r2, [r0, #16]
	p_pio->PIO_PER = ul_mask;
  400574:	6002      	str	r2, [r0, #0]
}
  400576:	4618      	mov	r0, r3
  400578:	bd70      	pop	{r4, r5, r6, pc}
	switch (ul_type) {
  40057a:	f1b1 5f80 	cmp.w	r1, #268435456	; 0x10000000
  40057e:	d005      	beq.n	40058c <pio_configure+0x78>
  400580:	f1b1 5fc0 	cmp.w	r1, #402653184	; 0x18000000
  400584:	d002      	beq.n	40058c <pio_configure+0x78>
  400586:	f1b1 6f00 	cmp.w	r1, #134217728	; 0x8000000
  40058a:	d1d1      	bne.n	400530 <pio_configure+0x1c>
  40058c:	461e      	mov	r6, r3
		pio_set_peripheral(p_pio, ul_type, ul_mask);
  40058e:	4b10      	ldr	r3, [pc, #64]	; (4005d0 <pio_configure+0xbc>)
  400590:	4604      	mov	r4, r0
  400592:	4798      	blx	r3
	if (ul_pull_up_enable) {
  400594:	07f6      	lsls	r6, r6, #31
  400596:	d514      	bpl.n	4005c2 <pio_configure+0xae>
	return 1;
  400598:	2301      	movs	r3, #1
		p_pio->PIO_PUER = ul_mask;
  40059a:	6662      	str	r2, [r4, #100]	; 0x64
}
  40059c:	4618      	mov	r0, r3
  40059e:	bd70      	pop	{r4, r5, r6, pc}
		p_pio->PIO_PUDR = ul_mask;
  4005a0:	6602      	str	r2, [r0, #96]	; 0x60
	if (ul_multidrive_enable) {
  4005a2:	2c00      	cmp	r4, #0
  4005a4:	d1df      	bne.n	400566 <pio_configure+0x52>
		p_pio->PIO_MDDR = ul_mask;
  4005a6:	6542      	str	r2, [r0, #84]	; 0x54
  4005a8:	e7de      	b.n	400568 <pio_configure+0x54>
	if (ul_attribute & (PIO_DEGLITCH | PIO_DEBOUNCE)) {
  4005aa:	f013 0f0a 	tst.w	r3, #10
		p_pio->PIO_PUER = ul_mask;
  4005ae:	6642      	str	r2, [r0, #100]	; 0x64
	if (ul_attribute & (PIO_DEGLITCH | PIO_DEBOUNCE)) {
  4005b0:	d1c8      	bne.n	400544 <pio_configure+0x30>
	if (ul_attribute & PIO_DEGLITCH) {
  4005b2:	079c      	lsls	r4, r3, #30
		p_pio->PIO_IFDR = ul_mask;
  4005b4:	6242      	str	r2, [r0, #36]	; 0x24
	if (ul_attribute & PIO_DEGLITCH) {
  4005b6:	d4c8      	bmi.n	40054a <pio_configure+0x36>
		if (ul_attribute & PIO_DEBOUNCE) {
  4005b8:	0719      	lsls	r1, r3, #28
  4005ba:	d5c8      	bpl.n	40054e <pio_configure+0x3a>
			p_pio->PIO_IFSCER = ul_mask;
  4005bc:	f8c0 2084 	str.w	r2, [r0, #132]	; 0x84
  4005c0:	e7c5      	b.n	40054e <pio_configure+0x3a>
	return 1;
  4005c2:	2301      	movs	r3, #1
		p_pio->PIO_PUDR = ul_mask;
  4005c4:	6622      	str	r2, [r4, #96]	; 0x60
}
  4005c6:	4618      	mov	r0, r3
  4005c8:	bd70      	pop	{r4, r5, r6, pc}
		p_pio->PIO_SODR = ul_mask;
  4005ca:	6302      	str	r2, [r0, #48]	; 0x30
  4005cc:	e7d0      	b.n	400570 <pio_configure+0x5c>
  4005ce:	bf00      	nop
  4005d0:	00400449 	.word	0x00400449

004005d4 <pio_enable_interrupt>:
	p_pio->PIO_IER = ul_mask;
  4005d4:	6401      	str	r1, [r0, #64]	; 0x40
  4005d6:	4770      	bx	lr

004005d8 <pio_get_interrupt_status>:
 *
 * \return The interrupt status value.
 */
uint32_t pio_get_interrupt_status(const Pio *p_pio)
{
	return p_pio->PIO_ISR;
  4005d8:	6cc0      	ldr	r0, [r0, #76]	; 0x4c
}
  4005da:	4770      	bx	lr

004005dc <pio_get_interrupt_mask>:
 *
 * \return The interrupt mask value.
 */
uint32_t pio_get_interrupt_mask(const Pio *p_pio)
{
	return p_pio->PIO_IMR;
  4005dc:	6c80      	ldr	r0, [r0, #72]	; 0x48
}
  4005de:	4770      	bx	lr

004005e0 <pio_set_additional_interrupt_mode>:
 */
void pio_set_additional_interrupt_mode(Pio *p_pio,
		const uint32_t ul_mask, const uint32_t ul_attribute)
{
	/* Enables additional interrupt mode if needed */
	if (ul_attribute & PIO_IT_AIME) {
  4005e0:	06d3      	lsls	r3, r2, #27
  4005e2:	d50a      	bpl.n	4005fa <pio_set_additional_interrupt_mode+0x1a>
		/* Enables additional interrupt mode */
		p_pio->PIO_AIMER = ul_mask;

		/* Configures the Polarity of the event detection */
		/* (Rising/Falling Edge or High/Low Level) */
		if (ul_attribute & PIO_IT_RE_OR_HL) {
  4005e4:	0693      	lsls	r3, r2, #26
		p_pio->PIO_AIMER = ul_mask;
  4005e6:	f8c0 10b0 	str.w	r1, [r0, #176]	; 0xb0
		if (ul_attribute & PIO_IT_RE_OR_HL) {
  4005ea:	d409      	bmi.n	400600 <pio_set_additional_interrupt_mode+0x20>
			/* Falling Edge or Low Level */
			p_pio->PIO_FELLSR = ul_mask;
		}

		/* Configures the type of event detection (Edge or Level) */
		if (ul_attribute & PIO_IT_EDGE) {
  4005ec:	0653      	lsls	r3, r2, #25
			p_pio->PIO_FELLSR = ul_mask;
  4005ee:	f8c0 10d0 	str.w	r1, [r0, #208]	; 0xd0
		if (ul_attribute & PIO_IT_EDGE) {
  4005f2:	d509      	bpl.n	400608 <pio_set_additional_interrupt_mode+0x28>
			/* Edge select */
			p_pio->PIO_ESR = ul_mask;
  4005f4:	f8c0 10c0 	str.w	r1, [r0, #192]	; 0xc0
  4005f8:	4770      	bx	lr
			/* Level select */
			p_pio->PIO_LSR = ul_mask;
		}
	} else {
		/* Disable additional interrupt mode */
		p_pio->PIO_AIMDR = ul_mask;
  4005fa:	f8c0 10b4 	str.w	r1, [r0, #180]	; 0xb4
  4005fe:	4770      	bx	lr
		if (ul_attribute & PIO_IT_EDGE) {
  400600:	0653      	lsls	r3, r2, #25
			p_pio->PIO_REHLSR = ul_mask;
  400602:	f8c0 10d4 	str.w	r1, [r0, #212]	; 0xd4
		if (ul_attribute & PIO_IT_EDGE) {
  400606:	d4f5      	bmi.n	4005f4 <pio_set_additional_interrupt_mode+0x14>
			p_pio->PIO_LSR = ul_mask;
  400608:	f8c0 10c4 	str.w	r1, [r0, #196]	; 0xc4
  40060c:	4770      	bx	lr
  40060e:	bf00      	nop

00400610 <pio_configure_interrupt>:
  400610:	4b00      	ldr	r3, [pc, #0]	; (400614 <pio_configure_interrupt+0x4>)
  400612:	4718      	bx	r3
  400614:	004005e1 	.word	0x004005e1

00400618 <pio_handler_process>:
 *
 * \param p_pio PIO controller base address.
 * \param ul_id PIO controller ID.
 */
void pio_handler_process(Pio *p_pio, uint32_t ul_id)
{
  400618:	b5f8      	push	{r3, r4, r5, r6, r7, lr}
  40061a:	4604      	mov	r4, r0
	uint32_t status;
	uint32_t i;

	/* Read PIO controller status */
	status = pio_get_interrupt_status(p_pio);
  40061c:	4b0f      	ldr	r3, [pc, #60]	; (40065c <pio_handler_process+0x44>)
{
  40061e:	460f      	mov	r7, r1
	status = pio_get_interrupt_status(p_pio);
  400620:	4798      	blx	r3
  400622:	4606      	mov	r6, r0
	status &= pio_get_interrupt_mask(p_pio);
  400624:	4b0e      	ldr	r3, [pc, #56]	; (400660 <pio_handler_process+0x48>)
  400626:	4620      	mov	r0, r4
  400628:	4798      	blx	r3

	/* Check pending events */
	if (status != 0) {
  40062a:	4006      	ands	r6, r0
  40062c:	d015      	beq.n	40065a <pio_handler_process+0x42>
  40062e:	4c0d      	ldr	r4, [pc, #52]	; (400664 <pio_handler_process+0x4c>)
  400630:	2500      	movs	r5, #0
  400632:	e004      	b.n	40063e <pio_handler_process+0x26>
		/* Find triggering source */
		i = 0;
		while (status != 0) {
  400634:	2d07      	cmp	r5, #7
  400636:	f104 0410 	add.w	r4, r4, #16
  40063a:	d00e      	beq.n	40065a <pio_handler_process+0x42>
  40063c:	b16e      	cbz	r6, 40065a <pio_handler_process+0x42>
			/* Source is configured on the same controller */
			if (gs_interrupt_sources[i].id == ul_id) {
  40063e:	6823      	ldr	r3, [r4, #0]
					gs_interrupt_sources[i].handler(gs_interrupt_sources[i].id,
							gs_interrupt_sources[i].mask);
					status &= ~(gs_interrupt_sources[i].mask);
				}
			}
			i++;
  400640:	3501      	adds	r5, #1
			if (gs_interrupt_sources[i].id == ul_id) {
  400642:	42bb      	cmp	r3, r7
  400644:	d1f6      	bne.n	400634 <pio_handler_process+0x1c>
				if ((status & gs_interrupt_sources[i].mask) != 0) {
  400646:	6861      	ldr	r1, [r4, #4]
  400648:	4231      	tst	r1, r6
  40064a:	d0f3      	beq.n	400634 <pio_handler_process+0x1c>
					gs_interrupt_sources[i].handler(gs_interrupt_sources[i].id,
  40064c:	68e3      	ldr	r3, [r4, #12]
  40064e:	4638      	mov	r0, r7
  400650:	4798      	blx	r3
					status &= ~(gs_interrupt_sources[i].mask);
  400652:	6863      	ldr	r3, [r4, #4]
  400654:	ea26 0603 	bic.w	r6, r6, r3
  400658:	e7ec      	b.n	400634 <pio_handler_process+0x1c>
  40065a:	bdf8      	pop	{r3, r4, r5, r6, r7, pc}
  40065c:	004005d9 	.word	0x004005d9
  400660:	004005dd 	.word	0x004005dd
  400664:	204009dc 	.word	0x204009dc

00400668 <pio_handler_set>:
 *
 * \return 0 if successful, 1 if the maximum number of sources has been defined.
 */
uint32_t pio_handler_set(Pio *p_pio, uint32_t ul_id, uint32_t ul_mask,
		uint32_t ul_attr, void (*p_handler) (uint32_t, uint32_t))
{
  400668:	e92d 47f0 	stmdb	sp!, {r4, r5, r6, r7, r8, r9, sl, lr}
    uint8_t i;
	struct s_interrupt_source *pSource;

	if (gs_ul_nb_sources >= MAX_INTERRUPT_SOURCES)
  40066c:	f8df 9070 	ldr.w	r9, [pc, #112]	; 4006e0 <pio_handler_set+0x78>
  400670:	f8d9 c000 	ldr.w	ip, [r9]
  400674:	f1bc 0f06 	cmp.w	ip, #6
  400678:	d82b      	bhi.n	4006d2 <pio_handler_set+0x6a>
  40067a:	f04f 0800 	mov.w	r8, #0
  40067e:	4e16      	ldr	r6, [pc, #88]	; (4006d8 <pio_handler_set+0x70>)
  400680:	4644      	mov	r4, r8
  400682:	e002      	b.n	40068a <pio_handler_set+0x22>
		return 1;

    /* Check interrupt for this pin, if already defined, redefine it. */
	for (i = 0; i <= gs_ul_nb_sources; i++) {
  400684:	45a4      	cmp	ip, r4
  400686:	46a0      	mov	r8, r4
  400688:	d30c      	bcc.n	4006a4 <pio_handler_set+0x3c>
		pSource = &(gs_interrupt_sources[i]);
		if (pSource->id == ul_id && pSource->mask == ul_mask) {
  40068a:	0125      	lsls	r5, r4, #4
	for (i = 0; i <= gs_ul_nb_sources; i++) {
  40068c:	f104 0e01 	add.w	lr, r4, #1
		pSource = &(gs_interrupt_sources[i]);
  400690:	46a2      	mov	sl, r4
		if (pSource->id == ul_id && pSource->mask == ul_mask) {
  400692:	5977      	ldr	r7, [r6, r5]
	for (i = 0; i <= gs_ul_nb_sources; i++) {
  400694:	fa5f f48e 	uxtb.w	r4, lr
		if (pSource->id == ul_id && pSource->mask == ul_mask) {
  400698:	4435      	add	r5, r6
  40069a:	428f      	cmp	r7, r1
  40069c:	d1f2      	bne.n	400684 <pio_handler_set+0x1c>
  40069e:	686d      	ldr	r5, [r5, #4]
  4006a0:	4295      	cmp	r5, r2
  4006a2:	d1ef      	bne.n	400684 <pio_handler_set+0x1c>
			break;
		}
	}

	/* Define new source */
	pSource->id = ul_id;
  4006a4:	ea4f 1a0a 	mov.w	sl, sl, lsl #4
	pSource->mask = ul_mask;
	pSource->attr = ul_attr;
	pSource->handler = p_handler;
	if (i == gs_ul_nb_sources + 1) {
  4006a8:	f10c 0c01 	add.w	ip, ip, #1
	pSource->id = ul_id;
  4006ac:	eb06 040a 	add.w	r4, r6, sl
  4006b0:	f846 100a 	str.w	r1, [r6, sl]
	pSource->handler = p_handler;
  4006b4:	9908      	ldr	r1, [sp, #32]
	if (i == gs_ul_nb_sources + 1) {
  4006b6:	45c4      	cmp	ip, r8
	pSource->mask = ul_mask;
  4006b8:	6062      	str	r2, [r4, #4]
	pSource->attr = ul_attr;
  4006ba:	60a3      	str	r3, [r4, #8]
	pSource->handler = p_handler;
  4006bc:	60e1      	str	r1, [r4, #12]
  4006be:	4611      	mov	r1, r2
		gs_ul_nb_sources++;
	}

	/* Configure interrupt mode */
	pio_configure_interrupt(p_pio, ul_mask, ul_attr);
  4006c0:	461a      	mov	r2, r3
  4006c2:	4b06      	ldr	r3, [pc, #24]	; (4006dc <pio_handler_set+0x74>)
		gs_ul_nb_sources++;
  4006c4:	bf08      	it	eq
  4006c6:	f8c9 8000 	streq.w	r8, [r9]
	pio_configure_interrupt(p_pio, ul_mask, ul_attr);
  4006ca:	4798      	blx	r3

	return 0;
  4006cc:	2000      	movs	r0, #0
  4006ce:	e8bd 87f0 	ldmia.w	sp!, {r4, r5, r6, r7, r8, r9, sl, pc}
		return 1;
  4006d2:	2001      	movs	r0, #1
}
  4006d4:	e8bd 87f0 	ldmia.w	sp!, {r4, r5, r6, r7, r8, r9, sl, pc}
  4006d8:	204009dc 	.word	0x204009dc
  4006dc:	00400611 	.word	0x00400611
  4006e0:	20400a4c 	.word	0x20400a4c

004006e4 <PIOA_Handler>:
 * \brief Parallel IO Controller A interrupt handler.
 * Redefined PIOA interrupt handler for NVIC interrupt table.
 */
void PIOA_Handler(void)
{
	pio_handler_process(PIOA, ID_PIOA);
  4006e4:	210a      	movs	r1, #10
  4006e6:	4801      	ldr	r0, [pc, #4]	; (4006ec <PIOA_Handler+0x8>)
  4006e8:	4b01      	ldr	r3, [pc, #4]	; (4006f0 <PIOA_Handler+0xc>)
  4006ea:	4718      	bx	r3
  4006ec:	400e0e00 	.word	0x400e0e00
  4006f0:	00400619 	.word	0x00400619

004006f4 <PIOB_Handler>:
 * \brief Parallel IO Controller B interrupt handler
 * Redefined PIOB interrupt handler for NVIC interrupt table.
 */
void PIOB_Handler(void)
{
    pio_handler_process(PIOB, ID_PIOB);
  4006f4:	210b      	movs	r1, #11
  4006f6:	4801      	ldr	r0, [pc, #4]	; (4006fc <PIOB_Handler+0x8>)
  4006f8:	4b01      	ldr	r3, [pc, #4]	; (400700 <PIOB_Handler+0xc>)
  4006fa:	4718      	bx	r3
  4006fc:	400e1000 	.word	0x400e1000
  400700:	00400619 	.word	0x00400619

00400704 <PIOC_Handler>:
 * \brief Parallel IO Controller C interrupt handler.
 * Redefined PIOC interrupt handler for NVIC interrupt table.
 */
void PIOC_Handler(void)
{
	pio_handler_process(PIOC, ID_PIOC);
  400704:	210c      	movs	r1, #12
  400706:	4801      	ldr	r0, [pc, #4]	; (40070c <PIOC_Handler+0x8>)
  400708:	4b01      	ldr	r3, [pc, #4]	; (400710 <PIOC_Handler+0xc>)
  40070a:	4718      	bx	r3
  40070c:	400e1200 	.word	0x400e1200
  400710:	00400619 	.word	0x00400619

00400714 <PIOD_Handler>:
 * \brief Parallel IO Controller D interrupt handler.
 * Redefined PIOD interrupt handler for NVIC interrupt table.
 */
void PIOD_Handler(void)
{
	pio_handler_process(PIOD, ID_PIOD);
  400714:	2110      	movs	r1, #16
  400716:	4801      	ldr	r0, [pc, #4]	; (40071c <PIOD_Handler+0x8>)
  400718:	4b01      	ldr	r3, [pc, #4]	; (400720 <PIOD_Handler+0xc>)
  40071a:	4718      	bx	r3
  40071c:	400e1400 	.word	0x400e1400
  400720:	00400619 	.word	0x00400619

00400724 <PIOE_Handler>:
 * \brief Parallel IO Controller E interrupt handler.
 * Redefined PIOE interrupt handler for NVIC interrupt table.
 */
void PIOE_Handler(void)
{
	pio_handler_process(PIOE, ID_PIOE);
  400724:	2111      	movs	r1, #17
  400726:	4801      	ldr	r0, [pc, #4]	; (40072c <PIOE_Handler+0x8>)
  400728:	4b01      	ldr	r3, [pc, #4]	; (400730 <PIOE_Handler+0xc>)
  40072a:	4718      	bx	r3
  40072c:	400e1600 	.word	0x400e1600
  400730:	00400619 	.word	0x00400619

00400734 <pmc_mck_set_division>:
 * \brief Set the division of the MCK.
 *
 * \param ul_div Division value.
 */
void pmc_mck_set_division(uint32_t ul_div)
{
  400734:	3802      	subs	r0, #2
  400736:	2802      	cmp	r0, #2
  400738:	d80d      	bhi.n	400756 <pmc_mck_set_division+0x22>
  40073a:	4b08      	ldr	r3, [pc, #32]	; (40075c <pmc_mck_set_division+0x28>)
  40073c:	f853 0020 	ldr.w	r0, [r3, r0, lsl #2]
		default:
			ul_div = PMC_MCKR_MDIV_EQ_PCK;
			break;
	}
	PMC->PMC_MCKR =
			(PMC->PMC_MCKR & (~PMC_MCKR_MDIV_Msk)) | ul_div;
  400740:	4907      	ldr	r1, [pc, #28]	; (400760 <pmc_mck_set_division+0x2c>)
  400742:	6b0b      	ldr	r3, [r1, #48]	; 0x30
	while (!(PMC->PMC_SR & PMC_SR_MCKRDY));
  400744:	460a      	mov	r2, r1
			(PMC->PMC_MCKR & (~PMC_MCKR_MDIV_Msk)) | ul_div;
  400746:	f423 7340 	bic.w	r3, r3, #768	; 0x300
  40074a:	4303      	orrs	r3, r0
	PMC->PMC_MCKR =
  40074c:	630b      	str	r3, [r1, #48]	; 0x30
	while (!(PMC->PMC_SR & PMC_SR_MCKRDY));
  40074e:	6e93      	ldr	r3, [r2, #104]	; 0x68
  400750:	071b      	lsls	r3, r3, #28
  400752:	d5fc      	bpl.n	40074e <pmc_mck_set_division+0x1a>
}
  400754:	4770      	bx	lr
{
  400756:	2000      	movs	r0, #0
  400758:	e7f2      	b.n	400740 <pmc_mck_set_division+0xc>
  40075a:	bf00      	nop
  40075c:	00405dd8 	.word	0x00405dd8
  400760:	400e0600 	.word	0x400e0600

00400764 <pmc_switch_mck_to_pllack>:
 */
uint32_t pmc_switch_mck_to_pllack(uint32_t ul_pres)
{
	uint32_t ul_timeout;

	PMC->PMC_MCKR = (PMC->PMC_MCKR & (~PMC_MCKR_PRES_Msk)) | ul_pres;
  400764:	4913      	ldr	r1, [pc, #76]	; (4007b4 <pmc_switch_mck_to_pllack+0x50>)
  400766:	6b0b      	ldr	r3, [r1, #48]	; 0x30
  400768:	f023 0370 	bic.w	r3, r3, #112	; 0x70
  40076c:	4318      	orrs	r0, r3
  40076e:	6308      	str	r0, [r1, #48]	; 0x30
	for (ul_timeout = PMC_TIMEOUT; !(PMC->PMC_SR & PMC_SR_MCKRDY);
  400770:	6e8b      	ldr	r3, [r1, #104]	; 0x68
  400772:	0718      	lsls	r0, r3, #28
  400774:	d407      	bmi.n	400786 <pmc_switch_mck_to_pllack+0x22>
  400776:	f44f 5380 	mov.w	r3, #4096	; 0x1000
  40077a:	e001      	b.n	400780 <pmc_switch_mck_to_pllack+0x1c>
			--ul_timeout) {
		if (ul_timeout == 0) {
  40077c:	3b01      	subs	r3, #1
  40077e:	d016      	beq.n	4007ae <pmc_switch_mck_to_pllack+0x4a>
	for (ul_timeout = PMC_TIMEOUT; !(PMC->PMC_SR & PMC_SR_MCKRDY);
  400780:	6e8a      	ldr	r2, [r1, #104]	; 0x68
  400782:	0712      	lsls	r2, r2, #28
  400784:	d5fa      	bpl.n	40077c <pmc_switch_mck_to_pllack+0x18>
			return 1;
		}
	}

	PMC->PMC_MCKR = (PMC->PMC_MCKR & (~PMC_MCKR_CSS_Msk)) |
  400786:	490b      	ldr	r1, [pc, #44]	; (4007b4 <pmc_switch_mck_to_pllack+0x50>)
  400788:	6b0b      	ldr	r3, [r1, #48]	; 0x30
  40078a:	f023 0303 	bic.w	r3, r3, #3
  40078e:	f043 0302 	orr.w	r3, r3, #2
  400792:	630b      	str	r3, [r1, #48]	; 0x30
			PMC_MCKR_CSS_PLLA_CLK;

	for (ul_timeout = PMC_TIMEOUT; !(PMC->PMC_SR & PMC_SR_MCKRDY);
  400794:	6e8b      	ldr	r3, [r1, #104]	; 0x68
  400796:	0718      	lsls	r0, r3, #28
  400798:	d407      	bmi.n	4007aa <pmc_switch_mck_to_pllack+0x46>
  40079a:	f44f 5380 	mov.w	r3, #4096	; 0x1000
  40079e:	e001      	b.n	4007a4 <pmc_switch_mck_to_pllack+0x40>
			--ul_timeout) {
		if (ul_timeout == 0) {
  4007a0:	3b01      	subs	r3, #1
  4007a2:	d004      	beq.n	4007ae <pmc_switch_mck_to_pllack+0x4a>
	for (ul_timeout = PMC_TIMEOUT; !(PMC->PMC_SR & PMC_SR_MCKRDY);
  4007a4:	6e8a      	ldr	r2, [r1, #104]	; 0x68
  4007a6:	0712      	lsls	r2, r2, #28
  4007a8:	d5fa      	bpl.n	4007a0 <pmc_switch_mck_to_pllack+0x3c>
			return 1;
		}
	}

	return 0;
  4007aa:	2000      	movs	r0, #0
}
  4007ac:	4770      	bx	lr
			return 1;
  4007ae:	2001      	movs	r0, #1
  4007b0:	4770      	bx	lr
  4007b2:	bf00      	nop
  4007b4:	400e0600 	.word	0x400e0600

004007b8 <pmc_switch_mainck_to_xtal>:
 */
void pmc_switch_mainck_to_xtal(uint32_t ul_bypass,
		uint32_t ul_xtal_startup_time)
{
	/* Enable Main Xtal oscillator */
	if (ul_bypass) {
  4007b8:	b9a0      	cbnz	r0, 4007e4 <pmc_switch_mainck_to_xtal+0x2c>
		PMC->CKGR_MOR = (PMC->CKGR_MOR & ~CKGR_MOR_MOSCXTEN) |
				CKGR_MOR_KEY_PASSWD | CKGR_MOR_MOSCXTBY |
				CKGR_MOR_MOSCSEL;
	} else {
		PMC->CKGR_MOR = (PMC->CKGR_MOR & ~CKGR_MOR_MOSCXTBY) |
  4007ba:	4b0e      	ldr	r3, [pc, #56]	; (4007f4 <pmc_switch_mainck_to_xtal+0x3c>)
				CKGR_MOR_KEY_PASSWD | CKGR_MOR_MOSCXTEN |
				CKGR_MOR_MOSCXTST(ul_xtal_startup_time);
  4007bc:	0209      	lsls	r1, r1, #8
				CKGR_MOR_KEY_PASSWD | CKGR_MOR_MOSCXTEN |
  4007be:	480e      	ldr	r0, [pc, #56]	; (4007f8 <pmc_switch_mainck_to_xtal+0x40>)
				CKGR_MOR_MOSCXTST(ul_xtal_startup_time);
  4007c0:	b289      	uxth	r1, r1
		/* Wait the Xtal to stabilize */
		while (!(PMC->PMC_SR & PMC_SR_MOSCXTS));
  4007c2:	461a      	mov	r2, r3
{
  4007c4:	b430      	push	{r4, r5}
				CKGR_MOR_KEY_PASSWD | CKGR_MOR_MOSCXTEN |
  4007c6:	4c0d      	ldr	r4, [pc, #52]	; (4007fc <pmc_switch_mainck_to_xtal+0x44>)
		PMC->CKGR_MOR = (PMC->CKGR_MOR & ~CKGR_MOR_MOSCXTBY) |
  4007c8:	6a1d      	ldr	r5, [r3, #32]
				CKGR_MOR_KEY_PASSWD | CKGR_MOR_MOSCXTEN |
  4007ca:	402c      	ands	r4, r5
  4007cc:	4320      	orrs	r0, r4
  4007ce:	4301      	orrs	r1, r0
		PMC->CKGR_MOR = (PMC->CKGR_MOR & ~CKGR_MOR_MOSCXTBY) |
  4007d0:	6219      	str	r1, [r3, #32]
		while (!(PMC->PMC_SR & PMC_SR_MOSCXTS));
  4007d2:	6e93      	ldr	r3, [r2, #104]	; 0x68
  4007d4:	07db      	lsls	r3, r3, #31
  4007d6:	d5fc      	bpl.n	4007d2 <pmc_switch_mainck_to_xtal+0x1a>

		PMC->CKGR_MOR |= CKGR_MOR_KEY_PASSWD | CKGR_MOR_MOSCSEL;
  4007d8:	6a11      	ldr	r1, [r2, #32]
  4007da:	4b09      	ldr	r3, [pc, #36]	; (400800 <pmc_switch_mainck_to_xtal+0x48>)
  4007dc:	430b      	orrs	r3, r1
  4007de:	6213      	str	r3, [r2, #32]
	}
}
  4007e0:	bc30      	pop	{r4, r5}
  4007e2:	4770      	bx	lr
		PMC->CKGR_MOR = (PMC->CKGR_MOR & ~CKGR_MOR_MOSCXTEN) |
  4007e4:	4903      	ldr	r1, [pc, #12]	; (4007f4 <pmc_switch_mainck_to_xtal+0x3c>)
				CKGR_MOR_KEY_PASSWD | CKGR_MOR_MOSCXTBY |
  4007e6:	4a07      	ldr	r2, [pc, #28]	; (400804 <pmc_switch_mainck_to_xtal+0x4c>)
		PMC->CKGR_MOR = (PMC->CKGR_MOR & ~CKGR_MOR_MOSCXTEN) |
  4007e8:	6a08      	ldr	r0, [r1, #32]
				CKGR_MOR_KEY_PASSWD | CKGR_MOR_MOSCXTBY |
  4007ea:	4b07      	ldr	r3, [pc, #28]	; (400808 <pmc_switch_mainck_to_xtal+0x50>)
  4007ec:	4002      	ands	r2, r0
  4007ee:	4313      	orrs	r3, r2
		PMC->CKGR_MOR = (PMC->CKGR_MOR & ~CKGR_MOR_MOSCXTEN) |
  4007f0:	620b      	str	r3, [r1, #32]
  4007f2:	4770      	bx	lr
  4007f4:	400e0600 	.word	0x400e0600
  4007f8:	00370001 	.word	0x00370001
  4007fc:	ffc8fffc 	.word	0xffc8fffc
  400800:	01370000 	.word	0x01370000
  400804:	fec8fffc 	.word	0xfec8fffc
  400808:	01370002 	.word	0x01370002

0040080c <pmc_osc_is_ready_mainck>:
 * \retval 1 Xtal is ready.
 * \retval 0 Xtal is not ready.
 */
uint32_t pmc_osc_is_ready_mainck(void)
{
	return PMC->PMC_SR & PMC_SR_MOSCSELS;
  40080c:	4b02      	ldr	r3, [pc, #8]	; (400818 <pmc_osc_is_ready_mainck+0xc>)
  40080e:	6e98      	ldr	r0, [r3, #104]	; 0x68
}
  400810:	f400 3080 	and.w	r0, r0, #65536	; 0x10000
  400814:	4770      	bx	lr
  400816:	bf00      	nop
  400818:	400e0600 	.word	0x400e0600

0040081c <pmc_disable_pllack>:
void pmc_disable_pllack(void)
{
#if (SAM4C || SAM4CM || SAM4CP || SAMG)
	PMC->CKGR_PLLAR = CKGR_PLLAR_MULA(0);
#else
	PMC->CKGR_PLLAR = CKGR_PLLAR_ONE | CKGR_PLLAR_MULA(0);
  40081c:	4b02      	ldr	r3, [pc, #8]	; (400828 <pmc_disable_pllack+0xc>)
  40081e:	f04f 5200 	mov.w	r2, #536870912	; 0x20000000
  400822:	629a      	str	r2, [r3, #40]	; 0x28
  400824:	4770      	bx	lr
  400826:	bf00      	nop
  400828:	400e0600 	.word	0x400e0600

0040082c <pmc_is_locked_pllack>:
 * \retval 0 Not locked.
 * \retval 1 Locked.
 */
uint32_t pmc_is_locked_pllack(void)
{
	return (PMC->PMC_SR & PMC_SR_LOCKA);
  40082c:	4b02      	ldr	r3, [pc, #8]	; (400838 <pmc_is_locked_pllack+0xc>)
  40082e:	6e98      	ldr	r0, [r3, #104]	; 0x68
}
  400830:	f000 0002 	and.w	r0, r0, #2
  400834:	4770      	bx	lr
  400836:	bf00      	nop
  400838:	400e0600 	.word	0x400e0600

0040083c <pmc_enable_periph_clk>:
 * \retval 0 Success.
 * \retval 1 Invalid parameter.
 */
uint32_t pmc_enable_periph_clk(uint32_t ul_id)
{
	if (ul_id > MAX_PERIPH_ID) {
  40083c:	283f      	cmp	r0, #63	; 0x3f
  40083e:	d81a      	bhi.n	400876 <pmc_enable_periph_clk+0x3a>
		return 1;
	}

	if (ul_id < 32) {
  400840:	281f      	cmp	r0, #31
  400842:	d80a      	bhi.n	40085a <pmc_enable_periph_clk+0x1e>
		if ((PMC->PMC_PCSR0 & (1u << ul_id)) != (1u << ul_id)) {
  400844:	2301      	movs	r3, #1
  400846:	4a0e      	ldr	r2, [pc, #56]	; (400880 <pmc_enable_periph_clk+0x44>)
  400848:	fa03 f000 	lsl.w	r0, r3, r0
  40084c:	6991      	ldr	r1, [r2, #24]
  40084e:	ea30 0301 	bics.w	r3, r0, r1
  400852:	d012      	beq.n	40087a <pmc_enable_periph_clk+0x3e>
			PMC->PMC_PCER0 = 1 << ul_id;
  400854:	6110      	str	r0, [r2, #16]
			PMC->PMC_PCER1 = 1 << ul_id;
		}
#endif
	}

	return 0;
  400856:	2000      	movs	r0, #0
  400858:	4770      	bx	lr
		if ((PMC->PMC_PCSR1 & (1u << ul_id)) != (1u << ul_id)) {
  40085a:	2301      	movs	r3, #1
		ul_id -= 32;
  40085c:	3820      	subs	r0, #32
		if ((PMC->PMC_PCSR1 & (1u << ul_id)) != (1u << ul_id)) {
  40085e:	4a08      	ldr	r2, [pc, #32]	; (400880 <pmc_enable_periph_clk+0x44>)
  400860:	fa03 f000 	lsl.w	r0, r3, r0
  400864:	f8d2 3108 	ldr.w	r3, [r2, #264]	; 0x108
  400868:	ea30 0303 	bics.w	r3, r0, r3
  40086c:	d005      	beq.n	40087a <pmc_enable_periph_clk+0x3e>
			PMC->PMC_PCER1 = 1 << ul_id;
  40086e:	f8c2 0100 	str.w	r0, [r2, #256]	; 0x100
	return 0;
  400872:	2000      	movs	r0, #0
  400874:	4770      	bx	lr
		return 1;
  400876:	2001      	movs	r0, #1
  400878:	4770      	bx	lr
	return 0;
  40087a:	2000      	movs	r0, #0
}
  40087c:	4770      	bx	lr
  40087e:	bf00      	nop
  400880:	400e0600 	.word	0x400e0600

00400884 <uart_write>:
 * \retval 1 I/O Failure, UART is not ready.
 */
uint32_t uart_write(Uart *p_uart, const uint8_t uc_data)
{
	/* Check if the transmitter is ready */
	if (!(p_uart->UART_SR & UART_SR_TXRDY))
  400884:	6943      	ldr	r3, [r0, #20]
  400886:	079b      	lsls	r3, r3, #30
  400888:	d502      	bpl.n	400890 <uart_write+0xc>
		return 1;

	/* Send character */
	p_uart->UART_THR = uc_data;
  40088a:	61c1      	str	r1, [r0, #28]
	return 0;
  40088c:	2000      	movs	r0, #0
  40088e:	4770      	bx	lr
		return 1;
  400890:	2001      	movs	r0, #1
}
  400892:	4770      	bx	lr

00400894 <uart_read>:
 * \retval 1 I/O Failure, UART is not ready.
 */
uint32_t uart_read(Uart *p_uart, uint8_t *puc_data)
{
	/* Check if the receiver is ready */
	if ((p_uart->UART_SR & UART_SR_RXRDY) == 0)
  400894:	6943      	ldr	r3, [r0, #20]
  400896:	07db      	lsls	r3, r3, #31
  400898:	d503      	bpl.n	4008a2 <uart_read+0xe>
		return 1;

	/* Read character */
	*puc_data = (uint8_t) p_uart->UART_RHR;
  40089a:	6983      	ldr	r3, [r0, #24]
	return 0;
  40089c:	2000      	movs	r0, #0
	*puc_data = (uint8_t) p_uart->UART_RHR;
  40089e:	700b      	strb	r3, [r1, #0]
	return 0;
  4008a0:	4770      	bx	lr
		return 1;
  4008a2:	2001      	movs	r0, #1
}
  4008a4:	4770      	bx	lr
  4008a6:	bf00      	nop

004008a8 <usart_set_async_baudrate>:
	uint32_t cd_fp;
	uint32_t cd;
	uint32_t fp;

	/* Calculate the receiver sampling divide of baudrate clock. */
	if (ul_mck >= HIGH_FRQ_SAMPLE_DIV * baudrate) {
  4008a8:	010b      	lsls	r3, r1, #4
  4008aa:	4293      	cmp	r3, r2
{
  4008ac:	b410      	push	{r4}
	if (ul_mck >= HIGH_FRQ_SAMPLE_DIV * baudrate) {
  4008ae:	d814      	bhi.n	4008da <usart_set_async_baudrate+0x32>
	} else {
		over = LOW_FRQ_SAMPLE_DIV;
	}

	/* Calculate clock divider according to the fraction calculated formula. */
	cd_fp = (8 * ul_mck + (over * baudrate) / 2) / (over * baudrate);
  4008b0:	0859      	lsrs	r1, r3, #1
	cd = cd_fp >> 3;
	fp = cd_fp & 0x07;
	if (cd < MIN_CD_VALUE || cd > MAX_CD_VALUE) {
  4008b2:	f64f 74fe 	movw	r4, #65534	; 0xfffe
	cd_fp = (8 * ul_mck + (over * baudrate) / 2) / (over * baudrate);
  4008b6:	eb01 02c2 	add.w	r2, r1, r2, lsl #3
  4008ba:	fbb2 f2f3 	udiv	r2, r2, r3
	cd = cd_fp >> 3;
  4008be:	08d3      	lsrs	r3, r2, #3
	if (cd < MIN_CD_VALUE || cd > MAX_CD_VALUE) {
  4008c0:	1e59      	subs	r1, r3, #1
  4008c2:	42a1      	cmp	r1, r4
  4008c4:	d815      	bhi.n	4008f2 <usart_set_async_baudrate+0x4a>
	if (over == 8) {
		p_usart->US_MR |= US_MR_OVER;
	}

	/* Configure the baudrate generate register. */
	p_usart->US_BRGR = (cd << US_BRGR_CD_Pos) | (fp << US_BRGR_FP_Pos);
  4008c6:	0412      	lsls	r2, r2, #16

	return 0;
  4008c8:	2100      	movs	r1, #0
	p_usart->US_BRGR = (cd << US_BRGR_CD_Pos) | (fp << US_BRGR_FP_Pos);
  4008ca:	f402 22e0 	and.w	r2, r2, #458752	; 0x70000
  4008ce:	431a      	orrs	r2, r3
  4008d0:	6202      	str	r2, [r0, #32]
}
  4008d2:	4608      	mov	r0, r1
  4008d4:	f85d 4b04 	ldr.w	r4, [sp], #4
  4008d8:	4770      	bx	lr
	cd_fp = (8 * ul_mck + (over * baudrate) / 2) / (over * baudrate);
  4008da:	00c9      	lsls	r1, r1, #3
	if (cd < MIN_CD_VALUE || cd > MAX_CD_VALUE) {
  4008dc:	f64f 74fe 	movw	r4, #65534	; 0xfffe
	cd_fp = (8 * ul_mck + (over * baudrate) / 2) / (over * baudrate);
  4008e0:	084b      	lsrs	r3, r1, #1
  4008e2:	eb03 02c2 	add.w	r2, r3, r2, lsl #3
  4008e6:	fbb2 f2f1 	udiv	r2, r2, r1
	cd = cd_fp >> 3;
  4008ea:	08d3      	lsrs	r3, r2, #3
	if (cd < MIN_CD_VALUE || cd > MAX_CD_VALUE) {
  4008ec:	1e59      	subs	r1, r3, #1
  4008ee:	42a1      	cmp	r1, r4
  4008f0:	d904      	bls.n	4008fc <usart_set_async_baudrate+0x54>
		return 1;
  4008f2:	2101      	movs	r1, #1
}
  4008f4:	f85d 4b04 	ldr.w	r4, [sp], #4
  4008f8:	4608      	mov	r0, r1
  4008fa:	4770      	bx	lr
		p_usart->US_MR |= US_MR_OVER;
  4008fc:	6841      	ldr	r1, [r0, #4]
  4008fe:	f441 2100 	orr.w	r1, r1, #524288	; 0x80000
  400902:	6041      	str	r1, [r0, #4]
  400904:	e7df      	b.n	4008c6 <usart_set_async_baudrate+0x1e>
  400906:	bf00      	nop

00400908 <usart_init_rs232>:
 * \retval 0 on success.
 * \retval 1 on failure.
 */
uint32_t usart_init_rs232(Usart *p_usart,
		const sam_usart_opt_t *p_usart_opt, uint32_t ul_mck)
{
  400908:	b5f8      	push	{r3, r4, r5, r6, r7, lr}
	p_usart->US_MR = 0;
  40090a:	2400      	movs	r4, #0
 *
 * \param p_usart Pointer to a USART instance.
 */
void usart_disable_writeprotect(Usart *p_usart)
{
	p_usart->US_WPMR = US_WPMR_WPKEY_PASSWD;
  40090c:	4d14      	ldr	r5, [pc, #80]	; (400960 <usart_init_rs232+0x58>)
	p_usart->US_CR = US_CR_RSTSTA;
  40090e:	f44f 7680 	mov.w	r6, #256	; 0x100
	p_usart->US_CR = US_CR_RSTTX | US_CR_TXDIS;
  400912:	f04f 0e88 	mov.w	lr, #136	; 0x88
	p_usart->US_CR = US_CR_RSTRX | US_CR_RXDIS;
  400916:	2724      	movs	r7, #36	; 0x24
	p_usart->US_WPMR = US_WPMR_WPKEY_PASSWD;
  400918:	f8c0 50e4 	str.w	r5, [r0, #228]	; 0xe4
	p_usart->US_MR = 0;
  40091c:	6044      	str	r4, [r0, #4]
	p_usart->US_CR = US_CR_RTSDIS;
  40091e:	f44f 2500 	mov.w	r5, #524288	; 0x80000
	p_usart->US_RTOR = 0;
  400922:	6244      	str	r4, [r0, #36]	; 0x24
	p_usart->US_TTGR = 0;
  400924:	6284      	str	r4, [r0, #40]	; 0x28
	p_usart->US_CR = US_CR_RSTTX | US_CR_TXDIS;
  400926:	f8c0 e000 	str.w	lr, [r0]
	p_usart->US_CR = US_CR_RSTRX | US_CR_RXDIS;
  40092a:	6007      	str	r7, [r0, #0]
	p_usart->US_CR = US_CR_RSTSTA;
  40092c:	6006      	str	r6, [r0, #0]
	ul_reg_val = 0;
  40092e:	4e0d      	ldr	r6, [pc, #52]	; (400964 <usart_init_rs232+0x5c>)
	p_usart->US_CR = US_CR_RTSDIS;
  400930:	6005      	str	r5, [r0, #0]
	ul_reg_val = 0;
  400932:	6034      	str	r4, [r6, #0]
	if (!p_usart_opt || usart_set_async_baudrate(p_usart,
  400934:	b189      	cbz	r1, 40095a <usart_init_rs232+0x52>
  400936:	460d      	mov	r5, r1
  400938:	4b0b      	ldr	r3, [pc, #44]	; (400968 <usart_init_rs232+0x60>)
  40093a:	6809      	ldr	r1, [r1, #0]
  40093c:	4604      	mov	r4, r0
  40093e:	4798      	blx	r3
  400940:	b958      	cbnz	r0, 40095a <usart_init_rs232+0x52>
	ul_reg_val |= p_usart_opt->char_length | p_usart_opt->parity_type |
  400942:	686a      	ldr	r2, [r5, #4]
  400944:	68ab      	ldr	r3, [r5, #8]
  400946:	692f      	ldr	r7, [r5, #16]
  400948:	4313      	orrs	r3, r2
			p_usart_opt->channel_mode | p_usart_opt->stop_bits;
  40094a:	68e9      	ldr	r1, [r5, #12]
	p_usart->US_MR |= ul_reg_val;
  40094c:	6862      	ldr	r2, [r4, #4]
	ul_reg_val |= p_usart_opt->char_length | p_usart_opt->parity_type |
  40094e:	433b      	orrs	r3, r7
			p_usart_opt->channel_mode | p_usart_opt->stop_bits;
  400950:	430b      	orrs	r3, r1
	p_usart->US_MR |= ul_reg_val;
  400952:	431a      	orrs	r2, r3
	ul_reg_val |= p_usart_opt->char_length | p_usart_opt->parity_type |
  400954:	6033      	str	r3, [r6, #0]
	p_usart->US_MR |= ul_reg_val;
  400956:	6062      	str	r2, [r4, #4]
}
  400958:	bdf8      	pop	{r3, r4, r5, r6, r7, pc}
		return 1;
  40095a:	2001      	movs	r0, #1
  40095c:	bdf8      	pop	{r3, r4, r5, r6, r7, pc}
  40095e:	bf00      	nop
  400960:	55534100 	.word	0x55534100
  400964:	20400a50 	.word	0x20400a50
  400968:	004008a9 	.word	0x004008a9

0040096c <usart_enable_tx>:
	p_usart->US_CR = US_CR_TXEN;
  40096c:	2340      	movs	r3, #64	; 0x40
  40096e:	6003      	str	r3, [r0, #0]
  400970:	4770      	bx	lr
  400972:	bf00      	nop

00400974 <usart_enable_rx>:
	p_usart->US_CR = US_CR_RXEN;
  400974:	2310      	movs	r3, #16
  400976:	6003      	str	r3, [r0, #0]
  400978:	4770      	bx	lr
  40097a:	bf00      	nop

0040097c <usart_write>:
	if (!(p_usart->US_CSR & US_CSR_TXRDY)) {
  40097c:	6942      	ldr	r2, [r0, #20]
{
  40097e:	4603      	mov	r3, r0
	if (!(p_usart->US_CSR & US_CSR_TXRDY)) {
  400980:	0792      	lsls	r2, r2, #30
  400982:	d504      	bpl.n	40098e <usart_write+0x12>
	p_usart->US_THR = US_THR_TXCHR(c);
  400984:	f3c1 0108 	ubfx	r1, r1, #0, #9
	return 0;
  400988:	2000      	movs	r0, #0
	p_usart->US_THR = US_THR_TXCHR(c);
  40098a:	61d9      	str	r1, [r3, #28]
	return 0;
  40098c:	4770      	bx	lr
		return 1;
  40098e:	2001      	movs	r0, #1
}
  400990:	4770      	bx	lr
  400992:	bf00      	nop

00400994 <usart_read>:
	if (!(p_usart->US_CSR & US_CSR_RXRDY)) {
  400994:	6943      	ldr	r3, [r0, #20]
  400996:	07db      	lsls	r3, r3, #31
  400998:	d505      	bpl.n	4009a6 <usart_read+0x12>
	*c = p_usart->US_RHR & US_RHR_RXCHR_Msk;
  40099a:	6983      	ldr	r3, [r0, #24]
	return 0;
  40099c:	2000      	movs	r0, #0
	*c = p_usart->US_RHR & US_RHR_RXCHR_Msk;
  40099e:	f3c3 0308 	ubfx	r3, r3, #0, #9
  4009a2:	600b      	str	r3, [r1, #0]
	return 0;
  4009a4:	4770      	bx	lr
		return 1;
  4009a6:	2001      	movs	r0, #1
}
  4009a8:	4770      	bx	lr
  4009aa:	bf00      	nop

004009ac <Dummy_Handler>:

/**
 * \brief Default interrupt handler for unused IRQs.
 */
void Dummy_Handler(void)
{
  4009ac:	e7fe      	b.n	4009ac <Dummy_Handler>
  4009ae:	bf00      	nop

004009b0 <Reset_Handler>:
        if (pSrc != pDest) {
  4009b0:	4924      	ldr	r1, [pc, #144]	; (400a44 <Reset_Handler+0x94>)
  4009b2:	4a25      	ldr	r2, [pc, #148]	; (400a48 <Reset_Handler+0x98>)
  4009b4:	4291      	cmp	r1, r2
{
  4009b6:	b500      	push	{lr}
  4009b8:	b083      	sub	sp, #12
        if (pSrc != pDest) {
  4009ba:	d00e      	beq.n	4009da <Reset_Handler+0x2a>
                for (; pDest < &_erelocate;) {
  4009bc:	4823      	ldr	r0, [pc, #140]	; (400a4c <Reset_Handler+0x9c>)
  4009be:	4282      	cmp	r2, r0
  4009c0:	d20b      	bcs.n	4009da <Reset_Handler+0x2a>
  4009c2:	43d3      	mvns	r3, r2
  4009c4:	4403      	add	r3, r0
  4009c6:	f023 0303 	bic.w	r3, r3, #3
  4009ca:	3304      	adds	r3, #4
  4009cc:	4413      	add	r3, r2
                        *pDest++ = *pSrc++;
  4009ce:	f851 0b04 	ldr.w	r0, [r1], #4
  4009d2:	f842 0b04 	str.w	r0, [r2], #4
                for (; pDest < &_erelocate;) {
  4009d6:	429a      	cmp	r2, r3
  4009d8:	d1f9      	bne.n	4009ce <Reset_Handler+0x1e>
        for (pDest = &_szero; pDest < &_ezero;) {
  4009da:	4a1d      	ldr	r2, [pc, #116]	; (400a50 <Reset_Handler+0xa0>)
  4009dc:	491d      	ldr	r1, [pc, #116]	; (400a54 <Reset_Handler+0xa4>)
  4009de:	428a      	cmp	r2, r1
  4009e0:	d20a      	bcs.n	4009f8 <Reset_Handler+0x48>
  4009e2:	43d3      	mvns	r3, r2
                *pDest++ = 0;
  4009e4:	2000      	movs	r0, #0
  4009e6:	440b      	add	r3, r1
  4009e8:	f023 0303 	bic.w	r3, r3, #3
  4009ec:	3304      	adds	r3, #4
  4009ee:	4413      	add	r3, r2
  4009f0:	f842 0b04 	str.w	r0, [r2], #4
        for (pDest = &_szero; pDest < &_ezero;) {
  4009f4:	429a      	cmp	r2, r3
  4009f6:	d1fb      	bne.n	4009f0 <Reset_Handler+0x40>
        SCB->VTOR = ((uint32_t) pSrc & SCB_VTOR_TBLOFF_Msk);
  4009f8:	4b17      	ldr	r3, [pc, #92]	; (400a58 <Reset_Handler+0xa8>)
  4009fa:	4a18      	ldr	r2, [pc, #96]	; (400a5c <Reset_Handler+0xac>)
  4009fc:	f023 037f 	bic.w	r3, r3, #127	; 0x7f
  400a00:	6093      	str	r3, [r2, #8]
 */
__attribute__( ( always_inline ) ) __STATIC_INLINE uint32_t __get_PRIMASK(void)
{
  uint32_t result;

  __ASM volatile ("MRS %0, primask" : "=r" (result) );
  400a02:	f3ef 8310 	mrs	r3, PRIMASK
static volatile uint32_t cpu_irq_critical_section_counter;
static volatile bool     cpu_irq_prev_interrupt_state;

static inline irqflags_t cpu_irq_save(void)
{
	volatile irqflags_t flags = cpu_irq_is_enabled();
  400a06:	fab3 f383 	clz	r3, r3
  400a0a:	095b      	lsrs	r3, r3, #5
  400a0c:	9301      	str	r3, [sp, #4]
  __ASM volatile ("cpsid i" : : : "memory");
  400a0e:	b672      	cpsid	i
  __ASM volatile ("dmb");
  400a10:	f3bf 8f5f 	dmb	sy
	cpu_irq_disable();
  400a14:	4a12      	ldr	r2, [pc, #72]	; (400a60 <Reset_Handler+0xb0>)
  400a16:	2300      	movs	r3, #0
 */
__always_inline static void fpu_enable(void)
{
	irqflags_t flags;
	flags = cpu_irq_save();
	REG_CPACR |=  (0xFu << 20);
  400a18:	4912      	ldr	r1, [pc, #72]	; (400a64 <Reset_Handler+0xb4>)
  400a1a:	7013      	strb	r3, [r2, #0]
	return flags;
  400a1c:	9801      	ldr	r0, [sp, #4]
  400a1e:	680b      	ldr	r3, [r1, #0]
  400a20:	f443 0370 	orr.w	r3, r3, #15728640	; 0xf00000
  400a24:	600b      	str	r3, [r1, #0]
  __ASM volatile ("dsb");
  400a26:	f3bf 8f4f 	dsb	sy
  __ASM volatile ("isb");
  400a2a:	f3bf 8f6f 	isb	sy
	return (flags);
}

static inline void cpu_irq_restore(irqflags_t flags)
{
	if (cpu_irq_is_enabled_flags(flags))
  400a2e:	b120      	cbz	r0, 400a3a <Reset_Handler+0x8a>
		cpu_irq_enable();
  400a30:	2301      	movs	r3, #1
  400a32:	7013      	strb	r3, [r2, #0]
  __ASM volatile ("dmb");
  400a34:	f3bf 8f5f 	dmb	sy
  __ASM volatile ("cpsie i" : : : "memory");
  400a38:	b662      	cpsie	i
        __libc_init_array();
  400a3a:	4b0b      	ldr	r3, [pc, #44]	; (400a68 <Reset_Handler+0xb8>)
  400a3c:	4798      	blx	r3
        main();
  400a3e:	4b0b      	ldr	r3, [pc, #44]	; (400a6c <Reset_Handler+0xbc>)
  400a40:	4798      	blx	r3
  400a42:	e7fe      	b.n	400a42 <Reset_Handler+0x92>
  400a44:	00406074 	.word	0x00406074
  400a48:	20400000 	.word	0x20400000
  400a4c:	204009c0 	.word	0x204009c0
  400a50:	204009c0 	.word	0x204009c0
  400a54:	20400c50 	.word	0x20400c50
  400a58:	00400000 	.word	0x00400000
  400a5c:	e000ed00 	.word	0xe000ed00
  400a60:	2040000a 	.word	0x2040000a
  400a64:	e000ed88 	.word	0xe000ed88
  400a68:	00402e2d 	.word	0x00402e2d
  400a6c:	00402cc9 	.word	0x00402cc9

00400a70 <SystemCoreClockUpdate>:
}

void SystemCoreClockUpdate( void )
{
  /* Determine clock frequency according to clock register values */
  switch (PMC->PMC_MCKR & (uint32_t) PMC_MCKR_CSS_Msk)
  400a70:	4a31      	ldr	r2, [pc, #196]	; (400b38 <SystemCoreClockUpdate+0xc8>)
  400a72:	6b13      	ldr	r3, [r2, #48]	; 0x30
  400a74:	f003 0303 	and.w	r3, r3, #3
  400a78:	2b01      	cmp	r3, #1
  400a7a:	d03d      	beq.n	400af8 <SystemCoreClockUpdate+0x88>
  400a7c:	d326      	bcc.n	400acc <SystemCoreClockUpdate+0x5c>
  400a7e:	2b02      	cmp	r3, #2
  400a80:	d00d      	beq.n	400a9e <SystemCoreClockUpdate+0x2e>
  400a82:	492e      	ldr	r1, [pc, #184]	; (400b3c <SystemCoreClockUpdate+0xcc>)
  400a84:	680b      	ldr	r3, [r1, #0]

    default:
    break;
  }

  if ( (PMC->PMC_MCKR & PMC_MCKR_PRES_Msk) == PMC_MCKR_PRES_CLK_3 )
  400a86:	482c      	ldr	r0, [pc, #176]	; (400b38 <SystemCoreClockUpdate+0xc8>)
  400a88:	6b02      	ldr	r2, [r0, #48]	; 0x30
  400a8a:	f002 0270 	and.w	r2, r2, #112	; 0x70
  400a8e:	2a70      	cmp	r2, #112	; 0x70
  400a90:	d02c      	beq.n	400aec <SystemCoreClockUpdate+0x7c>
  {
    SystemCoreClock /= 3U;
  }
  else
  {
    SystemCoreClock >>= ((PMC->PMC_MCKR & PMC_MCKR_PRES_Msk) >> PMC_MCKR_PRES_Pos);
  400a92:	6b02      	ldr	r2, [r0, #48]	; 0x30
  400a94:	f3c2 1202 	ubfx	r2, r2, #4, #3
  400a98:	40d3      	lsrs	r3, r2
  400a9a:	600b      	str	r3, [r1, #0]
  400a9c:	4770      	bx	lr
      if ( PMC->CKGR_MOR & CKGR_MOR_MOSCSEL )
  400a9e:	6a13      	ldr	r3, [r2, #32]
        SystemCoreClock = CHIP_FREQ_XTAL_12M ;
  400aa0:	4926      	ldr	r1, [pc, #152]	; (400b3c <SystemCoreClockUpdate+0xcc>)
      if ( PMC->CKGR_MOR & CKGR_MOR_MOSCSEL )
  400aa2:	01db      	lsls	r3, r3, #7
  400aa4:	d538      	bpl.n	400b18 <SystemCoreClockUpdate+0xa8>
            SystemCoreClock *= 3U;
  400aa6:	4b26      	ldr	r3, [pc, #152]	; (400b40 <SystemCoreClockUpdate+0xd0>)
  400aa8:	600b      	str	r3, [r1, #0]
      if ( (uint32_t) (PMC->PMC_MCKR & (uint32_t) PMC_MCKR_CSS_Msk) == PMC_MCKR_CSS_PLLA_CLK )
  400aaa:	4823      	ldr	r0, [pc, #140]	; (400b38 <SystemCoreClockUpdate+0xc8>)
  400aac:	6b02      	ldr	r2, [r0, #48]	; 0x30
  400aae:	f002 0203 	and.w	r2, r2, #3
  400ab2:	2a02      	cmp	r2, #2
  400ab4:	d1e7      	bne.n	400a86 <SystemCoreClockUpdate+0x16>
        SystemCoreClock *= ((((PMC->CKGR_PLLAR) & CKGR_PLLAR_MULA_Msk) >> CKGR_PLLAR_MULA_Pos) + 1U);
  400ab6:	6a82      	ldr	r2, [r0, #40]	; 0x28
        SystemCoreClock /= ((((PMC->CKGR_PLLAR) & CKGR_PLLAR_DIVA_Msk) >> CKGR_PLLAR_DIVA_Pos));
  400ab8:	6a80      	ldr	r0, [r0, #40]	; 0x28
        SystemCoreClock *= ((((PMC->CKGR_PLLAR) & CKGR_PLLAR_MULA_Msk) >> CKGR_PLLAR_MULA_Pos) + 1U);
  400aba:	f3c2 420a 	ubfx	r2, r2, #16, #11
        SystemCoreClock /= ((((PMC->CKGR_PLLAR) & CKGR_PLLAR_DIVA_Msk) >> CKGR_PLLAR_DIVA_Pos));
  400abe:	b2c0      	uxtb	r0, r0
        SystemCoreClock *= ((((PMC->CKGR_PLLAR) & CKGR_PLLAR_MULA_Msk) >> CKGR_PLLAR_MULA_Pos) + 1U);
  400ac0:	fb02 3303 	mla	r3, r2, r3, r3
        SystemCoreClock /= ((((PMC->CKGR_PLLAR) & CKGR_PLLAR_DIVA_Msk) >> CKGR_PLLAR_DIVA_Pos));
  400ac4:	fbb3 f3f0 	udiv	r3, r3, r0
  400ac8:	600b      	str	r3, [r1, #0]
  400aca:	e7dc      	b.n	400a86 <SystemCoreClockUpdate+0x16>
      if ( SUPC->SUPC_SR & SUPC_SR_OSCSEL )
  400acc:	4b1d      	ldr	r3, [pc, #116]	; (400b44 <SystemCoreClockUpdate+0xd4>)
        SystemCoreClock = CHIP_FREQ_XTAL_32K;
  400ace:	491b      	ldr	r1, [pc, #108]	; (400b3c <SystemCoreClockUpdate+0xcc>)
      if ( SUPC->SUPC_SR & SUPC_SR_OSCSEL )
  400ad0:	695b      	ldr	r3, [r3, #20]
  if ( (PMC->PMC_MCKR & PMC_MCKR_PRES_Msk) == PMC_MCKR_PRES_CLK_3 )
  400ad2:	4819      	ldr	r0, [pc, #100]	; (400b38 <SystemCoreClockUpdate+0xc8>)
      if ( SUPC->SUPC_SR & SUPC_SR_OSCSEL )
  400ad4:	061b      	lsls	r3, r3, #24
        SystemCoreClock = CHIP_FREQ_XTAL_32K;
  400ad6:	bf4c      	ite	mi
  400ad8:	f44f 4300 	movmi.w	r3, #32768	; 0x8000
        SystemCoreClock = CHIP_FREQ_SLCK_RC;
  400adc:	f44f 43fa 	movpl.w	r3, #32000	; 0x7d00
  400ae0:	600b      	str	r3, [r1, #0]
  if ( (PMC->PMC_MCKR & PMC_MCKR_PRES_Msk) == PMC_MCKR_PRES_CLK_3 )
  400ae2:	6b02      	ldr	r2, [r0, #48]	; 0x30
  400ae4:	f002 0270 	and.w	r2, r2, #112	; 0x70
  400ae8:	2a70      	cmp	r2, #112	; 0x70
  400aea:	d1d2      	bne.n	400a92 <SystemCoreClockUpdate+0x22>
    SystemCoreClock /= 3U;
  400aec:	4a16      	ldr	r2, [pc, #88]	; (400b48 <SystemCoreClockUpdate+0xd8>)
  400aee:	fba2 2303 	umull	r2, r3, r2, r3
  400af2:	085b      	lsrs	r3, r3, #1
  400af4:	600b      	str	r3, [r1, #0]
  400af6:	4770      	bx	lr
      if ( PMC->CKGR_MOR & CKGR_MOR_MOSCSEL )
  400af8:	6a13      	ldr	r3, [r2, #32]
        SystemCoreClock = CHIP_FREQ_XTAL_12M;
  400afa:	4910      	ldr	r1, [pc, #64]	; (400b3c <SystemCoreClockUpdate+0xcc>)
      if ( PMC->CKGR_MOR & CKGR_MOR_MOSCSEL )
  400afc:	01d8      	lsls	r0, r3, #7
  400afe:	d408      	bmi.n	400b12 <SystemCoreClockUpdate+0xa2>
        SystemCoreClock = CHIP_FREQ_MAINCK_RC_4MHZ;
  400b00:	4b12      	ldr	r3, [pc, #72]	; (400b4c <SystemCoreClockUpdate+0xdc>)
  400b02:	600b      	str	r3, [r1, #0]
        switch ( PMC->CKGR_MOR & CKGR_MOR_MOSCRCF_Msk )
  400b04:	6a12      	ldr	r2, [r2, #32]
  400b06:	f002 0270 	and.w	r2, r2, #112	; 0x70
  400b0a:	2a10      	cmp	r2, #16
  400b0c:	d011      	beq.n	400b32 <SystemCoreClockUpdate+0xc2>
  400b0e:	2a20      	cmp	r2, #32
  400b10:	d1b9      	bne.n	400a86 <SystemCoreClockUpdate+0x16>
            SystemCoreClock *= 3U;
  400b12:	4b0b      	ldr	r3, [pc, #44]	; (400b40 <SystemCoreClockUpdate+0xd0>)
  400b14:	600b      	str	r3, [r1, #0]
          break;
  400b16:	e7b6      	b.n	400a86 <SystemCoreClockUpdate+0x16>
        SystemCoreClock = CHIP_FREQ_MAINCK_RC_4MHZ;
  400b18:	4b0c      	ldr	r3, [pc, #48]	; (400b4c <SystemCoreClockUpdate+0xdc>)
  400b1a:	600b      	str	r3, [r1, #0]
        switch ( PMC->CKGR_MOR & CKGR_MOR_MOSCRCF_Msk )
  400b1c:	6a12      	ldr	r2, [r2, #32]
  400b1e:	f002 0270 	and.w	r2, r2, #112	; 0x70
  400b22:	2a10      	cmp	r2, #16
  400b24:	d002      	beq.n	400b2c <SystemCoreClockUpdate+0xbc>
  400b26:	2a20      	cmp	r2, #32
  400b28:	d0bd      	beq.n	400aa6 <SystemCoreClockUpdate+0x36>
  400b2a:	e7be      	b.n	400aaa <SystemCoreClockUpdate+0x3a>
            SystemCoreClock *= 2U;
  400b2c:	4b08      	ldr	r3, [pc, #32]	; (400b50 <SystemCoreClockUpdate+0xe0>)
  400b2e:	600b      	str	r3, [r1, #0]
          break;
  400b30:	e7bb      	b.n	400aaa <SystemCoreClockUpdate+0x3a>
            SystemCoreClock *= 2U;
  400b32:	4b07      	ldr	r3, [pc, #28]	; (400b50 <SystemCoreClockUpdate+0xe0>)
  400b34:	600b      	str	r3, [r1, #0]
          break;
  400b36:	e7a6      	b.n	400a86 <SystemCoreClockUpdate+0x16>
  400b38:	400e0600 	.word	0x400e0600
  400b3c:	2040000c 	.word	0x2040000c
  400b40:	00b71b00 	.word	0x00b71b00
  400b44:	400e1810 	.word	0x400e1810
  400b48:	aaaaaaab 	.word	0xaaaaaaab
  400b4c:	003d0900 	.word	0x003d0900
  400b50:	007a1200 	.word	0x007a1200

00400b54 <system_init_flash>:
 * Initialize flash.
 */
void system_init_flash( uint32_t ul_clk )
{
  /* Set FWS for embedded Flash access according to operating frequency */
  if ( ul_clk < CHIP_FREQ_FWS_0 )
  400b54:	4b16      	ldr	r3, [pc, #88]	; (400bb0 <system_init_flash+0x5c>)
  400b56:	4298      	cmp	r0, r3
  400b58:	d917      	bls.n	400b8a <system_init_flash+0x36>
  {
    EFC->EEFC_FMR = EEFC_FMR_FWS(0)|EEFC_FMR_CLOE;
  }
  else
  {
    if (ul_clk < CHIP_FREQ_FWS_1)
  400b5a:	4b16      	ldr	r3, [pc, #88]	; (400bb4 <system_init_flash+0x60>)
  400b5c:	4298      	cmp	r0, r3
  400b5e:	d910      	bls.n	400b82 <system_init_flash+0x2e>
    {
      EFC->EEFC_FMR = EEFC_FMR_FWS(1)|EEFC_FMR_CLOE;
    }
    else
    {
      if (ul_clk < CHIP_FREQ_FWS_2)
  400b60:	4b15      	ldr	r3, [pc, #84]	; (400bb8 <system_init_flash+0x64>)
  400b62:	4298      	cmp	r0, r3
  400b64:	d91a      	bls.n	400b9c <system_init_flash+0x48>
      {
        EFC->EEFC_FMR = EEFC_FMR_FWS(2)|EEFC_FMR_CLOE;
      }
      else
      {
        if ( ul_clk < CHIP_FREQ_FWS_3 )
  400b66:	4b15      	ldr	r3, [pc, #84]	; (400bbc <system_init_flash+0x68>)
  400b68:	4298      	cmp	r0, r3
  400b6a:	d913      	bls.n	400b94 <system_init_flash+0x40>
        {
          EFC->EEFC_FMR = EEFC_FMR_FWS(3)|EEFC_FMR_CLOE;
        }
        else
        {
          if ( ul_clk < CHIP_FREQ_FWS_4 )
  400b6c:	4b14      	ldr	r3, [pc, #80]	; (400bc0 <system_init_flash+0x6c>)
  400b6e:	4298      	cmp	r0, r3
  400b70:	d918      	bls.n	400ba4 <system_init_flash+0x50>
          {
            EFC->EEFC_FMR = EEFC_FMR_FWS(4)|EEFC_FMR_CLOE;
          }
          else
          {
            if ( ul_clk < CHIP_FREQ_FWS_5 )
  400b72:	4b14      	ldr	r3, [pc, #80]	; (400bc4 <system_init_flash+0x70>)
  400b74:	4298      	cmp	r0, r3
            {
              EFC->EEFC_FMR = EEFC_FMR_FWS(5)|EEFC_FMR_CLOE;
  400b76:	4b14      	ldr	r3, [pc, #80]	; (400bc8 <system_init_flash+0x74>)
  400b78:	bf94      	ite	ls
  400b7a:	4a14      	ldrls	r2, [pc, #80]	; (400bcc <system_init_flash+0x78>)
            }
            else
            {
              EFC->EEFC_FMR = EEFC_FMR_FWS(6)|EEFC_FMR_CLOE;
  400b7c:	4a14      	ldrhi	r2, [pc, #80]	; (400bd0 <system_init_flash+0x7c>)
  400b7e:	601a      	str	r2, [r3, #0]
  400b80:	4770      	bx	lr
      EFC->EEFC_FMR = EEFC_FMR_FWS(1)|EEFC_FMR_CLOE;
  400b82:	4b11      	ldr	r3, [pc, #68]	; (400bc8 <system_init_flash+0x74>)
  400b84:	4a13      	ldr	r2, [pc, #76]	; (400bd4 <system_init_flash+0x80>)
  400b86:	601a      	str	r2, [r3, #0]
  400b88:	4770      	bx	lr
    EFC->EEFC_FMR = EEFC_FMR_FWS(0)|EEFC_FMR_CLOE;
  400b8a:	4b0f      	ldr	r3, [pc, #60]	; (400bc8 <system_init_flash+0x74>)
  400b8c:	f04f 6280 	mov.w	r2, #67108864	; 0x4000000
  400b90:	601a      	str	r2, [r3, #0]
  400b92:	4770      	bx	lr
          EFC->EEFC_FMR = EEFC_FMR_FWS(3)|EEFC_FMR_CLOE;
  400b94:	4b0c      	ldr	r3, [pc, #48]	; (400bc8 <system_init_flash+0x74>)
  400b96:	4a10      	ldr	r2, [pc, #64]	; (400bd8 <system_init_flash+0x84>)
  400b98:	601a      	str	r2, [r3, #0]
  400b9a:	4770      	bx	lr
        EFC->EEFC_FMR = EEFC_FMR_FWS(2)|EEFC_FMR_CLOE;
  400b9c:	4b0a      	ldr	r3, [pc, #40]	; (400bc8 <system_init_flash+0x74>)
  400b9e:	4a0f      	ldr	r2, [pc, #60]	; (400bdc <system_init_flash+0x88>)
  400ba0:	601a      	str	r2, [r3, #0]
  400ba2:	4770      	bx	lr
            EFC->EEFC_FMR = EEFC_FMR_FWS(4)|EEFC_FMR_CLOE;
  400ba4:	4b08      	ldr	r3, [pc, #32]	; (400bc8 <system_init_flash+0x74>)
  400ba6:	f04f 2204 	mov.w	r2, #67109888	; 0x4000400
  400baa:	601a      	str	r2, [r3, #0]
  400bac:	4770      	bx	lr
  400bae:	bf00      	nop
  400bb0:	015ef3bf 	.word	0x015ef3bf
  400bb4:	02bde77f 	.word	0x02bde77f
  400bb8:	041cdb3f 	.word	0x041cdb3f
  400bbc:	057bceff 	.word	0x057bceff
  400bc0:	06dac2bf 	.word	0x06dac2bf
  400bc4:	0839b67f 	.word	0x0839b67f
  400bc8:	400e0c00 	.word	0x400e0c00
  400bcc:	04000500 	.word	0x04000500
  400bd0:	04000600 	.word	0x04000600
  400bd4:	04000100 	.word	0x04000100
  400bd8:	04000300 	.word	0x04000300
  400bdc:	04000200 	.word	0x04000200

00400be0 <_sbrk>:
{
	static unsigned char *heap = NULL;
	unsigned char *prev_heap;
	int ramend = (int)&__ram_end__;

	if (heap == NULL) {
  400be0:	4a0d      	ldr	r2, [pc, #52]	; (400c18 <_sbrk+0x38>)
	int ramend = (int)&__ram_end__;
  400be2:	490e      	ldr	r1, [pc, #56]	; (400c1c <_sbrk+0x3c>)
	if (heap == NULL) {
  400be4:	6813      	ldr	r3, [r2, #0]
  400be6:	b143      	cbz	r3, 400bfa <_sbrk+0x1a>
		heap = (unsigned char *)&_end;
	}
	prev_heap = heap;

	if (((int)prev_heap + incr) > ramend) {
  400be8:	4418      	add	r0, r3
  400bea:	4281      	cmp	r1, r0
  400bec:	db02      	blt.n	400bf4 <_sbrk+0x14>
		return (caddr_t) -1;	
	}

	heap += incr;
  400bee:	6010      	str	r0, [r2, #0]

	return (caddr_t) prev_heap;
  400bf0:	4618      	mov	r0, r3
  400bf2:	4770      	bx	lr
		return (caddr_t) -1;	
  400bf4:	f04f 30ff 	mov.w	r0, #4294967295
  400bf8:	4770      	bx	lr
{
  400bfa:	b410      	push	{r4}
		heap = (unsigned char *)&_end;
  400bfc:	4c08      	ldr	r4, [pc, #32]	; (400c20 <_sbrk+0x40>)
	if (((int)prev_heap + incr) > ramend) {
  400bfe:	4420      	add	r0, r4
		heap = (unsigned char *)&_end;
  400c00:	6014      	str	r4, [r2, #0]
	if (((int)prev_heap + incr) > ramend) {
  400c02:	4281      	cmp	r1, r0
  400c04:	db04      	blt.n	400c10 <_sbrk+0x30>
	heap += incr;
  400c06:	6010      	str	r0, [r2, #0]
	return (caddr_t) prev_heap;
  400c08:	4620      	mov	r0, r4
}
  400c0a:	f85d 4b04 	ldr.w	r4, [sp], #4
  400c0e:	4770      	bx	lr
		return (caddr_t) -1;	
  400c10:	f04f 30ff 	mov.w	r0, #4294967295
  400c14:	e7f9      	b.n	400c0a <_sbrk+0x2a>
  400c16:	bf00      	nop
  400c18:	20400a54 	.word	0x20400a54
  400c1c:	2045fffc 	.word	0x2045fffc
  400c20:	20402e50 	.word	0x20402e50

00400c24 <_close>:
}

extern int _close(int file)
{
	return -1;
}
  400c24:	f04f 30ff 	mov.w	r0, #4294967295
  400c28:	4770      	bx	lr
  400c2a:	bf00      	nop

00400c2c <_fstat>:

extern int _fstat(int file, struct stat *st)
{
	st->st_mode = S_IFCHR;
  400c2c:	f44f 5300 	mov.w	r3, #8192	; 0x2000

	return 0;
}
  400c30:	2000      	movs	r0, #0
	st->st_mode = S_IFCHR;
  400c32:	604b      	str	r3, [r1, #4]
}
  400c34:	4770      	bx	lr
  400c36:	bf00      	nop

00400c38 <_isatty>:

extern int _isatty(int file)
{
	return 1;
}
  400c38:	2001      	movs	r0, #1
  400c3a:	4770      	bx	lr

00400c3c <_lseek>:

extern int _lseek(int file, int ptr, int dir)
{
	return 0;
}
  400c3c:	2000      	movs	r0, #0
  400c3e:	4770      	bx	lr

00400c40 <vListInitialise>:
void vListInitialise( List_t * const pxList )
{
	/* The list structure contains a list item which is used to mark the
	end of the list.  To initialise the list the list end is inserted
	as the only list entry. */
	pxList->pxIndex = ( ListItem_t * ) &( pxList->xListEnd );			/*lint !e826 !e740 The mini list structure is used as the list end to save RAM.  This is checked and valid. */
  400c40:	f100 0308 	add.w	r3, r0, #8

	/* The list end value is the highest possible value in the list to
	ensure it remains at the end of the list. */
	pxList->xListEnd.xItemValue = portMAX_DELAY;
  400c44:	f04f 31ff 	mov.w	r1, #4294967295
	/* The list end next and previous pointers point to itself so we know
	when the list is empty. */
	pxList->xListEnd.pxNext = ( ListItem_t * ) &( pxList->xListEnd );	/*lint !e826 !e740 The mini list structure is used as the list end to save RAM.  This is checked and valid. */
	pxList->xListEnd.pxPrevious = ( ListItem_t * ) &( pxList->xListEnd );/*lint !e826 !e740 The mini list structure is used as the list end to save RAM.  This is checked and valid. */

	pxList->uxNumberOfItems = ( UBaseType_t ) 0U;
  400c48:	2200      	movs	r2, #0
	pxList->xListEnd.xItemValue = portMAX_DELAY;
  400c4a:	6081      	str	r1, [r0, #8]
	pxList->xListEnd.pxNext = ( ListItem_t * ) &( pxList->xListEnd );	/*lint !e826 !e740 The mini list structure is used as the list end to save RAM.  This is checked and valid. */
  400c4c:	60c3      	str	r3, [r0, #12]
	pxList->xListEnd.pxPrevious = ( ListItem_t * ) &( pxList->xListEnd );/*lint !e826 !e740 The mini list structure is used as the list end to save RAM.  This is checked and valid. */
  400c4e:	6103      	str	r3, [r0, #16]
	pxList->pxIndex = ( ListItem_t * ) &( pxList->xListEnd );			/*lint !e826 !e740 The mini list structure is used as the list end to save RAM.  This is checked and valid. */
  400c50:	e880 000c 	stmia.w	r0, {r2, r3}
	pxList->xListEnd.pxPrevious = ( ListItem_t * ) &( pxList->xListEnd );/*lint !e826 !e740 The mini list structure is used as the list end to save RAM.  This is checked and valid. */
  400c54:	4770      	bx	lr
  400c56:	bf00      	nop

00400c58 <vListInitialiseItem>:
/*-----------------------------------------------------------*/

void vListInitialiseItem( ListItem_t * const pxItem )
{
	/* Make sure the list item is not recorded as being on a list. */
	pxItem->pvContainer = NULL;
  400c58:	2300      	movs	r3, #0
  400c5a:	6103      	str	r3, [r0, #16]
  400c5c:	4770      	bx	lr
  400c5e:	bf00      	nop

00400c60 <vListInsertEnd>:
}
/*-----------------------------------------------------------*/

void vListInsertEnd( List_t * const pxList, ListItem_t * const pxNewListItem )
{
ListItem_t * const pxIndex = pxList->pxIndex;
  400c60:	6843      	ldr	r3, [r0, #4]
	listTEST_LIST_ITEM_INTEGRITY( pxNewListItem );

	/* Insert a new list item into pxList, but rather than sort the list,
	makes the new list item the last item to be removed by a call to
	listGET_OWNER_OF_NEXT_ENTRY(). */
	pxNewListItem->pxNext = pxIndex;
  400c62:	604b      	str	r3, [r1, #4]
	pxNewListItem->pxPrevious = pxIndex->pxPrevious;
  400c64:	689a      	ldr	r2, [r3, #8]
  400c66:	608a      	str	r2, [r1, #8]

	/* Only used during decision coverage testing. */
	mtCOVERAGE_TEST_DELAY();

	pxIndex->pxPrevious->pxNext = pxNewListItem;
  400c68:	689a      	ldr	r2, [r3, #8]
  400c6a:	6051      	str	r1, [r2, #4]
	pxIndex->pxPrevious = pxNewListItem;
  400c6c:	6099      	str	r1, [r3, #8]

	/* Remember which list the item is in. */
	pxNewListItem->pvContainer = ( void * ) pxList;
  400c6e:	6108      	str	r0, [r1, #16]

	( pxList->uxNumberOfItems )++;
  400c70:	6803      	ldr	r3, [r0, #0]
  400c72:	3301      	adds	r3, #1
  400c74:	6003      	str	r3, [r0, #0]
  400c76:	4770      	bx	lr

00400c78 <vListInsert>:
}
/*-----------------------------------------------------------*/

void vListInsert( List_t * const pxList, ListItem_t * const pxNewListItem )
{
  400c78:	b430      	push	{r4, r5}
ListItem_t *pxIterator;
const TickType_t xValueOfInsertion = pxNewListItem->xItemValue;
  400c7a:	680d      	ldr	r5, [r1, #0]
	new list item should be placed after it.  This ensures that TCB's which are
	stored in ready lists (all of which have the same xItemValue value) get a
	share of the CPU.  However, if the xItemValue is the same as the back marker
	the iteration loop below will not end.  Therefore the value is checked
	first, and the algorithm slightly modified if necessary. */
	if( xValueOfInsertion == portMAX_DELAY )
  400c7c:	1c6b      	adds	r3, r5, #1
  400c7e:	d011      	beq.n	400ca4 <vListInsert+0x2c>
			4) Using a queue or semaphore before it has been initialised or
			   before the scheduler has been started (are interrupts firing
			   before vTaskStartScheduler() has been called?).
		**********************************************************************/

		for( pxIterator = ( ListItem_t * ) &( pxList->xListEnd ); pxIterator->pxNext->xItemValue <= xValueOfInsertion; pxIterator = pxIterator->pxNext ) /*lint !e826 !e740 The mini list structure is used as the list end to save RAM.  This is checked and valid. */
  400c80:	f100 0208 	add.w	r2, r0, #8
  400c84:	e000      	b.n	400c88 <vListInsert+0x10>
  400c86:	461a      	mov	r2, r3
  400c88:	6853      	ldr	r3, [r2, #4]
  400c8a:	681c      	ldr	r4, [r3, #0]
  400c8c:	42a5      	cmp	r5, r4
  400c8e:	d2fa      	bcs.n	400c86 <vListInsert+0xe>
			/* There is nothing to do here, just iterating to the wanted
			insertion position. */
		}
	}

	pxNewListItem->pxNext = pxIterator->pxNext;
  400c90:	604b      	str	r3, [r1, #4]
	pxNewListItem->pxNext->pxPrevious = pxNewListItem;
  400c92:	6099      	str	r1, [r3, #8]
	pxNewListItem->pxPrevious = pxIterator;
  400c94:	608a      	str	r2, [r1, #8]
	pxIterator->pxNext = pxNewListItem;
  400c96:	6051      	str	r1, [r2, #4]

	/* Remember which list the item is in.  This allows fast removal of the
	item later. */
	pxNewListItem->pvContainer = ( void * ) pxList;
  400c98:	6108      	str	r0, [r1, #16]

	( pxList->uxNumberOfItems )++;
  400c9a:	6803      	ldr	r3, [r0, #0]
  400c9c:	3301      	adds	r3, #1
}
  400c9e:	bc30      	pop	{r4, r5}
	( pxList->uxNumberOfItems )++;
  400ca0:	6003      	str	r3, [r0, #0]
}
  400ca2:	4770      	bx	lr
		pxIterator = pxList->xListEnd.pxPrevious;
  400ca4:	6902      	ldr	r2, [r0, #16]
  400ca6:	6853      	ldr	r3, [r2, #4]
  400ca8:	e7f2      	b.n	400c90 <vListInsert+0x18>
  400caa:	bf00      	nop

00400cac <uxListRemove>:
{
/* The list item knows which list it is in.  Obtain the list from the list
item. */
List_t * const pxList = ( List_t * ) pxItemToRemove->pvContainer;

	pxItemToRemove->pxNext->pxPrevious = pxItemToRemove->pxPrevious;
  400cac:	6842      	ldr	r2, [r0, #4]
  400cae:	6881      	ldr	r1, [r0, #8]
List_t * const pxList = ( List_t * ) pxItemToRemove->pvContainer;
  400cb0:	6903      	ldr	r3, [r0, #16]
	pxItemToRemove->pxNext->pxPrevious = pxItemToRemove->pxPrevious;
  400cb2:	6091      	str	r1, [r2, #8]
	pxItemToRemove->pxPrevious->pxNext = pxItemToRemove->pxNext;
  400cb4:	6882      	ldr	r2, [r0, #8]
  400cb6:	6841      	ldr	r1, [r0, #4]
  400cb8:	6051      	str	r1, [r2, #4]

	/* Only used during decision coverage testing. */
	mtCOVERAGE_TEST_DELAY();

	/* Make sure the index is left pointing to a valid item. */
	if( pxList->pxIndex == pxItemToRemove )
  400cba:	685a      	ldr	r2, [r3, #4]
  400cbc:	4290      	cmp	r0, r2
  400cbe:	d005      	beq.n	400ccc <uxListRemove+0x20>
	else
	{
		mtCOVERAGE_TEST_MARKER();
	}

	pxItemToRemove->pvContainer = NULL;
  400cc0:	2200      	movs	r2, #0
  400cc2:	6102      	str	r2, [r0, #16]
	( pxList->uxNumberOfItems )--;
  400cc4:	6818      	ldr	r0, [r3, #0]
  400cc6:	3801      	subs	r0, #1
  400cc8:	6018      	str	r0, [r3, #0]

	return pxList->uxNumberOfItems;
}
  400cca:	4770      	bx	lr
		pxList->pxIndex = pxItemToRemove->pxPrevious;
  400ccc:	6882      	ldr	r2, [r0, #8]
  400cce:	605a      	str	r2, [r3, #4]
  400cd0:	e7f6      	b.n	400cc0 <uxListRemove+0x14>
  400cd2:	bf00      	nop

00400cd4 <prvTaskExitError>:
	its caller as there is nothing to return to.  If a task wants to exit it
	should instead call vTaskDelete( NULL ).

	Artificially force an assert() to be triggered if configASSERT() is
	defined, then stop here so application writers can catch the error. */
	configASSERT( uxCriticalNesting == ~0UL );
  400cd4:	4b0c      	ldr	r3, [pc, #48]	; (400d08 <prvTaskExitError+0x34>)
  400cd6:	681b      	ldr	r3, [r3, #0]
  400cd8:	3301      	adds	r3, #1
  400cda:	d00a      	beq.n	400cf2 <prvTaskExitError+0x1e>

portFORCE_INLINE static void vPortRaiseBASEPRI( void )
{
uint32_t ulNewBASEPRI;

	__asm volatile
  400cdc:	f04f 0380 	mov.w	r3, #128	; 0x80
  400ce0:	b672      	cpsid	i
  400ce2:	f383 8811 	msr	BASEPRI, r3
  400ce6:	f3bf 8f6f 	isb	sy
  400cea:	f3bf 8f4f 	dsb	sy
  400cee:	b662      	cpsie	i
  400cf0:	e7fe      	b.n	400cf0 <prvTaskExitError+0x1c>
  400cf2:	f04f 0380 	mov.w	r3, #128	; 0x80
  400cf6:	b672      	cpsid	i
  400cf8:	f383 8811 	msr	BASEPRI, r3
  400cfc:	f3bf 8f6f 	isb	sy
  400d00:	f3bf 8f4f 	dsb	sy
  400d04:	b662      	cpsie	i
  400d06:	e7fe      	b.n	400d06 <prvTaskExitError+0x32>
  400d08:	20400010 	.word	0x20400010

00400d0c <prvPortStartFirstTask>:
}
/*-----------------------------------------------------------*/

static void prvPortStartFirstTask( void )
{
	__asm volatile(
  400d0c:	4806      	ldr	r0, [pc, #24]	; (400d28 <prvPortStartFirstTask+0x1c>)
  400d0e:	6800      	ldr	r0, [r0, #0]
  400d10:	6800      	ldr	r0, [r0, #0]
  400d12:	f380 8808 	msr	MSP, r0
  400d16:	b662      	cpsie	i
  400d18:	b661      	cpsie	f
  400d1a:	f3bf 8f4f 	dsb	sy
  400d1e:	f3bf 8f6f 	isb	sy
  400d22:	df00      	svc	0
  400d24:	bf00      	nop
  400d26:	0000      	.short	0x0000
  400d28:	e000ed08 	.word	0xe000ed08

00400d2c <vPortEnableVFP>:
/*-----------------------------------------------------------*/

/* This is a naked function. */
static void vPortEnableVFP( void )
{
	__asm volatile
  400d2c:	f8df 000c 	ldr.w	r0, [pc, #12]	; 400d3c <vPortEnableVFP+0x10>
  400d30:	6801      	ldr	r1, [r0, #0]
  400d32:	f441 0170 	orr.w	r1, r1, #15728640	; 0xf00000
  400d36:	6001      	str	r1, [r0, #0]
  400d38:	4770      	bx	lr
  400d3a:	0000      	.short	0x0000
  400d3c:	e000ed88 	.word	0xe000ed88

00400d40 <pxPortInitialiseStack>:
{
  400d40:	b470      	push	{r4, r5, r6}
  400d42:	4603      	mov	r3, r0
	*pxTopOfStack = portINITIAL_XPSR;	/* xPSR */
  400d44:	f04f 7680 	mov.w	r6, #16777216	; 0x1000000
	*pxTopOfStack = ( StackType_t ) portTASK_RETURN_ADDRESS;	/* LR */
  400d48:	4d07      	ldr	r5, [pc, #28]	; (400d68 <pxPortInitialiseStack+0x28>)
	*pxTopOfStack = portINITIAL_EXEC_RETURN;
  400d4a:	f06f 0402 	mvn.w	r4, #2
	*pxTopOfStack = ( StackType_t ) pxCode;	/* PC */
  400d4e:	f840 1c08 	str.w	r1, [r0, #-8]
}
  400d52:	3844      	subs	r0, #68	; 0x44
	*pxTopOfStack = ( StackType_t ) pvParameters;	/* R0 */
  400d54:	f843 2c20 	str.w	r2, [r3, #-32]
	*pxTopOfStack = portINITIAL_XPSR;	/* xPSR */
  400d58:	f843 6c04 	str.w	r6, [r3, #-4]
	*pxTopOfStack = ( StackType_t ) portTASK_RETURN_ADDRESS;	/* LR */
  400d5c:	f843 5c0c 	str.w	r5, [r3, #-12]
	*pxTopOfStack = portINITIAL_EXEC_RETURN;
  400d60:	f843 4c24 	str.w	r4, [r3, #-36]
}
  400d64:	bc70      	pop	{r4, r5, r6}
  400d66:	4770      	bx	lr
  400d68:	00400cd5 	.word	0x00400cd5

00400d6c <SVC_Handler>:
	__asm volatile (
  400d6c:	4b06      	ldr	r3, [pc, #24]	; (400d88 <pxCurrentTCBConst2>)
  400d6e:	6819      	ldr	r1, [r3, #0]
  400d70:	6808      	ldr	r0, [r1, #0]
  400d72:	e8b0 4ff0 	ldmia.w	r0!, {r4, r5, r6, r7, r8, r9, sl, fp, lr}
  400d76:	f380 8809 	msr	PSP, r0
  400d7a:	f3bf 8f6f 	isb	sy
  400d7e:	f04f 0000 	mov.w	r0, #0
  400d82:	f380 8811 	msr	BASEPRI, r0
  400d86:	4770      	bx	lr

00400d88 <pxCurrentTCBConst2>:
  400d88:	20400a60 	.word	0x20400a60
  400d8c:	4770      	bx	lr
  400d8e:	bf00      	nop

00400d90 <vPortEnterCritical>:
  400d90:	f04f 0380 	mov.w	r3, #128	; 0x80
  400d94:	b672      	cpsid	i
  400d96:	f383 8811 	msr	BASEPRI, r3
  400d9a:	f3bf 8f6f 	isb	sy
  400d9e:	f3bf 8f4f 	dsb	sy
  400da2:	b662      	cpsie	i
	uxCriticalNesting++;
  400da4:	4a0b      	ldr	r2, [pc, #44]	; (400dd4 <vPortEnterCritical+0x44>)
  400da6:	6813      	ldr	r3, [r2, #0]
  400da8:	3301      	adds	r3, #1
	if( uxCriticalNesting == 1 )
  400daa:	2b01      	cmp	r3, #1
	uxCriticalNesting++;
  400dac:	6013      	str	r3, [r2, #0]
	if( uxCriticalNesting == 1 )
  400dae:	d000      	beq.n	400db2 <vPortEnterCritical+0x22>
  400db0:	4770      	bx	lr
		configASSERT( ( portNVIC_INT_CTRL_REG & portVECTACTIVE_MASK ) == 0 );
  400db2:	4b09      	ldr	r3, [pc, #36]	; (400dd8 <vPortEnterCritical+0x48>)
  400db4:	681b      	ldr	r3, [r3, #0]
  400db6:	f013 0fff 	tst.w	r3, #255	; 0xff
  400dba:	d0f9      	beq.n	400db0 <vPortEnterCritical+0x20>
  400dbc:	f04f 0380 	mov.w	r3, #128	; 0x80
  400dc0:	b672      	cpsid	i
  400dc2:	f383 8811 	msr	BASEPRI, r3
  400dc6:	f3bf 8f6f 	isb	sy
  400dca:	f3bf 8f4f 	dsb	sy
  400dce:	b662      	cpsie	i
  400dd0:	e7fe      	b.n	400dd0 <vPortEnterCritical+0x40>
  400dd2:	bf00      	nop
  400dd4:	20400010 	.word	0x20400010
  400dd8:	e000ed04 	.word	0xe000ed04

00400ddc <vPortExitCritical>:
	configASSERT( uxCriticalNesting );
  400ddc:	4a09      	ldr	r2, [pc, #36]	; (400e04 <vPortExitCritical+0x28>)
  400dde:	6813      	ldr	r3, [r2, #0]
  400de0:	b953      	cbnz	r3, 400df8 <vPortExitCritical+0x1c>
  400de2:	f04f 0380 	mov.w	r3, #128	; 0x80
  400de6:	b672      	cpsid	i
  400de8:	f383 8811 	msr	BASEPRI, r3
  400dec:	f3bf 8f6f 	isb	sy
  400df0:	f3bf 8f4f 	dsb	sy
  400df4:	b662      	cpsie	i
  400df6:	e7fe      	b.n	400df6 <vPortExitCritical+0x1a>
	uxCriticalNesting--;
  400df8:	3b01      	subs	r3, #1
  400dfa:	6013      	str	r3, [r2, #0]
	if( uxCriticalNesting == 0 )
  400dfc:	b90b      	cbnz	r3, 400e02 <vPortExitCritical+0x26>
}
/*-----------------------------------------------------------*/

portFORCE_INLINE static void vPortSetBASEPRI( uint32_t ulNewMaskValue )
{
	__asm volatile
  400dfe:	f383 8811 	msr	BASEPRI, r3
  400e02:	4770      	bx	lr
  400e04:	20400010 	.word	0x20400010

00400e08 <PendSV_Handler>:
	__asm volatile
  400e08:	f3ef 8009 	mrs	r0, PSP
  400e0c:	f3bf 8f6f 	isb	sy
  400e10:	4b15      	ldr	r3, [pc, #84]	; (400e68 <pxCurrentTCBConst>)
  400e12:	681a      	ldr	r2, [r3, #0]
  400e14:	f01e 0f10 	tst.w	lr, #16
  400e18:	bf08      	it	eq
  400e1a:	ed20 8a10 	vstmdbeq	r0!, {s16-s31}
  400e1e:	e920 4ff0 	stmdb	r0!, {r4, r5, r6, r7, r8, r9, sl, fp, lr}
  400e22:	6010      	str	r0, [r2, #0]
  400e24:	f84d 3d04 	str.w	r3, [sp, #-4]!
  400e28:	f04f 0080 	mov.w	r0, #128	; 0x80
  400e2c:	b672      	cpsid	i
  400e2e:	f380 8811 	msr	BASEPRI, r0
  400e32:	f3bf 8f4f 	dsb	sy
  400e36:	f3bf 8f6f 	isb	sy
  400e3a:	b662      	cpsie	i
  400e3c:	f001 f8b6 	bl	401fac <vTaskSwitchContext>
  400e40:	f04f 0000 	mov.w	r0, #0
  400e44:	f380 8811 	msr	BASEPRI, r0
  400e48:	bc08      	pop	{r3}
  400e4a:	6819      	ldr	r1, [r3, #0]
  400e4c:	6808      	ldr	r0, [r1, #0]
  400e4e:	e8b0 4ff0 	ldmia.w	r0!, {r4, r5, r6, r7, r8, r9, sl, fp, lr}
  400e52:	f01e 0f10 	tst.w	lr, #16
  400e56:	bf08      	it	eq
  400e58:	ecb0 8a10 	vldmiaeq	r0!, {s16-s31}
  400e5c:	f380 8809 	msr	PSP, r0
  400e60:	f3bf 8f6f 	isb	sy
  400e64:	4770      	bx	lr
  400e66:	bf00      	nop

00400e68 <pxCurrentTCBConst>:
  400e68:	20400a60 	.word	0x20400a60
  400e6c:	4770      	bx	lr
  400e6e:	bf00      	nop

00400e70 <SysTick_Handler>:
{
  400e70:	b508      	push	{r3, lr}
	__asm volatile
  400e72:	f3ef 8311 	mrs	r3, BASEPRI
  400e76:	f04f 0280 	mov.w	r2, #128	; 0x80
  400e7a:	b672      	cpsid	i
  400e7c:	f382 8811 	msr	BASEPRI, r2
  400e80:	f3bf 8f6f 	isb	sy
  400e84:	f3bf 8f4f 	dsb	sy
  400e88:	b662      	cpsie	i
		if( xTaskIncrementTick() != pdFALSE )
  400e8a:	4b05      	ldr	r3, [pc, #20]	; (400ea0 <SysTick_Handler+0x30>)
  400e8c:	4798      	blx	r3
  400e8e:	b118      	cbz	r0, 400e98 <SysTick_Handler+0x28>
			portNVIC_INT_CTRL_REG = portNVIC_PENDSVSET_BIT;
  400e90:	4b04      	ldr	r3, [pc, #16]	; (400ea4 <SysTick_Handler+0x34>)
  400e92:	f04f 5280 	mov.w	r2, #268435456	; 0x10000000
  400e96:	601a      	str	r2, [r3, #0]
	__asm volatile
  400e98:	2300      	movs	r3, #0
  400e9a:	f383 8811 	msr	BASEPRI, r3
  400e9e:	bd08      	pop	{r3, pc}
  400ea0:	00401bdd 	.word	0x00401bdd
  400ea4:	e000ed04 	.word	0xe000ed04

00400ea8 <vPortSetupTimerInterrupt>:
	portNVIC_SYSTICK_LOAD_REG = ( configSYSTICK_CLOCK_HZ / configTICK_RATE_HZ ) - 1UL;
  400ea8:	4903      	ldr	r1, [pc, #12]	; (400eb8 <vPortSetupTimerInterrupt+0x10>)
	portNVIC_SYSTICK_CTRL_REG = ( portNVIC_SYSTICK_CLK_BIT | portNVIC_SYSTICK_INT_BIT | portNVIC_SYSTICK_ENABLE_BIT );
  400eaa:	2207      	movs	r2, #7
	portNVIC_SYSTICK_LOAD_REG = ( configSYSTICK_CLOCK_HZ / configTICK_RATE_HZ ) - 1UL;
  400eac:	4803      	ldr	r0, [pc, #12]	; (400ebc <vPortSetupTimerInterrupt+0x14>)
	portNVIC_SYSTICK_CTRL_REG = ( portNVIC_SYSTICK_CLK_BIT | portNVIC_SYSTICK_INT_BIT | portNVIC_SYSTICK_ENABLE_BIT );
  400eae:	4b04      	ldr	r3, [pc, #16]	; (400ec0 <vPortSetupTimerInterrupt+0x18>)
	portNVIC_SYSTICK_LOAD_REG = ( configSYSTICK_CLOCK_HZ / configTICK_RATE_HZ ) - 1UL;
  400eb0:	6008      	str	r0, [r1, #0]
	portNVIC_SYSTICK_CTRL_REG = ( portNVIC_SYSTICK_CLK_BIT | portNVIC_SYSTICK_INT_BIT | portNVIC_SYSTICK_ENABLE_BIT );
  400eb2:	601a      	str	r2, [r3, #0]
  400eb4:	4770      	bx	lr
  400eb6:	bf00      	nop
  400eb8:	e000e014 	.word	0xe000e014
  400ebc:	000927bf 	.word	0x000927bf
  400ec0:	e000e010 	.word	0xe000e010

00400ec4 <xPortStartScheduler>:
		ulOriginalPriority = *pucFirstUserPriorityRegister;
  400ec4:	4b23      	ldr	r3, [pc, #140]	; (400f54 <xPortStartScheduler+0x90>)
		ulMaxPRIGROUPValue = portMAX_PRIGROUP_BITS;
  400ec6:	2207      	movs	r2, #7
  400ec8:	4823      	ldr	r0, [pc, #140]	; (400f58 <xPortStartScheduler+0x94>)
{
  400eca:	b530      	push	{r4, r5, lr}
		ulOriginalPriority = *pucFirstUserPriorityRegister;
  400ecc:	7819      	ldrb	r1, [r3, #0]
{
  400ece:	b083      	sub	sp, #12
		*pucFirstUserPriorityRegister = portMAX_8_BIT_VALUE;
  400ed0:	25ff      	movs	r5, #255	; 0xff
		ucMaxSysCallPriority = configMAX_SYSCALL_INTERRUPT_PRIORITY & ucMaxPriorityValue;
  400ed2:	4c22      	ldr	r4, [pc, #136]	; (400f5c <xPortStartScheduler+0x98>)
		ulOriginalPriority = *pucFirstUserPriorityRegister;
  400ed4:	b2c9      	uxtb	r1, r1
  400ed6:	9101      	str	r1, [sp, #4]
		*pucFirstUserPriorityRegister = portMAX_8_BIT_VALUE;
  400ed8:	701d      	strb	r5, [r3, #0]
		ucMaxPriorityValue = *pucFirstUserPriorityRegister;
  400eda:	781b      	ldrb	r3, [r3, #0]
		ulMaxPRIGROUPValue = portMAX_PRIGROUP_BITS;
  400edc:	6002      	str	r2, [r0, #0]
		ucMaxPriorityValue = *pucFirstUserPriorityRegister;
  400ede:	b2db      	uxtb	r3, r3
  400ee0:	f88d 3003 	strb.w	r3, [sp, #3]
		ucMaxSysCallPriority = configMAX_SYSCALL_INTERRUPT_PRIORITY & ucMaxPriorityValue;
  400ee4:	f89d 3003 	ldrb.w	r3, [sp, #3]
		while( ( ucMaxPriorityValue & portTOP_BIT_OF_BYTE ) == portTOP_BIT_OF_BYTE )
  400ee8:	f89d 1003 	ldrb.w	r1, [sp, #3]
		ucMaxSysCallPriority = configMAX_SYSCALL_INTERRUPT_PRIORITY & ucMaxPriorityValue;
  400eec:	f003 0380 	and.w	r3, r3, #128	; 0x80
		while( ( ucMaxPriorityValue & portTOP_BIT_OF_BYTE ) == portTOP_BIT_OF_BYTE )
  400ef0:	0609      	lsls	r1, r1, #24
		ucMaxSysCallPriority = configMAX_SYSCALL_INTERRUPT_PRIORITY & ucMaxPriorityValue;
  400ef2:	7023      	strb	r3, [r4, #0]
		while( ( ucMaxPriorityValue & portTOP_BIT_OF_BYTE ) == portTOP_BIT_OF_BYTE )
  400ef4:	d50d      	bpl.n	400f12 <xPortStartScheduler+0x4e>
  400ef6:	2206      	movs	r2, #6
  400ef8:	e000      	b.n	400efc <xPortStartScheduler+0x38>
  400efa:	460a      	mov	r2, r1
			ucMaxPriorityValue <<= ( uint8_t ) 0x01;
  400efc:	f89d 3003 	ldrb.w	r3, [sp, #3]
  400f00:	1e51      	subs	r1, r2, #1
  400f02:	005b      	lsls	r3, r3, #1
  400f04:	b2db      	uxtb	r3, r3
  400f06:	f88d 3003 	strb.w	r3, [sp, #3]
		while( ( ucMaxPriorityValue & portTOP_BIT_OF_BYTE ) == portTOP_BIT_OF_BYTE )
  400f0a:	f89d 3003 	ldrb.w	r3, [sp, #3]
  400f0e:	061b      	lsls	r3, r3, #24
  400f10:	d4f3      	bmi.n	400efa <xPortStartScheduler+0x36>
		*pucFirstUserPriorityRegister = ulOriginalPriority;
  400f12:	9901      	ldr	r1, [sp, #4]
		ulMaxPRIGROUPValue <<= portPRIGROUP_SHIFT;
  400f14:	0212      	lsls	r2, r2, #8
	portNVIC_SYSPRI2_REG |= portNVIC_PENDSV_PRI;
  400f16:	4b12      	ldr	r3, [pc, #72]	; (400f60 <xPortStartScheduler+0x9c>)
		ulMaxPRIGROUPValue &= portPRIORITY_GROUP_MASK;
  400f18:	f402 62e0 	and.w	r2, r2, #1792	; 0x700
		*pucFirstUserPriorityRegister = ulOriginalPriority;
  400f1c:	b2c9      	uxtb	r1, r1
  400f1e:	4c0d      	ldr	r4, [pc, #52]	; (400f54 <xPortStartScheduler+0x90>)
		ulMaxPRIGROUPValue &= portPRIORITY_GROUP_MASK;
  400f20:	6002      	str	r2, [r0, #0]
		*pucFirstUserPriorityRegister = ulOriginalPriority;
  400f22:	7021      	strb	r1, [r4, #0]
	portNVIC_SYSPRI2_REG |= portNVIC_PENDSV_PRI;
  400f24:	681a      	ldr	r2, [r3, #0]
	vPortSetupTimerInterrupt();
  400f26:	490f      	ldr	r1, [pc, #60]	; (400f64 <xPortStartScheduler+0xa0>)
	portNVIC_SYSPRI2_REG |= portNVIC_PENDSV_PRI;
  400f28:	f442 0260 	orr.w	r2, r2, #14680064	; 0xe00000
  400f2c:	601a      	str	r2, [r3, #0]
	portNVIC_SYSPRI2_REG |= portNVIC_SYSTICK_PRI;
  400f2e:	681a      	ldr	r2, [r3, #0]
  400f30:	f042 4260 	orr.w	r2, r2, #3758096384	; 0xe0000000
  400f34:	601a      	str	r2, [r3, #0]
	vPortSetupTimerInterrupt();
  400f36:	4788      	blx	r1
	uxCriticalNesting = 0;
  400f38:	4a0b      	ldr	r2, [pc, #44]	; (400f68 <xPortStartScheduler+0xa4>)
  400f3a:	2100      	movs	r1, #0
	vPortEnableVFP();
  400f3c:	4b0b      	ldr	r3, [pc, #44]	; (400f6c <xPortStartScheduler+0xa8>)
	uxCriticalNesting = 0;
  400f3e:	6011      	str	r1, [r2, #0]
	vPortEnableVFP();
  400f40:	4798      	blx	r3
	*( portFPCCR ) |= portASPEN_AND_LSPEN_BITS;
  400f42:	4a0b      	ldr	r2, [pc, #44]	; (400f70 <xPortStartScheduler+0xac>)
	prvPortStartFirstTask();
  400f44:	490b      	ldr	r1, [pc, #44]	; (400f74 <xPortStartScheduler+0xb0>)
	*( portFPCCR ) |= portASPEN_AND_LSPEN_BITS;
  400f46:	6813      	ldr	r3, [r2, #0]
  400f48:	f043 4340 	orr.w	r3, r3, #3221225472	; 0xc0000000
  400f4c:	6013      	str	r3, [r2, #0]
	prvPortStartFirstTask();
  400f4e:	4788      	blx	r1
	prvTaskExitError();
  400f50:	4b09      	ldr	r3, [pc, #36]	; (400f78 <xPortStartScheduler+0xb4>)
  400f52:	4798      	blx	r3
  400f54:	e000e400 	.word	0xe000e400
  400f58:	20400a5c 	.word	0x20400a5c
  400f5c:	20400a58 	.word	0x20400a58
  400f60:	e000ed20 	.word	0xe000ed20
  400f64:	00400ea9 	.word	0x00400ea9
  400f68:	20400010 	.word	0x20400010
  400f6c:	00400d2d 	.word	0x00400d2d
  400f70:	e000ef34 	.word	0xe000ef34
  400f74:	00400d0d 	.word	0x00400d0d
  400f78:	00400cd5 	.word	0x00400cd5

00400f7c <vPortValidateInterruptPriority>:
	{
	uint32_t ulCurrentInterrupt;
	uint8_t ucCurrentPriority;

		/* Obtain the number of the currently executing interrupt. */
		__asm volatile( "mrs %0, ipsr" : "=r"( ulCurrentInterrupt ) );
  400f7c:	f3ef 8305 	mrs	r3, IPSR

		/* Is the interrupt number a user defined interrupt? */
		if( ulCurrentInterrupt >= portFIRST_USER_INTERRUPT_NUMBER )
  400f80:	2b0f      	cmp	r3, #15
  400f82:	d910      	bls.n	400fa6 <vPortValidateInterruptPriority+0x2a>
		{
			/* Look up the interrupt's priority. */
			ucCurrentPriority = pcInterruptPriorityRegisters[ ulCurrentInterrupt ];
  400f84:	4912      	ldr	r1, [pc, #72]	; (400fd0 <vPortValidateInterruptPriority+0x54>)
			interrupt entry is as fast and simple as possible.

			The following links provide detailed information:
			http://www.freertos.org/RTOS-Cortex-M3-M4.html
			http://www.freertos.org/FAQHelp.html */
			configASSERT( ucCurrentPriority >= ucMaxSysCallPriority );
  400f86:	4a13      	ldr	r2, [pc, #76]	; (400fd4 <vPortValidateInterruptPriority+0x58>)
			ucCurrentPriority = pcInterruptPriorityRegisters[ ulCurrentInterrupt ];
  400f88:	5c5b      	ldrb	r3, [r3, r1]
			configASSERT( ucCurrentPriority >= ucMaxSysCallPriority );
  400f8a:	7812      	ldrb	r2, [r2, #0]
  400f8c:	429a      	cmp	r2, r3
  400f8e:	d90a      	bls.n	400fa6 <vPortValidateInterruptPriority+0x2a>
	__asm volatile
  400f90:	f04f 0380 	mov.w	r3, #128	; 0x80
  400f94:	b672      	cpsid	i
  400f96:	f383 8811 	msr	BASEPRI, r3
  400f9a:	f3bf 8f6f 	isb	sy
  400f9e:	f3bf 8f4f 	dsb	sy
  400fa2:	b662      	cpsie	i
  400fa4:	e7fe      	b.n	400fa4 <vPortValidateInterruptPriority+0x28>
		configuration then the correct setting can be achieved on all Cortex-M
		devices by calling NVIC_SetPriorityGrouping( 0 ); before starting the
		scheduler.  Note however that some vendor specific peripheral libraries
		assume a non-zero priority group setting, in which cases using a value
		of zero will result in unpredicable behaviour. */
		configASSERT( ( portAIRCR_REG & portPRIORITY_GROUP_MASK ) <= ulMaxPRIGROUPValue );
  400fa6:	4b0c      	ldr	r3, [pc, #48]	; (400fd8 <vPortValidateInterruptPriority+0x5c>)
  400fa8:	4a0c      	ldr	r2, [pc, #48]	; (400fdc <vPortValidateInterruptPriority+0x60>)
  400faa:	681b      	ldr	r3, [r3, #0]
  400fac:	6812      	ldr	r2, [r2, #0]
  400fae:	f403 63e0 	and.w	r3, r3, #1792	; 0x700
  400fb2:	4293      	cmp	r3, r2
  400fb4:	d90a      	bls.n	400fcc <vPortValidateInterruptPriority+0x50>
  400fb6:	f04f 0380 	mov.w	r3, #128	; 0x80
  400fba:	b672      	cpsid	i
  400fbc:	f383 8811 	msr	BASEPRI, r3
  400fc0:	f3bf 8f6f 	isb	sy
  400fc4:	f3bf 8f4f 	dsb	sy
  400fc8:	b662      	cpsie	i
  400fca:	e7fe      	b.n	400fca <vPortValidateInterruptPriority+0x4e>
  400fcc:	4770      	bx	lr
  400fce:	bf00      	nop
  400fd0:	e000e3f0 	.word	0xe000e3f0
  400fd4:	20400a58 	.word	0x20400a58
  400fd8:	e000ed0c 	.word	0xe000ed0c
  400fdc:	20400a5c 	.word	0x20400a5c

00400fe0 <pvPortMalloc>:
#undef MPU_WRAPPERS_INCLUDED_FROM_API_FILE

/*-----------------------------------------------------------*/

void *pvPortMalloc( size_t xWantedSize )
{
  400fe0:	b510      	push	{r4, lr}
  400fe2:	4604      	mov	r4, r0
void *pvReturn;

	vTaskSuspendAll();
  400fe4:	4b07      	ldr	r3, [pc, #28]	; (401004 <pvPortMalloc+0x24>)
  400fe6:	4798      	blx	r3
	{
		pvReturn = malloc( xWantedSize );
  400fe8:	4b07      	ldr	r3, [pc, #28]	; (401008 <pvPortMalloc+0x28>)
  400fea:	4620      	mov	r0, r4
  400fec:	4798      	blx	r3
  400fee:	4604      	mov	r4, r0
		traceMALLOC( pvReturn, xWantedSize );
	}
	( void ) xTaskResumeAll();
  400ff0:	4b06      	ldr	r3, [pc, #24]	; (40100c <pvPortMalloc+0x2c>)
  400ff2:	4798      	blx	r3

	#if( configUSE_MALLOC_FAILED_HOOK == 1 )
	{
		if( pvReturn == NULL )
  400ff4:	b10c      	cbz	r4, 400ffa <pvPortMalloc+0x1a>
		}
	}
	#endif

	return pvReturn;
}
  400ff6:	4620      	mov	r0, r4
  400ff8:	bd10      	pop	{r4, pc}
			vApplicationMallocFailedHook();
  400ffa:	4b05      	ldr	r3, [pc, #20]	; (401010 <pvPortMalloc+0x30>)
  400ffc:	4798      	blx	r3
}
  400ffe:	4620      	mov	r0, r4
  401000:	bd10      	pop	{r4, pc}
  401002:	bf00      	nop
  401004:	00401bc1 	.word	0x00401bc1
  401008:	00402ea5 	.word	0x00402ea5
  40100c:	00401d51 	.word	0x00401d51
  401010:	00402bd1 	.word	0x00402bd1

00401014 <vPortFree>:
/*-----------------------------------------------------------*/

void vPortFree( void *pv )
{
	if( pv )
  401014:	b150      	cbz	r0, 40102c <vPortFree+0x18>
	{
		vTaskSuspendAll();
  401016:	4b06      	ldr	r3, [pc, #24]	; (401030 <vPortFree+0x1c>)
{
  401018:	b510      	push	{r4, lr}
  40101a:	4604      	mov	r4, r0
		vTaskSuspendAll();
  40101c:	4798      	blx	r3
		{
			free( pv );
  40101e:	4b05      	ldr	r3, [pc, #20]	; (401034 <vPortFree+0x20>)
  401020:	4620      	mov	r0, r4
  401022:	4798      	blx	r3
			traceFREE( pv, 0 );
		}
		( void ) xTaskResumeAll();
  401024:	4b04      	ldr	r3, [pc, #16]	; (401038 <vPortFree+0x24>)
	}
}
  401026:	e8bd 4010 	ldmia.w	sp!, {r4, lr}
		( void ) xTaskResumeAll();
  40102a:	4718      	bx	r3
  40102c:	4770      	bx	lr
  40102e:	bf00      	nop
  401030:	00401bc1 	.word	0x00401bc1
  401034:	00402eb5 	.word	0x00402eb5
  401038:	00401d51 	.word	0x00401d51

0040103c <prvCopyDataToQueue>:

#endif /* configUSE_TRACE_FACILITY */
/*-----------------------------------------------------------*/

static BaseType_t prvCopyDataToQueue( Queue_t * const pxQueue, const void *pvItemToQueue, const BaseType_t xPosition )
{
  40103c:	b538      	push	{r3, r4, r5, lr}
  40103e:	4615      	mov	r5, r2
BaseType_t xReturn = pdFALSE;

	if( pxQueue->uxItemSize == ( UBaseType_t ) 0 )
  401040:	6c02      	ldr	r2, [r0, #64]	; 0x40
{
  401042:	4604      	mov	r4, r0
	if( pxQueue->uxItemSize == ( UBaseType_t ) 0 )
  401044:	b942      	cbnz	r2, 401058 <prvCopyDataToQueue+0x1c>
	{
		#if ( configUSE_MUTEXES == 1 )
		{
			if( pxQueue->uxQueueType == queueQUEUE_IS_MUTEX )
  401046:	6805      	ldr	r5, [r0, #0]
  401048:	b10d      	cbz	r5, 40104e <prvCopyDataToQueue+0x12>
BaseType_t xReturn = pdFALSE;
  40104a:	2000      	movs	r0, #0
  40104c:	e029      	b.n	4010a2 <prvCopyDataToQueue+0x66>
			{
				/* The mutex is no longer being held. */
				xReturn = xTaskPriorityDisinherit( ( void * ) pxQueue->pxMutexHolder );
  40104e:	6840      	ldr	r0, [r0, #4]
  401050:	4b16      	ldr	r3, [pc, #88]	; (4010ac <prvCopyDataToQueue+0x70>)
  401052:	4798      	blx	r3
				pxQueue->pxMutexHolder = NULL;
  401054:	6065      	str	r5, [r4, #4]
  401056:	e024      	b.n	4010a2 <prvCopyDataToQueue+0x66>
  401058:	4b15      	ldr	r3, [pc, #84]	; (4010b0 <prvCopyDataToQueue+0x74>)
				mtCOVERAGE_TEST_MARKER();
			}
		}
		#endif /* configUSE_MUTEXES */
	}
	else if( xPosition == queueSEND_TO_BACK )
  40105a:	b965      	cbnz	r5, 401076 <prvCopyDataToQueue+0x3a>
	{
		( void ) memcpy( ( void * ) pxQueue->pcWriteTo, pvItemToQueue, ( size_t ) pxQueue->uxItemSize ); /*lint !e961 !e418 MISRA exception as the casts are only redundant for some ports, plus previous logic ensures a null pointer can only be passed to memcpy() if the copy size is 0. */
  40105c:	6880      	ldr	r0, [r0, #8]
  40105e:	4798      	blx	r3
		pxQueue->pcWriteTo += pxQueue->uxItemSize;
  401060:	68a3      	ldr	r3, [r4, #8]
  401062:	6c21      	ldr	r1, [r4, #64]	; 0x40
		if( pxQueue->pcWriteTo >= pxQueue->pcTail ) /*lint !e946 MISRA exception justified as comparison of pointers is the cleanest solution. */
  401064:	6862      	ldr	r2, [r4, #4]
		pxQueue->pcWriteTo += pxQueue->uxItemSize;
  401066:	440b      	add	r3, r1
		if( pxQueue->pcWriteTo >= pxQueue->pcTail ) /*lint !e946 MISRA exception justified as comparison of pointers is the cleanest solution. */
  401068:	4293      	cmp	r3, r2
		pxQueue->pcWriteTo += pxQueue->uxItemSize;
  40106a:	60a3      	str	r3, [r4, #8]
		if( pxQueue->pcWriteTo >= pxQueue->pcTail ) /*lint !e946 MISRA exception justified as comparison of pointers is the cleanest solution. */
  40106c:	d3ed      	bcc.n	40104a <prvCopyDataToQueue+0xe>
		{
			pxQueue->pcWriteTo = pxQueue->pcHead;
  40106e:	6823      	ldr	r3, [r4, #0]
BaseType_t xReturn = pdFALSE;
  401070:	4628      	mov	r0, r5
			pxQueue->pcWriteTo = pxQueue->pcHead;
  401072:	60a3      	str	r3, [r4, #8]
  401074:	e015      	b.n	4010a2 <prvCopyDataToQueue+0x66>
			mtCOVERAGE_TEST_MARKER();
		}
	}
	else
	{
		( void ) memcpy( ( void * ) pxQueue->u.pcReadFrom, pvItemToQueue, ( size_t ) pxQueue->uxItemSize ); /*lint !e961 MISRA exception as the casts are only redundant for some ports. */
  401076:	68c0      	ldr	r0, [r0, #12]
  401078:	4798      	blx	r3
		pxQueue->u.pcReadFrom -= pxQueue->uxItemSize;
  40107a:	6c23      	ldr	r3, [r4, #64]	; 0x40
  40107c:	68e2      	ldr	r2, [r4, #12]
  40107e:	425b      	negs	r3, r3
		if( pxQueue->u.pcReadFrom < pxQueue->pcHead ) /*lint !e946 MISRA exception justified as comparison of pointers is the cleanest solution. */
  401080:	6821      	ldr	r1, [r4, #0]
		pxQueue->u.pcReadFrom -= pxQueue->uxItemSize;
  401082:	441a      	add	r2, r3
		if( pxQueue->u.pcReadFrom < pxQueue->pcHead ) /*lint !e946 MISRA exception justified as comparison of pointers is the cleanest solution. */
  401084:	428a      	cmp	r2, r1
		pxQueue->u.pcReadFrom -= pxQueue->uxItemSize;
  401086:	60e2      	str	r2, [r4, #12]
		if( pxQueue->u.pcReadFrom < pxQueue->pcHead ) /*lint !e946 MISRA exception justified as comparison of pointers is the cleanest solution. */
  401088:	d202      	bcs.n	401090 <prvCopyDataToQueue+0x54>
		{
			pxQueue->u.pcReadFrom = ( pxQueue->pcTail - pxQueue->uxItemSize );
  40108a:	6862      	ldr	r2, [r4, #4]
  40108c:	4413      	add	r3, r2
  40108e:	60e3      	str	r3, [r4, #12]
		else
		{
			mtCOVERAGE_TEST_MARKER();
		}

		if( xPosition == queueOVERWRITE )
  401090:	2d02      	cmp	r5, #2
  401092:	d1da      	bne.n	40104a <prvCopyDataToQueue+0xe>
		{
			if( pxQueue->uxMessagesWaiting > ( UBaseType_t ) 0 )
  401094:	6ba3      	ldr	r3, [r4, #56]	; 0x38
  401096:	2b00      	cmp	r3, #0
  401098:	d0d7      	beq.n	40104a <prvCopyDataToQueue+0xe>
			{
				/* An item is not being added but overwritten, so subtract
				one from the recorded number of items in the queue so when
				one is added again below the number of recorded items remains
				correct. */
				--( pxQueue->uxMessagesWaiting );
  40109a:	6ba3      	ldr	r3, [r4, #56]	; 0x38
BaseType_t xReturn = pdFALSE;
  40109c:	2000      	movs	r0, #0
				--( pxQueue->uxMessagesWaiting );
  40109e:	3b01      	subs	r3, #1
  4010a0:	63a3      	str	r3, [r4, #56]	; 0x38
		{
			mtCOVERAGE_TEST_MARKER();
		}
	}

	++( pxQueue->uxMessagesWaiting );
  4010a2:	6ba3      	ldr	r3, [r4, #56]	; 0x38
  4010a4:	3301      	adds	r3, #1
  4010a6:	63a3      	str	r3, [r4, #56]	; 0x38

	return xReturn;
}
  4010a8:	bd38      	pop	{r3, r4, r5, pc}
  4010aa:	bf00      	nop
  4010ac:	00402389 	.word	0x00402389
  4010b0:	00403425 	.word	0x00403425

004010b4 <prvNotifyQueueSetContainer>:
/*-----------------------------------------------------------*/

#if ( configUSE_QUEUE_SETS == 1 )

	static BaseType_t prvNotifyQueueSetContainer( const Queue_t * const pxQueue, const BaseType_t xCopyPosition )
	{
  4010b4:	b530      	push	{r4, r5, lr}
  4010b6:	b083      	sub	sp, #12
	Queue_t *pxQueueSetContainer = pxQueue->pxQueueSetContainer;
  4010b8:	6d44      	ldr	r4, [r0, #84]	; 0x54
	{
  4010ba:	9001      	str	r0, [sp, #4]
	BaseType_t xReturn = pdFALSE;

		/* This function must be called form a critical section. */

		configASSERT( pxQueueSetContainer );
  4010bc:	b1ac      	cbz	r4, 4010ea <prvNotifyQueueSetContainer+0x36>
		configASSERT( pxQueueSetContainer->uxMessagesWaiting < pxQueueSetContainer->uxLength );
  4010be:	6ba2      	ldr	r2, [r4, #56]	; 0x38
  4010c0:	6be3      	ldr	r3, [r4, #60]	; 0x3c
  4010c2:	429a      	cmp	r2, r3
  4010c4:	d30a      	bcc.n	4010dc <prvNotifyQueueSetContainer+0x28>
  4010c6:	f04f 0380 	mov.w	r3, #128	; 0x80
  4010ca:	b672      	cpsid	i
  4010cc:	f383 8811 	msr	BASEPRI, r3
  4010d0:	f3bf 8f6f 	isb	sy
  4010d4:	f3bf 8f4f 	dsb	sy
  4010d8:	b662      	cpsie	i
  4010da:	e7fe      	b.n	4010da <prvNotifyQueueSetContainer+0x26>

		if( pxQueueSetContainer->uxMessagesWaiting < pxQueueSetContainer->uxLength )
  4010dc:	6ba2      	ldr	r2, [r4, #56]	; 0x38
  4010de:	4293      	cmp	r3, r2
  4010e0:	d80e      	bhi.n	401100 <prvNotifyQueueSetContainer+0x4c>
	BaseType_t xReturn = pdFALSE;
  4010e2:	2500      	movs	r5, #0
		{
			mtCOVERAGE_TEST_MARKER();
		}

		return xReturn;
	}
  4010e4:	4628      	mov	r0, r5
  4010e6:	b003      	add	sp, #12
  4010e8:	bd30      	pop	{r4, r5, pc}
  4010ea:	f04f 0380 	mov.w	r3, #128	; 0x80
  4010ee:	b672      	cpsid	i
  4010f0:	f383 8811 	msr	BASEPRI, r3
  4010f4:	f3bf 8f6f 	isb	sy
  4010f8:	f3bf 8f4f 	dsb	sy
  4010fc:	b662      	cpsie	i
  4010fe:	e7fe      	b.n	4010fe <prvNotifyQueueSetContainer+0x4a>
  401100:	460a      	mov	r2, r1
			xReturn = prvCopyDataToQueue( pxQueueSetContainer, &pxQueue, xCopyPosition );
  401102:	4b0d      	ldr	r3, [pc, #52]	; (401138 <prvNotifyQueueSetContainer+0x84>)
  401104:	a901      	add	r1, sp, #4
  401106:	4620      	mov	r0, r4
  401108:	4798      	blx	r3
			if( pxQueueSetContainer->xTxLock == queueUNLOCKED )
  40110a:	6ca3      	ldr	r3, [r4, #72]	; 0x48
			xReturn = prvCopyDataToQueue( pxQueueSetContainer, &pxQueue, xCopyPosition );
  40110c:	4605      	mov	r5, r0
			if( pxQueueSetContainer->xTxLock == queueUNLOCKED )
  40110e:	3301      	adds	r3, #1
  401110:	d005      	beq.n	40111e <prvNotifyQueueSetContainer+0x6a>
				( pxQueueSetContainer->xTxLock )++;
  401112:	6ca3      	ldr	r3, [r4, #72]	; 0x48
	}
  401114:	4628      	mov	r0, r5
				( pxQueueSetContainer->xTxLock )++;
  401116:	3301      	adds	r3, #1
  401118:	64a3      	str	r3, [r4, #72]	; 0x48
	}
  40111a:	b003      	add	sp, #12
  40111c:	bd30      	pop	{r4, r5, pc}
				if( listLIST_IS_EMPTY( &( pxQueueSetContainer->xTasksWaitingToReceive ) ) == pdFALSE )
  40111e:	6a63      	ldr	r3, [r4, #36]	; 0x24
  401120:	2b00      	cmp	r3, #0
  401122:	d0df      	beq.n	4010e4 <prvNotifyQueueSetContainer+0x30>
					if( xTaskRemoveFromEventList( &( pxQueueSetContainer->xTasksWaitingToReceive ) ) != pdFALSE )
  401124:	f104 0024 	add.w	r0, r4, #36	; 0x24
  401128:	4b04      	ldr	r3, [pc, #16]	; (40113c <prvNotifyQueueSetContainer+0x88>)
  40112a:	4798      	blx	r3
						xReturn = pdTRUE;
  40112c:	2800      	cmp	r0, #0
  40112e:	bf18      	it	ne
  401130:	2501      	movne	r5, #1
	}
  401132:	4628      	mov	r0, r5
  401134:	b003      	add	sp, #12
  401136:	bd30      	pop	{r4, r5, pc}
  401138:	0040103d 	.word	0x0040103d
  40113c:	00402165 	.word	0x00402165

00401140 <prvCopyDataFromQueue>:
	if( pxQueue->uxItemSize != ( UBaseType_t ) 0 )
  401140:	6c02      	ldr	r2, [r0, #64]	; 0x40
{
  401142:	4603      	mov	r3, r0
	if( pxQueue->uxItemSize != ( UBaseType_t ) 0 )
  401144:	b172      	cbz	r2, 401164 <prvCopyDataFromQueue+0x24>
  401146:	4608      	mov	r0, r1
{
  401148:	b410      	push	{r4}
		pxQueue->u.pcReadFrom += pxQueue->uxItemSize;
  40114a:	68d9      	ldr	r1, [r3, #12]
		if( pxQueue->u.pcReadFrom >= pxQueue->pcTail ) /*lint !e946 MISRA exception justified as use of the relational operator is the cleanest solutions. */
  40114c:	685c      	ldr	r4, [r3, #4]
		pxQueue->u.pcReadFrom += pxQueue->uxItemSize;
  40114e:	4411      	add	r1, r2
		if( pxQueue->u.pcReadFrom >= pxQueue->pcTail ) /*lint !e946 MISRA exception justified as use of the relational operator is the cleanest solutions. */
  401150:	42a1      	cmp	r1, r4
		pxQueue->u.pcReadFrom += pxQueue->uxItemSize;
  401152:	60d9      	str	r1, [r3, #12]
		if( pxQueue->u.pcReadFrom >= pxQueue->pcTail ) /*lint !e946 MISRA exception justified as use of the relational operator is the cleanest solutions. */
  401154:	d301      	bcc.n	40115a <prvCopyDataFromQueue+0x1a>
			pxQueue->u.pcReadFrom = pxQueue->pcHead;
  401156:	6819      	ldr	r1, [r3, #0]
  401158:	60d9      	str	r1, [r3, #12]
		( void ) memcpy( ( void * ) pvBuffer, ( void * ) pxQueue->u.pcReadFrom, ( size_t ) pxQueue->uxItemSize ); /*lint !e961 !e418 MISRA exception as the casts are only redundant for some ports.  Also previous logic ensures a null pointer can only be passed to memcpy() when the count is 0. */
  40115a:	68d9      	ldr	r1, [r3, #12]
}
  40115c:	f85d 4b04 	ldr.w	r4, [sp], #4
		( void ) memcpy( ( void * ) pvBuffer, ( void * ) pxQueue->u.pcReadFrom, ( size_t ) pxQueue->uxItemSize ); /*lint !e961 !e418 MISRA exception as the casts are only redundant for some ports.  Also previous logic ensures a null pointer can only be passed to memcpy() when the count is 0. */
  401160:	4b01      	ldr	r3, [pc, #4]	; (401168 <prvCopyDataFromQueue+0x28>)
  401162:	4718      	bx	r3
  401164:	4770      	bx	lr
  401166:	bf00      	nop
  401168:	00403425 	.word	0x00403425

0040116c <prvUnlockQueue>:
{
  40116c:	e92d 41f0 	stmdb	sp!, {r4, r5, r6, r7, r8, lr}
  401170:	4604      	mov	r4, r0
	taskENTER_CRITICAL();
  401172:	f8df 809c 	ldr.w	r8, [pc, #156]	; 401210 <prvUnlockQueue+0xa4>
  401176:	47c0      	blx	r8
		while( pxQueue->xTxLock > queueLOCKED_UNMODIFIED )
  401178:	6ca3      	ldr	r3, [r4, #72]	; 0x48
  40117a:	2b00      	cmp	r3, #0
  40117c:	dd1a      	ble.n	4011b4 <prvUnlockQueue+0x48>
					if( prvNotifyQueueSetContainer( pxQueue, queueSEND_TO_BACK ) == pdTRUE )
  40117e:	4d20      	ldr	r5, [pc, #128]	; (401200 <prvUnlockQueue+0x94>)
						vTaskMissedYield();
  401180:	4f20      	ldr	r7, [pc, #128]	; (401204 <prvUnlockQueue+0x98>)
						if( xTaskRemoveFromEventList( &( pxQueue->xTasksWaitingToReceive ) ) != pdFALSE )
  401182:	4e21      	ldr	r6, [pc, #132]	; (401208 <prvUnlockQueue+0x9c>)
  401184:	e008      	b.n	401198 <prvUnlockQueue+0x2c>
					if( prvNotifyQueueSetContainer( pxQueue, queueSEND_TO_BACK ) == pdTRUE )
  401186:	47a8      	blx	r5
  401188:	2801      	cmp	r0, #1
  40118a:	d011      	beq.n	4011b0 <prvUnlockQueue+0x44>
			--( pxQueue->xTxLock );
  40118c:	6ca3      	ldr	r3, [r4, #72]	; 0x48
  40118e:	3b01      	subs	r3, #1
  401190:	64a3      	str	r3, [r4, #72]	; 0x48
		while( pxQueue->xTxLock > queueLOCKED_UNMODIFIED )
  401192:	6ca3      	ldr	r3, [r4, #72]	; 0x48
  401194:	2b00      	cmp	r3, #0
  401196:	dd0d      	ble.n	4011b4 <prvUnlockQueue+0x48>
				if( pxQueue->pxQueueSetContainer != NULL )
  401198:	6d63      	ldr	r3, [r4, #84]	; 0x54
					if( prvNotifyQueueSetContainer( pxQueue, queueSEND_TO_BACK ) == pdTRUE )
  40119a:	2100      	movs	r1, #0
  40119c:	4620      	mov	r0, r4
				if( pxQueue->pxQueueSetContainer != NULL )
  40119e:	2b00      	cmp	r3, #0
  4011a0:	d1f1      	bne.n	401186 <prvUnlockQueue+0x1a>
					if( listLIST_IS_EMPTY( &( pxQueue->xTasksWaitingToReceive ) ) == pdFALSE )
  4011a2:	6a63      	ldr	r3, [r4, #36]	; 0x24
						if( xTaskRemoveFromEventList( &( pxQueue->xTasksWaitingToReceive ) ) != pdFALSE )
  4011a4:	f104 0024 	add.w	r0, r4, #36	; 0x24
					if( listLIST_IS_EMPTY( &( pxQueue->xTasksWaitingToReceive ) ) == pdFALSE )
  4011a8:	b123      	cbz	r3, 4011b4 <prvUnlockQueue+0x48>
						if( xTaskRemoveFromEventList( &( pxQueue->xTasksWaitingToReceive ) ) != pdFALSE )
  4011aa:	47b0      	blx	r6
  4011ac:	2800      	cmp	r0, #0
  4011ae:	d0ed      	beq.n	40118c <prvUnlockQueue+0x20>
						vTaskMissedYield();
  4011b0:	47b8      	blx	r7
  4011b2:	e7eb      	b.n	40118c <prvUnlockQueue+0x20>
		pxQueue->xTxLock = queueUNLOCKED;
  4011b4:	f04f 33ff 	mov.w	r3, #4294967295
	taskEXIT_CRITICAL();
  4011b8:	4f14      	ldr	r7, [pc, #80]	; (40120c <prvUnlockQueue+0xa0>)
		pxQueue->xTxLock = queueUNLOCKED;
  4011ba:	64a3      	str	r3, [r4, #72]	; 0x48
	taskEXIT_CRITICAL();
  4011bc:	47b8      	blx	r7
	taskENTER_CRITICAL();
  4011be:	47c0      	blx	r8
		while( pxQueue->xRxLock > queueLOCKED_UNMODIFIED )
  4011c0:	6c63      	ldr	r3, [r4, #68]	; 0x44
  4011c2:	2b00      	cmp	r3, #0
  4011c4:	dd15      	ble.n	4011f2 <prvUnlockQueue+0x86>
			if( listLIST_IS_EMPTY( &( pxQueue->xTasksWaitingToSend ) ) == pdFALSE )
  4011c6:	6923      	ldr	r3, [r4, #16]
  4011c8:	b19b      	cbz	r3, 4011f2 <prvUnlockQueue+0x86>
  4011ca:	f104 0610 	add.w	r6, r4, #16
  4011ce:	4d0e      	ldr	r5, [pc, #56]	; (401208 <prvUnlockQueue+0x9c>)
					vTaskMissedYield();
  4011d0:	f8df 8030 	ldr.w	r8, [pc, #48]	; 401204 <prvUnlockQueue+0x98>
  4011d4:	e007      	b.n	4011e6 <prvUnlockQueue+0x7a>
				--( pxQueue->xRxLock );
  4011d6:	6c63      	ldr	r3, [r4, #68]	; 0x44
  4011d8:	3b01      	subs	r3, #1
  4011da:	6463      	str	r3, [r4, #68]	; 0x44
		while( pxQueue->xRxLock > queueLOCKED_UNMODIFIED )
  4011dc:	6c63      	ldr	r3, [r4, #68]	; 0x44
  4011de:	2b00      	cmp	r3, #0
  4011e0:	dd07      	ble.n	4011f2 <prvUnlockQueue+0x86>
			if( listLIST_IS_EMPTY( &( pxQueue->xTasksWaitingToSend ) ) == pdFALSE )
  4011e2:	6923      	ldr	r3, [r4, #16]
  4011e4:	b12b      	cbz	r3, 4011f2 <prvUnlockQueue+0x86>
				if( xTaskRemoveFromEventList( &( pxQueue->xTasksWaitingToSend ) ) != pdFALSE )
  4011e6:	4630      	mov	r0, r6
  4011e8:	47a8      	blx	r5
  4011ea:	2800      	cmp	r0, #0
  4011ec:	d0f3      	beq.n	4011d6 <prvUnlockQueue+0x6a>
					vTaskMissedYield();
  4011ee:	47c0      	blx	r8
  4011f0:	e7f1      	b.n	4011d6 <prvUnlockQueue+0x6a>
		pxQueue->xRxLock = queueUNLOCKED;
  4011f2:	f04f 33ff 	mov.w	r3, #4294967295
  4011f6:	6463      	str	r3, [r4, #68]	; 0x44
	taskEXIT_CRITICAL();
  4011f8:	463b      	mov	r3, r7
}
  4011fa:	e8bd 41f0 	ldmia.w	sp!, {r4, r5, r6, r7, r8, lr}
	taskEXIT_CRITICAL();
  4011fe:	4718      	bx	r3
  401200:	004010b5 	.word	0x004010b5
  401204:	004022b5 	.word	0x004022b5
  401208:	00402165 	.word	0x00402165
  40120c:	00400ddd 	.word	0x00400ddd
  401210:	00400d91 	.word	0x00400d91

00401214 <xQueueGenericCreate.part.1>:
  401214:	f04f 0380 	mov.w	r3, #128	; 0x80
  401218:	b672      	cpsid	i
  40121a:	f383 8811 	msr	BASEPRI, r3
  40121e:	f3bf 8f6f 	isb	sy
  401222:	f3bf 8f4f 	dsb	sy
  401226:	b662      	cpsie	i
  401228:	e7fe      	b.n	401228 <xQueueGenericCreate.part.1+0x14>
	...

0040122c <xQueueGenericReset>:
{
  40122c:	b570      	push	{r4, r5, r6, lr}
	configASSERT( pxQueue );
  40122e:	b1d8      	cbz	r0, 401268 <xQueueGenericReset+0x3c>
  401230:	4604      	mov	r4, r0
	taskENTER_CRITICAL();
  401232:	4b1d      	ldr	r3, [pc, #116]	; (4012a8 <xQueueGenericReset+0x7c>)
  401234:	460e      	mov	r6, r1
  401236:	4798      	blx	r3
		pxQueue->pcTail = pxQueue->pcHead + ( pxQueue->uxLength * pxQueue->uxItemSize );
  401238:	6c20      	ldr	r0, [r4, #64]	; 0x40
		pxQueue->xRxLock = queueUNLOCKED;
  40123a:	f04f 35ff 	mov.w	r5, #4294967295
		pxQueue->pcTail = pxQueue->pcHead + ( pxQueue->uxLength * pxQueue->uxItemSize );
  40123e:	6be3      	ldr	r3, [r4, #60]	; 0x3c
		pxQueue->uxMessagesWaiting = ( UBaseType_t ) 0U;
  401240:	2100      	movs	r1, #0
		pxQueue->pcTail = pxQueue->pcHead + ( pxQueue->uxLength * pxQueue->uxItemSize );
  401242:	6822      	ldr	r2, [r4, #0]
  401244:	fb03 f300 	mul.w	r3, r3, r0
		pxQueue->pcWriteTo = pxQueue->pcHead;
  401248:	60a2      	str	r2, [r4, #8]
		pxQueue->u.pcReadFrom = pxQueue->pcHead + ( ( pxQueue->uxLength - ( UBaseType_t ) 1U ) * pxQueue->uxItemSize );
  40124a:	1a18      	subs	r0, r3, r0
		pxQueue->pcTail = pxQueue->pcHead + ( pxQueue->uxLength * pxQueue->uxItemSize );
  40124c:	4413      	add	r3, r2
		pxQueue->uxMessagesWaiting = ( UBaseType_t ) 0U;
  40124e:	63a1      	str	r1, [r4, #56]	; 0x38
		pxQueue->u.pcReadFrom = pxQueue->pcHead + ( ( pxQueue->uxLength - ( UBaseType_t ) 1U ) * pxQueue->uxItemSize );
  401250:	4402      	add	r2, r0
		pxQueue->xRxLock = queueUNLOCKED;
  401252:	6465      	str	r5, [r4, #68]	; 0x44
		pxQueue->pcTail = pxQueue->pcHead + ( pxQueue->uxLength * pxQueue->uxItemSize );
  401254:	6063      	str	r3, [r4, #4]
		pxQueue->u.pcReadFrom = pxQueue->pcHead + ( ( pxQueue->uxLength - ( UBaseType_t ) 1U ) * pxQueue->uxItemSize );
  401256:	60e2      	str	r2, [r4, #12]
		pxQueue->xTxLock = queueUNLOCKED;
  401258:	64a5      	str	r5, [r4, #72]	; 0x48
		if( xNewQueue == pdFALSE )
  40125a:	b9ce      	cbnz	r6, 401290 <xQueueGenericReset+0x64>
			if( listLIST_IS_EMPTY( &( pxQueue->xTasksWaitingToSend ) ) == pdFALSE )
  40125c:	6923      	ldr	r3, [r4, #16]
  40125e:	b92b      	cbnz	r3, 40126c <xQueueGenericReset+0x40>
	taskEXIT_CRITICAL();
  401260:	4b12      	ldr	r3, [pc, #72]	; (4012ac <xQueueGenericReset+0x80>)
  401262:	4798      	blx	r3
}
  401264:	2001      	movs	r0, #1
  401266:	bd70      	pop	{r4, r5, r6, pc}
  401268:	4b11      	ldr	r3, [pc, #68]	; (4012b0 <xQueueGenericReset+0x84>)
  40126a:	4798      	blx	r3
				if( xTaskRemoveFromEventList( &( pxQueue->xTasksWaitingToSend ) ) == pdTRUE )
  40126c:	f104 0010 	add.w	r0, r4, #16
  401270:	4b10      	ldr	r3, [pc, #64]	; (4012b4 <xQueueGenericReset+0x88>)
  401272:	4798      	blx	r3
  401274:	2801      	cmp	r0, #1
  401276:	d1f3      	bne.n	401260 <xQueueGenericReset+0x34>
					queueYIELD_IF_USING_PREEMPTION();
  401278:	4b0f      	ldr	r3, [pc, #60]	; (4012b8 <xQueueGenericReset+0x8c>)
  40127a:	f04f 5280 	mov.w	r2, #268435456	; 0x10000000
  40127e:	601a      	str	r2, [r3, #0]
  401280:	f3bf 8f4f 	dsb	sy
  401284:	f3bf 8f6f 	isb	sy
	taskEXIT_CRITICAL();
  401288:	4b08      	ldr	r3, [pc, #32]	; (4012ac <xQueueGenericReset+0x80>)
  40128a:	4798      	blx	r3
}
  40128c:	2001      	movs	r0, #1
  40128e:	bd70      	pop	{r4, r5, r6, pc}
			vListInitialise( &( pxQueue->xTasksWaitingToSend ) );
  401290:	f104 0010 	add.w	r0, r4, #16
  401294:	4d09      	ldr	r5, [pc, #36]	; (4012bc <xQueueGenericReset+0x90>)
  401296:	47a8      	blx	r5
			vListInitialise( &( pxQueue->xTasksWaitingToReceive ) );
  401298:	f104 0024 	add.w	r0, r4, #36	; 0x24
  40129c:	47a8      	blx	r5
	taskEXIT_CRITICAL();
  40129e:	4b03      	ldr	r3, [pc, #12]	; (4012ac <xQueueGenericReset+0x80>)
  4012a0:	4798      	blx	r3
}
  4012a2:	2001      	movs	r0, #1
  4012a4:	bd70      	pop	{r4, r5, r6, pc}
  4012a6:	bf00      	nop
  4012a8:	00400d91 	.word	0x00400d91
  4012ac:	00400ddd 	.word	0x00400ddd
  4012b0:	00401215 	.word	0x00401215
  4012b4:	00402165 	.word	0x00402165
  4012b8:	e000ed04 	.word	0xe000ed04
  4012bc:	00400c41 	.word	0x00400c41

004012c0 <xQueueGenericCreate>:
{
  4012c0:	b5f8      	push	{r3, r4, r5, r6, r7, lr}
	configASSERT( uxQueueLength > ( UBaseType_t ) 0 );
  4012c2:	b950      	cbnz	r0, 4012da <xQueueGenericCreate+0x1a>
  4012c4:	f04f 0380 	mov.w	r3, #128	; 0x80
  4012c8:	b672      	cpsid	i
  4012ca:	f383 8811 	msr	BASEPRI, r3
  4012ce:	f3bf 8f6f 	isb	sy
  4012d2:	f3bf 8f4f 	dsb	sy
  4012d6:	b662      	cpsie	i
  4012d8:	e7fe      	b.n	4012d8 <xQueueGenericCreate+0x18>
  4012da:	4606      	mov	r6, r0
  4012dc:	4617      	mov	r7, r2
  4012de:	460d      	mov	r5, r1
	if( uxItemSize == ( UBaseType_t ) 0 )
  4012e0:	b1a9      	cbz	r1, 40130e <xQueueGenericCreate+0x4e>
		xQueueSizeInBytes = ( size_t ) ( uxQueueLength * uxItemSize ) + ( size_t ) 1; /*lint !e961 MISRA exception as the casts are only redundant for some ports. */
  4012e2:	fb01 f000 	mul.w	r0, r1, r0
	pxNewQueue = ( Queue_t * ) pvPortMalloc( sizeof( Queue_t ) + xQueueSizeInBytes );
  4012e6:	4b0e      	ldr	r3, [pc, #56]	; (401320 <xQueueGenericCreate+0x60>)
  4012e8:	3059      	adds	r0, #89	; 0x59
  4012ea:	4798      	blx	r3
	if( pxNewQueue != NULL )
  4012ec:	4604      	mov	r4, r0
  4012ee:	b1a8      	cbz	r0, 40131c <xQueueGenericCreate+0x5c>
			pxNewQueue->pcHead = ( ( int8_t * ) pxNewQueue ) + sizeof( Queue_t );
  4012f0:	f100 0358 	add.w	r3, r0, #88	; 0x58
  4012f4:	6003      	str	r3, [r0, #0]
		pxNewQueue->uxLength = uxQueueLength;
  4012f6:	63e6      	str	r6, [r4, #60]	; 0x3c
		( void ) xQueueGenericReset( pxNewQueue, pdTRUE );
  4012f8:	2101      	movs	r1, #1
		pxNewQueue->uxItemSize = uxItemSize;
  4012fa:	6425      	str	r5, [r4, #64]	; 0x40
		( void ) xQueueGenericReset( pxNewQueue, pdTRUE );
  4012fc:	4620      	mov	r0, r4
  4012fe:	4b09      	ldr	r3, [pc, #36]	; (401324 <xQueueGenericCreate+0x64>)
  401300:	4798      	blx	r3
			pxNewQueue->pxQueueSetContainer = NULL;
  401302:	2300      	movs	r3, #0
			pxNewQueue->ucQueueType = ucQueueType;
  401304:	f884 7050 	strb.w	r7, [r4, #80]	; 0x50
}
  401308:	4620      	mov	r0, r4
			pxNewQueue->pxQueueSetContainer = NULL;
  40130a:	6563      	str	r3, [r4, #84]	; 0x54
}
  40130c:	bdf8      	pop	{r3, r4, r5, r6, r7, pc}
	pxNewQueue = ( Queue_t * ) pvPortMalloc( sizeof( Queue_t ) + xQueueSizeInBytes );
  40130e:	2058      	movs	r0, #88	; 0x58
  401310:	4b03      	ldr	r3, [pc, #12]	; (401320 <xQueueGenericCreate+0x60>)
  401312:	4798      	blx	r3
	if( pxNewQueue != NULL )
  401314:	4604      	mov	r4, r0
  401316:	b108      	cbz	r0, 40131c <xQueueGenericCreate+0x5c>
			pxNewQueue->pcHead = ( int8_t * ) pxNewQueue;
  401318:	6024      	str	r4, [r4, #0]
  40131a:	e7ec      	b.n	4012f6 <xQueueGenericCreate+0x36>
  40131c:	4b02      	ldr	r3, [pc, #8]	; (401328 <xQueueGenericCreate+0x68>)
  40131e:	4798      	blx	r3
  401320:	00400fe1 	.word	0x00400fe1
  401324:	0040122d 	.word	0x0040122d
  401328:	00401215 	.word	0x00401215

0040132c <xQueueGenericSend>:
{
  40132c:	e92d 4ff0 	stmdb	sp!, {r4, r5, r6, r7, r8, r9, sl, fp, lr}
  401330:	b085      	sub	sp, #20
  401332:	9201      	str	r2, [sp, #4]
	configASSERT( pxQueue );
  401334:	2800      	cmp	r0, #0
  401336:	f000 80b7 	beq.w	4014a8 <xQueueGenericSend+0x17c>
	configASSERT( !( ( pvItemToQueue == NULL ) && ( pxQueue->uxItemSize != ( UBaseType_t ) 0U ) ) );
  40133a:	2900      	cmp	r1, #0
  40133c:	f000 809e 	beq.w	40147c <xQueueGenericSend+0x150>
	configASSERT( !( ( xCopyPosition == queueOVERWRITE ) && ( pxQueue->uxLength != 1 ) ) );
  401340:	2b02      	cmp	r3, #2
  401342:	f000 808c 	beq.w	40145e <xQueueGenericSend+0x132>
  401346:	461e      	mov	r6, r3
		configASSERT( !( ( xTaskGetSchedulerState() == taskSCHEDULER_SUSPENDED ) && ( xTicksToWait != 0 ) ) );
  401348:	4b63      	ldr	r3, [pc, #396]	; (4014d8 <xQueueGenericSend+0x1ac>)
  40134a:	4604      	mov	r4, r0
  40134c:	4688      	mov	r8, r1
  40134e:	4798      	blx	r3
  401350:	b910      	cbnz	r0, 401358 <xQueueGenericSend+0x2c>
  401352:	9b01      	ldr	r3, [sp, #4]
  401354:	2b00      	cmp	r3, #0
  401356:	d16a      	bne.n	40142e <xQueueGenericSend+0x102>
  401358:	f1a6 0502 	sub.w	r5, r6, #2
{
  40135c:	f04f 0a00 	mov.w	sl, #0
  401360:	f8df 91a0 	ldr.w	r9, [pc, #416]	; 401504 <xQueueGenericSend+0x1d8>
  401364:	fab5 f585 	clz	r5, r5
  401368:	4f5c      	ldr	r7, [pc, #368]	; (4014dc <xQueueGenericSend+0x1b0>)
					vTaskSetTimeOutState( &xTimeOut );
  40136a:	f8df b19c 	ldr.w	fp, [pc, #412]	; 401508 <xQueueGenericSend+0x1dc>
  40136e:	096d      	lsrs	r5, r5, #5
  401370:	e022      	b.n	4013b8 <xQueueGenericSend+0x8c>
  401372:	f10d 0a08 	add.w	sl, sp, #8
		taskEXIT_CRITICAL();
  401376:	47b8      	blx	r7
		vTaskSuspendAll();
  401378:	4b59      	ldr	r3, [pc, #356]	; (4014e0 <xQueueGenericSend+0x1b4>)
  40137a:	4798      	blx	r3
		prvLockQueue( pxQueue );
  40137c:	47c8      	blx	r9
  40137e:	6c63      	ldr	r3, [r4, #68]	; 0x44
  401380:	3301      	adds	r3, #1
  401382:	f000 80a6 	beq.w	4014d2 <xQueueGenericSend+0x1a6>
  401386:	6ca3      	ldr	r3, [r4, #72]	; 0x48
  401388:	3301      	adds	r3, #1
  40138a:	f000 809f 	beq.w	4014cc <xQueueGenericSend+0x1a0>
  40138e:	47b8      	blx	r7
		if( xTaskCheckForTimeOut( &xTimeOut, &xTicksToWait ) == pdFALSE )
  401390:	4650      	mov	r0, sl
  401392:	a901      	add	r1, sp, #4
  401394:	4b53      	ldr	r3, [pc, #332]	; (4014e4 <xQueueGenericSend+0x1b8>)
  401396:	4798      	blx	r3
  401398:	2800      	cmp	r0, #0
  40139a:	f040 8090 	bne.w	4014be <xQueueGenericSend+0x192>
	taskENTER_CRITICAL();
  40139e:	47c8      	blx	r9
		if( pxQueue->uxMessagesWaiting == pxQueue->uxLength )
  4013a0:	6ba2      	ldr	r2, [r4, #56]	; 0x38
  4013a2:	6be3      	ldr	r3, [r4, #60]	; 0x3c
  4013a4:	429a      	cmp	r2, r3
  4013a6:	d017      	beq.n	4013d8 <xQueueGenericSend+0xac>
	taskEXIT_CRITICAL();
  4013a8:	47b8      	blx	r7
				prvUnlockQueue( pxQueue );
  4013aa:	4b4f      	ldr	r3, [pc, #316]	; (4014e8 <xQueueGenericSend+0x1bc>)
  4013ac:	4620      	mov	r0, r4
  4013ae:	4798      	blx	r3
				( void ) xTaskResumeAll();
  4013b0:	4b4e      	ldr	r3, [pc, #312]	; (4014ec <xQueueGenericSend+0x1c0>)
  4013b2:	4798      	blx	r3
  4013b4:	f04f 0a01 	mov.w	sl, #1
		taskENTER_CRITICAL();
  4013b8:	47c8      	blx	r9
			if( ( pxQueue->uxMessagesWaiting < pxQueue->uxLength ) || ( xCopyPosition == queueOVERWRITE ) )
  4013ba:	6ba2      	ldr	r2, [r4, #56]	; 0x38
  4013bc:	6be3      	ldr	r3, [r4, #60]	; 0x3c
  4013be:	429a      	cmp	r2, r3
  4013c0:	d325      	bcc.n	40140e <xQueueGenericSend+0xe2>
  4013c2:	bb25      	cbnz	r5, 40140e <xQueueGenericSend+0xe2>
				if( xTicksToWait == ( TickType_t ) 0 )
  4013c4:	9b01      	ldr	r3, [sp, #4]
  4013c6:	b1eb      	cbz	r3, 401404 <xQueueGenericSend+0xd8>
				else if( xEntryTimeSet == pdFALSE )
  4013c8:	f1ba 0f00 	cmp.w	sl, #0
  4013cc:	d1d1      	bne.n	401372 <xQueueGenericSend+0x46>
					vTaskSetTimeOutState( &xTimeOut );
  4013ce:	f10d 0a08 	add.w	sl, sp, #8
  4013d2:	4650      	mov	r0, sl
  4013d4:	47d8      	blx	fp
  4013d6:	e7ce      	b.n	401376 <xQueueGenericSend+0x4a>
	taskEXIT_CRITICAL();
  4013d8:	47b8      	blx	r7
				vTaskPlaceOnEventList( &( pxQueue->xTasksWaitingToSend ), xTicksToWait );
  4013da:	9901      	ldr	r1, [sp, #4]
  4013dc:	f104 0010 	add.w	r0, r4, #16
  4013e0:	4b43      	ldr	r3, [pc, #268]	; (4014f0 <xQueueGenericSend+0x1c4>)
  4013e2:	4798      	blx	r3
				prvUnlockQueue( pxQueue );
  4013e4:	4b40      	ldr	r3, [pc, #256]	; (4014e8 <xQueueGenericSend+0x1bc>)
  4013e6:	4620      	mov	r0, r4
  4013e8:	4798      	blx	r3
				if( xTaskResumeAll() == pdFALSE )
  4013ea:	4b40      	ldr	r3, [pc, #256]	; (4014ec <xQueueGenericSend+0x1c0>)
  4013ec:	4798      	blx	r3
  4013ee:	2800      	cmp	r0, #0
  4013f0:	d1e0      	bne.n	4013b4 <xQueueGenericSend+0x88>
					portYIELD_WITHIN_API();
  4013f2:	f04f 5380 	mov.w	r3, #268435456	; 0x10000000
  4013f6:	4a3f      	ldr	r2, [pc, #252]	; (4014f4 <xQueueGenericSend+0x1c8>)
  4013f8:	6013      	str	r3, [r2, #0]
  4013fa:	f3bf 8f4f 	dsb	sy
  4013fe:	f3bf 8f6f 	isb	sy
  401402:	e7d7      	b.n	4013b4 <xQueueGenericSend+0x88>
					taskEXIT_CRITICAL();
  401404:	47b8      	blx	r7
					return errQUEUE_FULL;
  401406:	4628      	mov	r0, r5
}
  401408:	b005      	add	sp, #20
  40140a:	e8bd 8ff0 	ldmia.w	sp!, {r4, r5, r6, r7, r8, r9, sl, fp, pc}
				xYieldRequired = prvCopyDataToQueue( pxQueue, pvItemToQueue, xCopyPosition );
  40140e:	4b3a      	ldr	r3, [pc, #232]	; (4014f8 <xQueueGenericSend+0x1cc>)
  401410:	4641      	mov	r1, r8
  401412:	4632      	mov	r2, r6
  401414:	4620      	mov	r0, r4
  401416:	4798      	blx	r3
					if( pxQueue->pxQueueSetContainer != NULL )
  401418:	6d63      	ldr	r3, [r4, #84]	; 0x54
  40141a:	b19b      	cbz	r3, 401444 <xQueueGenericSend+0x118>
						if( prvNotifyQueueSetContainer( pxQueue, xCopyPosition ) == pdTRUE )
  40141c:	4631      	mov	r1, r6
  40141e:	4620      	mov	r0, r4
  401420:	4b36      	ldr	r3, [pc, #216]	; (4014fc <xQueueGenericSend+0x1d0>)
  401422:	4798      	blx	r3
  401424:	2801      	cmp	r0, #1
  401426:	d011      	beq.n	40144c <xQueueGenericSend+0x120>
				taskEXIT_CRITICAL();
  401428:	47b8      	blx	r7
				return pdPASS;
  40142a:	2001      	movs	r0, #1
  40142c:	e7ec      	b.n	401408 <xQueueGenericSend+0xdc>
  40142e:	f04f 0380 	mov.w	r3, #128	; 0x80
  401432:	b672      	cpsid	i
  401434:	f383 8811 	msr	BASEPRI, r3
  401438:	f3bf 8f6f 	isb	sy
  40143c:	f3bf 8f4f 	dsb	sy
  401440:	b662      	cpsie	i
  401442:	e7fe      	b.n	401442 <xQueueGenericSend+0x116>
						if( listLIST_IS_EMPTY( &( pxQueue->xTasksWaitingToReceive ) ) == pdFALSE )
  401444:	6a63      	ldr	r3, [r4, #36]	; 0x24
  401446:	bb43      	cbnz	r3, 40149a <xQueueGenericSend+0x16e>
						else if( xYieldRequired != pdFALSE )
  401448:	2800      	cmp	r0, #0
  40144a:	d0ed      	beq.n	401428 <xQueueGenericSend+0xfc>
							queueYIELD_IF_USING_PREEMPTION();
  40144c:	4b29      	ldr	r3, [pc, #164]	; (4014f4 <xQueueGenericSend+0x1c8>)
  40144e:	f04f 5280 	mov.w	r2, #268435456	; 0x10000000
  401452:	601a      	str	r2, [r3, #0]
  401454:	f3bf 8f4f 	dsb	sy
  401458:	f3bf 8f6f 	isb	sy
  40145c:	e7e4      	b.n	401428 <xQueueGenericSend+0xfc>
	configASSERT( !( ( xCopyPosition == queueOVERWRITE ) && ( pxQueue->uxLength != 1 ) ) );
  40145e:	6bc2      	ldr	r2, [r0, #60]	; 0x3c
  401460:	2a01      	cmp	r2, #1
  401462:	f43f af70 	beq.w	401346 <xQueueGenericSend+0x1a>
  401466:	f04f 0380 	mov.w	r3, #128	; 0x80
  40146a:	b672      	cpsid	i
  40146c:	f383 8811 	msr	BASEPRI, r3
  401470:	f3bf 8f6f 	isb	sy
  401474:	f3bf 8f4f 	dsb	sy
  401478:	b662      	cpsie	i
  40147a:	e7fe      	b.n	40147a <xQueueGenericSend+0x14e>
	configASSERT( !( ( pvItemToQueue == NULL ) && ( pxQueue->uxItemSize != ( UBaseType_t ) 0U ) ) );
  40147c:	6c02      	ldr	r2, [r0, #64]	; 0x40
  40147e:	2a00      	cmp	r2, #0
  401480:	f43f af5e 	beq.w	401340 <xQueueGenericSend+0x14>
  401484:	f04f 0380 	mov.w	r3, #128	; 0x80
  401488:	b672      	cpsid	i
  40148a:	f383 8811 	msr	BASEPRI, r3
  40148e:	f3bf 8f6f 	isb	sy
  401492:	f3bf 8f4f 	dsb	sy
  401496:	b662      	cpsie	i
  401498:	e7fe      	b.n	401498 <xQueueGenericSend+0x16c>
							if( xTaskRemoveFromEventList( &( pxQueue->xTasksWaitingToReceive ) ) == pdTRUE )
  40149a:	f104 0024 	add.w	r0, r4, #36	; 0x24
  40149e:	4b18      	ldr	r3, [pc, #96]	; (401500 <xQueueGenericSend+0x1d4>)
  4014a0:	4798      	blx	r3
  4014a2:	2801      	cmp	r0, #1
  4014a4:	d1c0      	bne.n	401428 <xQueueGenericSend+0xfc>
  4014a6:	e7d1      	b.n	40144c <xQueueGenericSend+0x120>
  4014a8:	f04f 0380 	mov.w	r3, #128	; 0x80
  4014ac:	b672      	cpsid	i
  4014ae:	f383 8811 	msr	BASEPRI, r3
  4014b2:	f3bf 8f6f 	isb	sy
  4014b6:	f3bf 8f4f 	dsb	sy
  4014ba:	b662      	cpsie	i
  4014bc:	e7fe      	b.n	4014bc <xQueueGenericSend+0x190>
			prvUnlockQueue( pxQueue );
  4014be:	4620      	mov	r0, r4
  4014c0:	4b09      	ldr	r3, [pc, #36]	; (4014e8 <xQueueGenericSend+0x1bc>)
  4014c2:	4798      	blx	r3
			( void ) xTaskResumeAll();
  4014c4:	4b09      	ldr	r3, [pc, #36]	; (4014ec <xQueueGenericSend+0x1c0>)
  4014c6:	4798      	blx	r3
			return errQUEUE_FULL;
  4014c8:	2000      	movs	r0, #0
  4014ca:	e79d      	b.n	401408 <xQueueGenericSend+0xdc>
		prvLockQueue( pxQueue );
  4014cc:	2300      	movs	r3, #0
  4014ce:	64a3      	str	r3, [r4, #72]	; 0x48
  4014d0:	e75d      	b.n	40138e <xQueueGenericSend+0x62>
  4014d2:	2300      	movs	r3, #0
  4014d4:	6463      	str	r3, [r4, #68]	; 0x44
  4014d6:	e756      	b.n	401386 <xQueueGenericSend+0x5a>
  4014d8:	004022c1 	.word	0x004022c1
  4014dc:	00400ddd 	.word	0x00400ddd
  4014e0:	00401bc1 	.word	0x00401bc1
  4014e4:	0040221d 	.word	0x0040221d
  4014e8:	0040116d 	.word	0x0040116d
  4014ec:	00401d51 	.word	0x00401d51
  4014f0:	0040205d 	.word	0x0040205d
  4014f4:	e000ed04 	.word	0xe000ed04
  4014f8:	0040103d 	.word	0x0040103d
  4014fc:	004010b5 	.word	0x004010b5
  401500:	00402165 	.word	0x00402165
  401504:	00400d91 	.word	0x00400d91
  401508:	004021f9 	.word	0x004021f9

0040150c <xQueueGenericSendFromISR>:
	configASSERT( pxQueue );
  40150c:	b328      	cbz	r0, 40155a <xQueueGenericSendFromISR+0x4e>
{
  40150e:	e92d 41f0 	stmdb	sp!, {r4, r5, r6, r7, r8, lr}
	configASSERT( !( ( pvItemToQueue == NULL ) && ( pxQueue->uxItemSize != ( UBaseType_t ) 0U ) ) );
  401512:	2900      	cmp	r1, #0
  401514:	d047      	beq.n	4015a6 <xQueueGenericSendFromISR+0x9a>
	configASSERT( !( ( xCopyPosition == queueOVERWRITE ) && ( pxQueue->uxLength != 1 ) ) );
  401516:	2b02      	cmp	r3, #2
  401518:	d037      	beq.n	40158a <xQueueGenericSendFromISR+0x7e>
  40151a:	461d      	mov	r5, r3
	portASSERT_IF_INTERRUPT_PRIORITY_INVALID();
  40151c:	4b37      	ldr	r3, [pc, #220]	; (4015fc <xQueueGenericSendFromISR+0xf0>)
  40151e:	4604      	mov	r4, r0
  401520:	4690      	mov	r8, r2
  401522:	460e      	mov	r6, r1
  401524:	4798      	blx	r3
	__asm volatile
  401526:	f3ef 8711 	mrs	r7, BASEPRI
  40152a:	f04f 0380 	mov.w	r3, #128	; 0x80
  40152e:	b672      	cpsid	i
  401530:	f383 8811 	msr	BASEPRI, r3
  401534:	f3bf 8f6f 	isb	sy
  401538:	f3bf 8f4f 	dsb	sy
  40153c:	b662      	cpsie	i
		if( ( pxQueue->uxMessagesWaiting < pxQueue->uxLength ) || ( xCopyPosition == queueOVERWRITE ) )
  40153e:	6ba2      	ldr	r2, [r4, #56]	; 0x38
  401540:	6be3      	ldr	r3, [r4, #60]	; 0x3c
  401542:	429a      	cmp	r2, r3
  401544:	d314      	bcc.n	401570 <xQueueGenericSendFromISR+0x64>
  401546:	f1a5 0002 	sub.w	r0, r5, #2
  40154a:	fab0 f080 	clz	r0, r0
  40154e:	0940      	lsrs	r0, r0, #5
  401550:	b970      	cbnz	r0, 401570 <xQueueGenericSendFromISR+0x64>
	__asm volatile
  401552:	f387 8811 	msr	BASEPRI, r7
}
  401556:	e8bd 81f0 	ldmia.w	sp!, {r4, r5, r6, r7, r8, pc}
	__asm volatile
  40155a:	f04f 0380 	mov.w	r3, #128	; 0x80
  40155e:	b672      	cpsid	i
  401560:	f383 8811 	msr	BASEPRI, r3
  401564:	f3bf 8f6f 	isb	sy
  401568:	f3bf 8f4f 	dsb	sy
  40156c:	b662      	cpsie	i
  40156e:	e7fe      	b.n	40156e <xQueueGenericSendFromISR+0x62>
			( void ) prvCopyDataToQueue( pxQueue, pvItemToQueue, xCopyPosition );
  401570:	4b23      	ldr	r3, [pc, #140]	; (401600 <xQueueGenericSendFromISR+0xf4>)
  401572:	4631      	mov	r1, r6
  401574:	462a      	mov	r2, r5
  401576:	4620      	mov	r0, r4
  401578:	4798      	blx	r3
			if( pxQueue->xTxLock == queueUNLOCKED )
  40157a:	6ca3      	ldr	r3, [r4, #72]	; 0x48
  40157c:	3301      	adds	r3, #1
  40157e:	d020      	beq.n	4015c2 <xQueueGenericSendFromISR+0xb6>
				++( pxQueue->xTxLock );
  401580:	6ca3      	ldr	r3, [r4, #72]	; 0x48
			xReturn = pdPASS;
  401582:	2001      	movs	r0, #1
				++( pxQueue->xTxLock );
  401584:	4403      	add	r3, r0
  401586:	64a3      	str	r3, [r4, #72]	; 0x48
  401588:	e7e3      	b.n	401552 <xQueueGenericSendFromISR+0x46>
	configASSERT( !( ( xCopyPosition == queueOVERWRITE ) && ( pxQueue->uxLength != 1 ) ) );
  40158a:	6bc4      	ldr	r4, [r0, #60]	; 0x3c
  40158c:	2c01      	cmp	r4, #1
  40158e:	d0c4      	beq.n	40151a <xQueueGenericSendFromISR+0xe>
  401590:	f04f 0380 	mov.w	r3, #128	; 0x80
  401594:	b672      	cpsid	i
  401596:	f383 8811 	msr	BASEPRI, r3
  40159a:	f3bf 8f6f 	isb	sy
  40159e:	f3bf 8f4f 	dsb	sy
  4015a2:	b662      	cpsie	i
  4015a4:	e7fe      	b.n	4015a4 <xQueueGenericSendFromISR+0x98>
	configASSERT( !( ( pvItemToQueue == NULL ) && ( pxQueue->uxItemSize != ( UBaseType_t ) 0U ) ) );
  4015a6:	6c04      	ldr	r4, [r0, #64]	; 0x40
  4015a8:	2c00      	cmp	r4, #0
  4015aa:	d0b4      	beq.n	401516 <xQueueGenericSendFromISR+0xa>
  4015ac:	f04f 0380 	mov.w	r3, #128	; 0x80
  4015b0:	b672      	cpsid	i
  4015b2:	f383 8811 	msr	BASEPRI, r3
  4015b6:	f3bf 8f6f 	isb	sy
  4015ba:	f3bf 8f4f 	dsb	sy
  4015be:	b662      	cpsie	i
  4015c0:	e7fe      	b.n	4015c0 <xQueueGenericSendFromISR+0xb4>
					if( pxQueue->pxQueueSetContainer != NULL )
  4015c2:	6d63      	ldr	r3, [r4, #84]	; 0x54
  4015c4:	b163      	cbz	r3, 4015e0 <xQueueGenericSendFromISR+0xd4>
						if( prvNotifyQueueSetContainer( pxQueue, xCopyPosition ) == pdTRUE )
  4015c6:	4629      	mov	r1, r5
  4015c8:	4620      	mov	r0, r4
  4015ca:	4b0e      	ldr	r3, [pc, #56]	; (401604 <xQueueGenericSendFromISR+0xf8>)
  4015cc:	4798      	blx	r3
							if( pxHigherPriorityTaskWoken != NULL )
  4015ce:	2801      	cmp	r0, #1
  4015d0:	d108      	bne.n	4015e4 <xQueueGenericSendFromISR+0xd8>
  4015d2:	f1b8 0f00 	cmp.w	r8, #0
  4015d6:	d005      	beq.n	4015e4 <xQueueGenericSendFromISR+0xd8>
								*pxHigherPriorityTaskWoken = pdTRUE;
  4015d8:	2001      	movs	r0, #1
  4015da:	f8c8 0000 	str.w	r0, [r8]
  4015de:	e7b8      	b.n	401552 <xQueueGenericSendFromISR+0x46>
						if( listLIST_IS_EMPTY( &( pxQueue->xTasksWaitingToReceive ) ) == pdFALSE )
  4015e0:	6a63      	ldr	r3, [r4, #36]	; 0x24
  4015e2:	b90b      	cbnz	r3, 4015e8 <xQueueGenericSendFromISR+0xdc>
			xReturn = pdPASS;
  4015e4:	2001      	movs	r0, #1
  4015e6:	e7b4      	b.n	401552 <xQueueGenericSendFromISR+0x46>
							if( xTaskRemoveFromEventList( &( pxQueue->xTasksWaitingToReceive ) ) != pdFALSE )
  4015e8:	f104 0024 	add.w	r0, r4, #36	; 0x24
  4015ec:	4b06      	ldr	r3, [pc, #24]	; (401608 <xQueueGenericSendFromISR+0xfc>)
  4015ee:	4798      	blx	r3
								if( pxHigherPriorityTaskWoken != NULL )
  4015f0:	f1b8 0f00 	cmp.w	r8, #0
  4015f4:	d0f6      	beq.n	4015e4 <xQueueGenericSendFromISR+0xd8>
  4015f6:	2800      	cmp	r0, #0
  4015f8:	d1ee      	bne.n	4015d8 <xQueueGenericSendFromISR+0xcc>
  4015fa:	e7f3      	b.n	4015e4 <xQueueGenericSendFromISR+0xd8>
  4015fc:	00400f7d 	.word	0x00400f7d
  401600:	0040103d 	.word	0x0040103d
  401604:	004010b5 	.word	0x004010b5
  401608:	00402165 	.word	0x00402165

0040160c <xQueueGenericReceive>:
{
  40160c:	e92d 4ff0 	stmdb	sp!, {r4, r5, r6, r7, r8, r9, sl, fp, lr}
  401610:	b087      	sub	sp, #28
  401612:	9203      	str	r2, [sp, #12]
	configASSERT( pxQueue );
  401614:	2800      	cmp	r0, #0
  401616:	d066      	beq.n	4016e6 <xQueueGenericReceive+0xda>
	configASSERT( !( ( pvBuffer == NULL ) && ( pxQueue->uxItemSize != ( UBaseType_t ) 0U ) ) );
  401618:	2900      	cmp	r1, #0
  40161a:	f000 80af 	beq.w	40177c <xQueueGenericReceive+0x170>
  40161e:	9301      	str	r3, [sp, #4]
  401620:	4604      	mov	r4, r0
		configASSERT( !( ( xTaskGetSchedulerState() == taskSCHEDULER_SUSPENDED ) && ( xTicksToWait != 0 ) ) );
  401622:	4b5e      	ldr	r3, [pc, #376]	; (40179c <xQueueGenericReceive+0x190>)
  401624:	460f      	mov	r7, r1
  401626:	4798      	blx	r3
  401628:	b960      	cbnz	r0, 401644 <xQueueGenericReceive+0x38>
  40162a:	9b03      	ldr	r3, [sp, #12]
  40162c:	b15b      	cbz	r3, 401646 <xQueueGenericReceive+0x3a>
  40162e:	f04f 0380 	mov.w	r3, #128	; 0x80
  401632:	b672      	cpsid	i
  401634:	f383 8811 	msr	BASEPRI, r3
  401638:	f3bf 8f6f 	isb	sy
  40163c:	f3bf 8f4f 	dsb	sy
  401640:	b662      	cpsie	i
  401642:	e7fe      	b.n	401642 <xQueueGenericReceive+0x36>
  401644:	2300      	movs	r3, #0
  401646:	4e56      	ldr	r6, [pc, #344]	; (4017a0 <xQueueGenericReceive+0x194>)
  401648:	4d56      	ldr	r5, [pc, #344]	; (4017a4 <xQueueGenericReceive+0x198>)
					vTaskSetTimeOutState( &xTimeOut );
  40164a:	f8df b180 	ldr.w	fp, [pc, #384]	; 4017cc <xQueueGenericReceive+0x1c0>
		vTaskSuspendAll();
  40164e:	f8df a180 	ldr.w	sl, [pc, #384]	; 4017d0 <xQueueGenericReceive+0x1c4>
					portYIELD_WITHIN_API();
  401652:	f8df 9174 	ldr.w	r9, [pc, #372]	; 4017c8 <xQueueGenericReceive+0x1bc>
  401656:	e006      	b.n	401666 <xQueueGenericReceive+0x5a>
	taskEXIT_CRITICAL();
  401658:	47a8      	blx	r5
				prvUnlockQueue( pxQueue );
  40165a:	4b53      	ldr	r3, [pc, #332]	; (4017a8 <xQueueGenericReceive+0x19c>)
  40165c:	4620      	mov	r0, r4
  40165e:	4798      	blx	r3
				( void ) xTaskResumeAll();
  401660:	4b52      	ldr	r3, [pc, #328]	; (4017ac <xQueueGenericReceive+0x1a0>)
  401662:	4798      	blx	r3
  401664:	2301      	movs	r3, #1
  401666:	9302      	str	r3, [sp, #8]
		taskENTER_CRITICAL();
  401668:	47b0      	blx	r6
			if( pxQueue->uxMessagesWaiting > ( UBaseType_t ) 0 )
  40166a:	6ba2      	ldr	r2, [r4, #56]	; 0x38
  40166c:	9b02      	ldr	r3, [sp, #8]
  40166e:	2a00      	cmp	r2, #0
  401670:	d156      	bne.n	401720 <xQueueGenericReceive+0x114>
				if( xTicksToWait == ( TickType_t ) 0 )
  401672:	f8dd 800c 	ldr.w	r8, [sp, #12]
  401676:	f1b8 0f00 	cmp.w	r8, #0
  40167a:	d04e      	beq.n	40171a <xQueueGenericReceive+0x10e>
					vTaskSetTimeOutState( &xTimeOut );
  40167c:	f10d 0810 	add.w	r8, sp, #16
				else if( xEntryTimeSet == pdFALSE )
  401680:	b90b      	cbnz	r3, 401686 <xQueueGenericReceive+0x7a>
					vTaskSetTimeOutState( &xTimeOut );
  401682:	4640      	mov	r0, r8
  401684:	47d8      	blx	fp
		taskEXIT_CRITICAL();
  401686:	47a8      	blx	r5
		vTaskSuspendAll();
  401688:	47d0      	blx	sl
		prvLockQueue( pxQueue );
  40168a:	47b0      	blx	r6
  40168c:	6c63      	ldr	r3, [r4, #68]	; 0x44
  40168e:	3301      	adds	r3, #1
  401690:	d101      	bne.n	401696 <xQueueGenericReceive+0x8a>
  401692:	2300      	movs	r3, #0
  401694:	6463      	str	r3, [r4, #68]	; 0x44
  401696:	6ca3      	ldr	r3, [r4, #72]	; 0x48
  401698:	3301      	adds	r3, #1
  40169a:	d101      	bne.n	4016a0 <xQueueGenericReceive+0x94>
  40169c:	2300      	movs	r3, #0
  40169e:	64a3      	str	r3, [r4, #72]	; 0x48
  4016a0:	47a8      	blx	r5
		if( xTaskCheckForTimeOut( &xTimeOut, &xTicksToWait ) == pdFALSE )
  4016a2:	4640      	mov	r0, r8
  4016a4:	a903      	add	r1, sp, #12
  4016a6:	4b42      	ldr	r3, [pc, #264]	; (4017b0 <xQueueGenericReceive+0x1a4>)
  4016a8:	4798      	blx	r3
  4016aa:	2800      	cmp	r0, #0
  4016ac:	d12c      	bne.n	401708 <xQueueGenericReceive+0xfc>
	taskENTER_CRITICAL();
  4016ae:	47b0      	blx	r6
		if( pxQueue->uxMessagesWaiting == ( UBaseType_t )  0 )
  4016b0:	6ba3      	ldr	r3, [r4, #56]	; 0x38
  4016b2:	2b00      	cmp	r3, #0
  4016b4:	d1d0      	bne.n	401658 <xQueueGenericReceive+0x4c>
	taskEXIT_CRITICAL();
  4016b6:	47a8      	blx	r5
					if( pxQueue->uxQueueType == queueQUEUE_IS_MUTEX )
  4016b8:	6823      	ldr	r3, [r4, #0]
  4016ba:	b1fb      	cbz	r3, 4016fc <xQueueGenericReceive+0xf0>
				vTaskPlaceOnEventList( &( pxQueue->xTasksWaitingToReceive ), xTicksToWait );
  4016bc:	9903      	ldr	r1, [sp, #12]
  4016be:	f104 0024 	add.w	r0, r4, #36	; 0x24
  4016c2:	4b3c      	ldr	r3, [pc, #240]	; (4017b4 <xQueueGenericReceive+0x1a8>)
  4016c4:	4798      	blx	r3
				prvUnlockQueue( pxQueue );
  4016c6:	4b38      	ldr	r3, [pc, #224]	; (4017a8 <xQueueGenericReceive+0x19c>)
  4016c8:	4620      	mov	r0, r4
  4016ca:	4798      	blx	r3
				if( xTaskResumeAll() == pdFALSE )
  4016cc:	4b37      	ldr	r3, [pc, #220]	; (4017ac <xQueueGenericReceive+0x1a0>)
  4016ce:	4798      	blx	r3
  4016d0:	2800      	cmp	r0, #0
  4016d2:	d1c7      	bne.n	401664 <xQueueGenericReceive+0x58>
					portYIELD_WITHIN_API();
  4016d4:	f04f 5380 	mov.w	r3, #268435456	; 0x10000000
  4016d8:	f8c9 3000 	str.w	r3, [r9]
  4016dc:	f3bf 8f4f 	dsb	sy
  4016e0:	f3bf 8f6f 	isb	sy
  4016e4:	e7be      	b.n	401664 <xQueueGenericReceive+0x58>
  4016e6:	f04f 0380 	mov.w	r3, #128	; 0x80
  4016ea:	b672      	cpsid	i
  4016ec:	f383 8811 	msr	BASEPRI, r3
  4016f0:	f3bf 8f6f 	isb	sy
  4016f4:	f3bf 8f4f 	dsb	sy
  4016f8:	b662      	cpsie	i
  4016fa:	e7fe      	b.n	4016fa <xQueueGenericReceive+0xee>
						taskENTER_CRITICAL();
  4016fc:	47b0      	blx	r6
							vTaskPriorityInherit( ( void * ) pxQueue->pxMutexHolder );
  4016fe:	6860      	ldr	r0, [r4, #4]
  401700:	4b2d      	ldr	r3, [pc, #180]	; (4017b8 <xQueueGenericReceive+0x1ac>)
  401702:	4798      	blx	r3
						taskEXIT_CRITICAL();
  401704:	47a8      	blx	r5
  401706:	e7d9      	b.n	4016bc <xQueueGenericReceive+0xb0>
			prvUnlockQueue( pxQueue );
  401708:	4620      	mov	r0, r4
  40170a:	4b27      	ldr	r3, [pc, #156]	; (4017a8 <xQueueGenericReceive+0x19c>)
  40170c:	4798      	blx	r3
			( void ) xTaskResumeAll();
  40170e:	4b27      	ldr	r3, [pc, #156]	; (4017ac <xQueueGenericReceive+0x1a0>)
  401710:	4798      	blx	r3
			return errQUEUE_EMPTY;
  401712:	2000      	movs	r0, #0
}
  401714:	b007      	add	sp, #28
  401716:	e8bd 8ff0 	ldmia.w	sp!, {r4, r5, r6, r7, r8, r9, sl, fp, pc}
					taskEXIT_CRITICAL();
  40171a:	47a8      	blx	r5
					return errQUEUE_EMPTY;
  40171c:	4640      	mov	r0, r8
  40171e:	e7f9      	b.n	401714 <xQueueGenericReceive+0x108>
				prvCopyDataFromQueue( pxQueue, pvBuffer );
  401720:	4b26      	ldr	r3, [pc, #152]	; (4017bc <xQueueGenericReceive+0x1b0>)
  401722:	4639      	mov	r1, r7
  401724:	4620      	mov	r0, r4
				pcOriginalReadPosition = pxQueue->u.pcReadFrom;
  401726:	68e6      	ldr	r6, [r4, #12]
				prvCopyDataFromQueue( pxQueue, pvBuffer );
  401728:	4798      	blx	r3
				if( xJustPeeking == pdFALSE )
  40172a:	9b01      	ldr	r3, [sp, #4]
  40172c:	b963      	cbnz	r3, 401748 <xQueueGenericReceive+0x13c>
					--( pxQueue->uxMessagesWaiting );
  40172e:	6ba3      	ldr	r3, [r4, #56]	; 0x38
						if( pxQueue->uxQueueType == queueQUEUE_IS_MUTEX )
  401730:	6822      	ldr	r2, [r4, #0]
					--( pxQueue->uxMessagesWaiting );
  401732:	3b01      	subs	r3, #1
  401734:	63a3      	str	r3, [r4, #56]	; 0x38
						if( pxQueue->uxQueueType == queueQUEUE_IS_MUTEX )
  401736:	b912      	cbnz	r2, 40173e <xQueueGenericReceive+0x132>
							pxQueue->pxMutexHolder = ( int8_t * ) pvTaskIncrementMutexHeldCount(); /*lint !e961 Cast is not redundant as TaskHandle_t is a typedef. */
  401738:	4b21      	ldr	r3, [pc, #132]	; (4017c0 <xQueueGenericReceive+0x1b4>)
  40173a:	4798      	blx	r3
  40173c:	6060      	str	r0, [r4, #4]
					if( listLIST_IS_EMPTY( &( pxQueue->xTasksWaitingToSend ) ) == pdFALSE )
  40173e:	6923      	ldr	r3, [r4, #16]
  401740:	b9ab      	cbnz	r3, 40176e <xQueueGenericReceive+0x162>
				taskEXIT_CRITICAL();
  401742:	47a8      	blx	r5
				return pdPASS;
  401744:	2001      	movs	r0, #1
  401746:	e7e5      	b.n	401714 <xQueueGenericReceive+0x108>
					if( listLIST_IS_EMPTY( &( pxQueue->xTasksWaitingToReceive ) ) == pdFALSE )
  401748:	6a63      	ldr	r3, [r4, #36]	; 0x24
					pxQueue->u.pcReadFrom = pcOriginalReadPosition;
  40174a:	60e6      	str	r6, [r4, #12]
					if( listLIST_IS_EMPTY( &( pxQueue->xTasksWaitingToReceive ) ) == pdFALSE )
  40174c:	2b00      	cmp	r3, #0
  40174e:	d0f8      	beq.n	401742 <xQueueGenericReceive+0x136>
						if( xTaskRemoveFromEventList( &( pxQueue->xTasksWaitingToReceive ) ) != pdFALSE )
  401750:	f104 0024 	add.w	r0, r4, #36	; 0x24
  401754:	4b1b      	ldr	r3, [pc, #108]	; (4017c4 <xQueueGenericReceive+0x1b8>)
  401756:	4798      	blx	r3
  401758:	2800      	cmp	r0, #0
  40175a:	d0f2      	beq.n	401742 <xQueueGenericReceive+0x136>
							queueYIELD_IF_USING_PREEMPTION();
  40175c:	4b1a      	ldr	r3, [pc, #104]	; (4017c8 <xQueueGenericReceive+0x1bc>)
  40175e:	f04f 5280 	mov.w	r2, #268435456	; 0x10000000
  401762:	601a      	str	r2, [r3, #0]
  401764:	f3bf 8f4f 	dsb	sy
  401768:	f3bf 8f6f 	isb	sy
  40176c:	e7e9      	b.n	401742 <xQueueGenericReceive+0x136>
						if( xTaskRemoveFromEventList( &( pxQueue->xTasksWaitingToSend ) ) == pdTRUE )
  40176e:	f104 0010 	add.w	r0, r4, #16
  401772:	4b14      	ldr	r3, [pc, #80]	; (4017c4 <xQueueGenericReceive+0x1b8>)
  401774:	4798      	blx	r3
  401776:	2801      	cmp	r0, #1
  401778:	d1e3      	bne.n	401742 <xQueueGenericReceive+0x136>
  40177a:	e7ef      	b.n	40175c <xQueueGenericReceive+0x150>
	configASSERT( !( ( pvBuffer == NULL ) && ( pxQueue->uxItemSize != ( UBaseType_t ) 0U ) ) );
  40177c:	6c02      	ldr	r2, [r0, #64]	; 0x40
  40177e:	2a00      	cmp	r2, #0
  401780:	f43f af4d 	beq.w	40161e <xQueueGenericReceive+0x12>
  401784:	f04f 0380 	mov.w	r3, #128	; 0x80
  401788:	b672      	cpsid	i
  40178a:	f383 8811 	msr	BASEPRI, r3
  40178e:	f3bf 8f6f 	isb	sy
  401792:	f3bf 8f4f 	dsb	sy
  401796:	b662      	cpsie	i
  401798:	e7fe      	b.n	401798 <xQueueGenericReceive+0x18c>
  40179a:	bf00      	nop
  40179c:	004022c1 	.word	0x004022c1
  4017a0:	00400d91 	.word	0x00400d91
  4017a4:	00400ddd 	.word	0x00400ddd
  4017a8:	0040116d 	.word	0x0040116d
  4017ac:	00401d51 	.word	0x00401d51
  4017b0:	0040221d 	.word	0x0040221d
  4017b4:	0040205d 	.word	0x0040205d
  4017b8:	004022e1 	.word	0x004022e1
  4017bc:	00401141 	.word	0x00401141
  4017c0:	00402451 	.word	0x00402451
  4017c4:	00402165 	.word	0x00402165
  4017c8:	e000ed04 	.word	0xe000ed04
  4017cc:	004021f9 	.word	0x004021f9
  4017d0:	00401bc1 	.word	0x00401bc1

004017d4 <vQueueAddToRegistry>:
		for( ux = ( UBaseType_t ) 0U; ux < ( UBaseType_t ) configQUEUE_REGISTRY_SIZE; ux++ )
  4017d4:	2300      	movs	r3, #0
  4017d6:	4a08      	ldr	r2, [pc, #32]	; (4017f8 <vQueueAddToRegistry+0x24>)
	{
  4017d8:	b430      	push	{r4, r5}
			if( xQueueRegistry[ ux ].pcQueueName == NULL )
  4017da:	f852 4033 	ldr.w	r4, [r2, r3, lsl #3]
  4017de:	eb02 05c3 	add.w	r5, r2, r3, lsl #3
  4017e2:	b124      	cbz	r4, 4017ee <vQueueAddToRegistry+0x1a>
		for( ux = ( UBaseType_t ) 0U; ux < ( UBaseType_t ) configQUEUE_REGISTRY_SIZE; ux++ )
  4017e4:	3301      	adds	r3, #1
  4017e6:	2b08      	cmp	r3, #8
  4017e8:	d1f7      	bne.n	4017da <vQueueAddToRegistry+0x6>
	}
  4017ea:	bc30      	pop	{r4, r5}
  4017ec:	4770      	bx	lr
				xQueueRegistry[ ux ].pcQueueName = pcQueueName;
  4017ee:	f842 1033 	str.w	r1, [r2, r3, lsl #3]
				xQueueRegistry[ ux ].xHandle = xQueue;
  4017f2:	6068      	str	r0, [r5, #4]
	}
  4017f4:	bc30      	pop	{r4, r5}
  4017f6:	4770      	bx	lr
  4017f8:	20400be0 	.word	0x20400be0

004017fc <vQueueWaitForMessageRestricted>:
	{
  4017fc:	b570      	push	{r4, r5, r6, lr}
  4017fe:	4604      	mov	r4, r0
		prvLockQueue( pxQueue );
  401800:	4b0f      	ldr	r3, [pc, #60]	; (401840 <vQueueWaitForMessageRestricted+0x44>)
	{
  401802:	460d      	mov	r5, r1
  401804:	4616      	mov	r6, r2
		prvLockQueue( pxQueue );
  401806:	4798      	blx	r3
  401808:	6c63      	ldr	r3, [r4, #68]	; 0x44
  40180a:	3301      	adds	r3, #1
  40180c:	d014      	beq.n	401838 <vQueueWaitForMessageRestricted+0x3c>
  40180e:	6ca3      	ldr	r3, [r4, #72]	; 0x48
  401810:	3301      	adds	r3, #1
  401812:	d00e      	beq.n	401832 <vQueueWaitForMessageRestricted+0x36>
  401814:	4b0b      	ldr	r3, [pc, #44]	; (401844 <vQueueWaitForMessageRestricted+0x48>)
  401816:	4798      	blx	r3
		if( pxQueue->uxMessagesWaiting == ( UBaseType_t ) 0U )
  401818:	6ba3      	ldr	r3, [r4, #56]	; 0x38
  40181a:	b92b      	cbnz	r3, 401828 <vQueueWaitForMessageRestricted+0x2c>
			vTaskPlaceOnEventListRestricted( &( pxQueue->xTasksWaitingToReceive ), xTicksToWait, xWaitIndefinitely );
  40181c:	4632      	mov	r2, r6
  40181e:	4629      	mov	r1, r5
  401820:	f104 0024 	add.w	r0, r4, #36	; 0x24
  401824:	4b08      	ldr	r3, [pc, #32]	; (401848 <vQueueWaitForMessageRestricted+0x4c>)
  401826:	4798      	blx	r3
		prvUnlockQueue( pxQueue );
  401828:	4620      	mov	r0, r4
  40182a:	4b08      	ldr	r3, [pc, #32]	; (40184c <vQueueWaitForMessageRestricted+0x50>)
	}
  40182c:	e8bd 4070 	ldmia.w	sp!, {r4, r5, r6, lr}
		prvUnlockQueue( pxQueue );
  401830:	4718      	bx	r3
		prvLockQueue( pxQueue );
  401832:	2300      	movs	r3, #0
  401834:	64a3      	str	r3, [r4, #72]	; 0x48
  401836:	e7ed      	b.n	401814 <vQueueWaitForMessageRestricted+0x18>
  401838:	2300      	movs	r3, #0
  40183a:	6463      	str	r3, [r4, #68]	; 0x44
  40183c:	e7e7      	b.n	40180e <vQueueWaitForMessageRestricted+0x12>
  40183e:	bf00      	nop
  401840:	00400d91 	.word	0x00400d91
  401844:	00400ddd 	.word	0x00400ddd
  401848:	004020e1 	.word	0x004020e1
  40184c:	0040116d 	.word	0x0040116d

00401850 <prvResetNextTaskUnblockTime.part.2>:
	{
		/* The new current delayed list is not empty, get the value of
		the item at the head of the delayed list.  This is the time at
		which the task at the head of the delayed list should be removed
		from the Blocked state. */
		( pxTCB ) = ( TCB_t * ) listGET_OWNER_OF_HEAD_ENTRY( pxDelayedTaskList );
  401850:	4a03      	ldr	r2, [pc, #12]	; (401860 <prvResetNextTaskUnblockTime.part.2+0x10>)
		xNextTaskUnblockTime = listGET_LIST_ITEM_VALUE( &( ( pxTCB )->xGenericListItem ) );
  401852:	4b04      	ldr	r3, [pc, #16]	; (401864 <prvResetNextTaskUnblockTime.part.2+0x14>)
		( pxTCB ) = ( TCB_t * ) listGET_OWNER_OF_HEAD_ENTRY( pxDelayedTaskList );
  401854:	6812      	ldr	r2, [r2, #0]
  401856:	68d2      	ldr	r2, [r2, #12]
		xNextTaskUnblockTime = listGET_LIST_ITEM_VALUE( &( ( pxTCB )->xGenericListItem ) );
  401858:	68d2      	ldr	r2, [r2, #12]
  40185a:	6852      	ldr	r2, [r2, #4]
  40185c:	601a      	str	r2, [r3, #0]
  40185e:	4770      	bx	lr
  401860:	20400a64 	.word	0x20400a64
  401864:	20400b10 	.word	0x20400b10

00401868 <prvAddCurrentTaskToDelayedList>:
	listSET_LIST_ITEM_VALUE( &( pxCurrentTCB->xGenericListItem ), xTimeToWake );
  401868:	4b0d      	ldr	r3, [pc, #52]	; (4018a0 <prvAddCurrentTaskToDelayedList+0x38>)
	if( xTimeToWake < xTickCount )
  40186a:	4a0e      	ldr	r2, [pc, #56]	; (4018a4 <prvAddCurrentTaskToDelayedList+0x3c>)
	listSET_LIST_ITEM_VALUE( &( pxCurrentTCB->xGenericListItem ), xTimeToWake );
  40186c:	6819      	ldr	r1, [r3, #0]
	if( xTimeToWake < xTickCount )
  40186e:	6812      	ldr	r2, [r2, #0]
	listSET_LIST_ITEM_VALUE( &( pxCurrentTCB->xGenericListItem ), xTimeToWake );
  401870:	6048      	str	r0, [r1, #4]
	if( xTimeToWake < xTickCount )
  401872:	4290      	cmp	r0, r2
  401874:	d30d      	bcc.n	401892 <prvAddCurrentTaskToDelayedList+0x2a>
		vListInsert( pxDelayedTaskList, &( pxCurrentTCB->xGenericListItem ) );
  401876:	490c      	ldr	r1, [pc, #48]	; (4018a8 <prvAddCurrentTaskToDelayedList+0x40>)
  401878:	4a0c      	ldr	r2, [pc, #48]	; (4018ac <prvAddCurrentTaskToDelayedList+0x44>)
{
  40187a:	b510      	push	{r4, lr}
  40187c:	4604      	mov	r4, r0
		vListInsert( pxDelayedTaskList, &( pxCurrentTCB->xGenericListItem ) );
  40187e:	6808      	ldr	r0, [r1, #0]
  401880:	6819      	ldr	r1, [r3, #0]
  401882:	3104      	adds	r1, #4
  401884:	4790      	blx	r2
		if( xTimeToWake < xNextTaskUnblockTime )
  401886:	4b0a      	ldr	r3, [pc, #40]	; (4018b0 <prvAddCurrentTaskToDelayedList+0x48>)
  401888:	681a      	ldr	r2, [r3, #0]
  40188a:	4294      	cmp	r4, r2
  40188c:	d200      	bcs.n	401890 <prvAddCurrentTaskToDelayedList+0x28>
			xNextTaskUnblockTime = xTimeToWake;
  40188e:	601c      	str	r4, [r3, #0]
  401890:	bd10      	pop	{r4, pc}
		vListInsert( pxOverflowDelayedTaskList, &( pxCurrentTCB->xGenericListItem ) );
  401892:	4908      	ldr	r1, [pc, #32]	; (4018b4 <prvAddCurrentTaskToDelayedList+0x4c>)
  401894:	4a05      	ldr	r2, [pc, #20]	; (4018ac <prvAddCurrentTaskToDelayedList+0x44>)
  401896:	6808      	ldr	r0, [r1, #0]
  401898:	6819      	ldr	r1, [r3, #0]
  40189a:	3104      	adds	r1, #4
  40189c:	4710      	bx	r2
  40189e:	bf00      	nop
  4018a0:	20400a60 	.word	0x20400a60
  4018a4:	20400b58 	.word	0x20400b58
  4018a8:	20400a64 	.word	0x20400a64
  4018ac:	00400c79 	.word	0x00400c79
  4018b0:	20400b10 	.word	0x20400b10
  4018b4:	20400a68 	.word	0x20400a68

004018b8 <xTaskGenericCreate.part.5>:
BaseType_t xTaskGenericCreate( TaskFunction_t pxTaskCode, const char * const pcName, const uint16_t usStackDepth, void * const pvParameters, UBaseType_t uxPriority, TaskHandle_t * const pxCreatedTask, StackType_t * const puxStackBuffer, const MemoryRegion_t * const xRegions ) /*lint !e971 Unqualified char types are allowed for strings and single characters only. */
  4018b8:	e92d 4ff8 	stmdb	sp!, {r3, r4, r5, r6, r7, r8, r9, sl, fp, lr}
  4018bc:	9e0c      	ldr	r6, [sp, #48]	; 0x30
  4018be:	4680      	mov	r8, r0
  4018c0:	460d      	mov	r5, r1
  4018c2:	4692      	mov	sl, r2
  4018c4:	4699      	mov	r9, r3
		pxStack = ( StackType_t * ) pvPortMallocAligned( ( ( ( size_t ) usStackDepth ) * sizeof( StackType_t ) ), puxStackBuffer ); /*lint !e961 MISRA exception as the casts are only redundant for some ports. */
  4018c6:	2e00      	cmp	r6, #0
  4018c8:	f000 8096 	beq.w	4019f8 <xTaskGenericCreate.part.5+0x140>
  4018cc:	4c64      	ldr	r4, [pc, #400]	; (401a60 <xTaskGenericCreate.part.5+0x1a8>)
			pxNewTCB = ( TCB_t * ) pvPortMalloc( sizeof( TCB_t ) );
  4018ce:	2058      	movs	r0, #88	; 0x58
  4018d0:	47a0      	blx	r4
			if( pxNewTCB != NULL )
  4018d2:	4604      	mov	r4, r0
  4018d4:	2800      	cmp	r0, #0
  4018d6:	f000 809a 	beq.w	401a0e <xTaskGenericCreate.part.5+0x156>
			( void ) memset( pxNewTCB->pxStack, ( int ) tskSTACK_FILL_BYTE, ( size_t ) usStackDepth * sizeof( StackType_t ) );
  4018da:	ea4f 0a8a 	mov.w	sl, sl, lsl #2
				pxNewTCB->pxStack = pxStack;
  4018de:	6306      	str	r6, [r0, #48]	; 0x30
			( void ) memset( pxNewTCB->pxStack, ( int ) tskSTACK_FILL_BYTE, ( size_t ) usStackDepth * sizeof( StackType_t ) );
  4018e0:	21a5      	movs	r1, #165	; 0xa5
  4018e2:	4b60      	ldr	r3, [pc, #384]	; (401a64 <xTaskGenericCreate.part.5+0x1ac>)
  4018e4:	4652      	mov	r2, sl
  4018e6:	4630      	mov	r0, r6
  4018e8:	4798      	blx	r3
			pxTopOfStack = pxNewTCB->pxStack + ( usStackDepth - ( uint16_t ) 1 );
  4018ea:	f1aa 0a04 	sub.w	sl, sl, #4
  4018ee:	6b20      	ldr	r0, [r4, #48]	; 0x30
  4018f0:	1e6b      	subs	r3, r5, #1
  4018f2:	f105 0109 	add.w	r1, r5, #9
  4018f6:	f104 0533 	add.w	r5, r4, #51	; 0x33
  4018fa:	4482      	add	sl, r0
			pxTopOfStack = ( StackType_t * ) ( ( ( portPOINTER_SIZE_TYPE ) pxTopOfStack ) & ( ~( ( portPOINTER_SIZE_TYPE ) portBYTE_ALIGNMENT_MASK ) ) ); /*lint !e923 MISRA exception.  Avoiding casts between pointers and integers is not practical.  Size differences accounted for using portPOINTER_SIZE_TYPE type. */
  4018fc:	f02a 0a07 	bic.w	sl, sl, #7
		pxTCB->pcTaskName[ x ] = pcName[ x ];
  401900:	785a      	ldrb	r2, [r3, #1]
  401902:	f805 2f01 	strb.w	r2, [r5, #1]!
		if( pcName[ x ] == 0x00 )
  401906:	f813 2f01 	ldrb.w	r2, [r3, #1]!
  40190a:	b10a      	cbz	r2, 401910 <xTaskGenericCreate.part.5+0x58>
	for( x = ( UBaseType_t ) 0; x < ( UBaseType_t ) configMAX_TASK_NAME_LEN; x++ )
  40190c:	4299      	cmp	r1, r3
  40190e:	d1f7      	bne.n	401900 <xTaskGenericCreate.part.5+0x48>
  401910:	9d0a      	ldr	r5, [sp, #40]	; 0x28
	pxTCB->pcTaskName[ configMAX_TASK_NAME_LEN - 1 ] = '\0';
  401912:	2700      	movs	r7, #0
	vListInitialiseItem( &( pxTCB->xGenericListItem ) );
  401914:	f104 0b04 	add.w	fp, r4, #4
  401918:	4e53      	ldr	r6, [pc, #332]	; (401a68 <xTaskGenericCreate.part.5+0x1b0>)
  40191a:	2d04      	cmp	r5, #4
	pxTCB->pcTaskName[ configMAX_TASK_NAME_LEN - 1 ] = '\0';
  40191c:	f884 703d 	strb.w	r7, [r4, #61]	; 0x3d
	vListInitialiseItem( &( pxTCB->xGenericListItem ) );
  401920:	4658      	mov	r0, fp
		pxTCB->uxMutexesHeld = 0;
  401922:	64e7      	str	r7, [r4, #76]	; 0x4c
  401924:	bf28      	it	cs
  401926:	2504      	movcs	r5, #4
	pxTCB->uxPriority = uxPriority;
  401928:	62e5      	str	r5, [r4, #44]	; 0x2c
		pxTCB->uxBasePriority = uxPriority;
  40192a:	64a5      	str	r5, [r4, #72]	; 0x48
	listSET_LIST_ITEM_VALUE( &( pxTCB->xEventListItem ), ( TickType_t ) configMAX_PRIORITIES - ( TickType_t ) uxPriority ); /*lint !e961 MISRA exception as the casts are only redundant for some ports. */
  40192c:	f1c5 0505 	rsb	r5, r5, #5
	vListInitialiseItem( &( pxTCB->xGenericListItem ) );
  401930:	47b0      	blx	r6
	vListInitialiseItem( &( pxTCB->xEventListItem ) );
  401932:	f104 0018 	add.w	r0, r4, #24
  401936:	47b0      	blx	r6
		pxTCB->ulNotifiedValue = 0;
  401938:	6527      	str	r7, [r4, #80]	; 0x50
			pxNewTCB->pxTopOfStack = pxPortInitialiseStack( pxTopOfStack, pxTaskCode, pvParameters );
  40193a:	4b4c      	ldr	r3, [pc, #304]	; (401a6c <xTaskGenericCreate.part.5+0x1b4>)
  40193c:	464a      	mov	r2, r9
	listSET_LIST_ITEM_VALUE( &( pxTCB->xEventListItem ), ( TickType_t ) configMAX_PRIORITIES - ( TickType_t ) uxPriority ); /*lint !e961 MISRA exception as the casts are only redundant for some ports. */
  40193e:	61a5      	str	r5, [r4, #24]
			pxNewTCB->pxTopOfStack = pxPortInitialiseStack( pxTopOfStack, pxTaskCode, pvParameters );
  401940:	4641      	mov	r1, r8
		pxTCB->eNotifyState = eNotWaitingNotification;
  401942:	f884 7054 	strb.w	r7, [r4, #84]	; 0x54
			pxNewTCB->pxTopOfStack = pxPortInitialiseStack( pxTopOfStack, pxTaskCode, pvParameters );
  401946:	4650      	mov	r0, sl
	listSET_LIST_ITEM_OWNER( &( pxTCB->xGenericListItem ), pxTCB );
  401948:	6124      	str	r4, [r4, #16]
	listSET_LIST_ITEM_OWNER( &( pxTCB->xEventListItem ), pxTCB );
  40194a:	6264      	str	r4, [r4, #36]	; 0x24
			pxNewTCB->pxTopOfStack = pxPortInitialiseStack( pxTopOfStack, pxTaskCode, pvParameters );
  40194c:	4798      	blx	r3
		if( ( void * ) pxCreatedTask != NULL )
  40194e:	9b0b      	ldr	r3, [sp, #44]	; 0x2c
			pxNewTCB->pxTopOfStack = pxPortInitialiseStack( pxTopOfStack, pxTaskCode, pvParameters );
  401950:	6020      	str	r0, [r4, #0]
		if( ( void * ) pxCreatedTask != NULL )
  401952:	b103      	cbz	r3, 401956 <xTaskGenericCreate.part.5+0x9e>
			*pxCreatedTask = ( TaskHandle_t ) pxNewTCB;
  401954:	601c      	str	r4, [r3, #0]
		taskENTER_CRITICAL();
  401956:	4b46      	ldr	r3, [pc, #280]	; (401a70 <xTaskGenericCreate.part.5+0x1b8>)
  401958:	4798      	blx	r3
			uxCurrentNumberOfTasks++;
  40195a:	4a46      	ldr	r2, [pc, #280]	; (401a74 <xTaskGenericCreate.part.5+0x1bc>)
			if( pxCurrentTCB == NULL )
  40195c:	4e46      	ldr	r6, [pc, #280]	; (401a78 <xTaskGenericCreate.part.5+0x1c0>)
			uxCurrentNumberOfTasks++;
  40195e:	6813      	ldr	r3, [r2, #0]
  401960:	3301      	adds	r3, #1
  401962:	6013      	str	r3, [r2, #0]
			if( pxCurrentTCB == NULL )
  401964:	6833      	ldr	r3, [r6, #0]
  401966:	2b00      	cmp	r3, #0
  401968:	d03f      	beq.n	4019ea <xTaskGenericCreate.part.5+0x132>
				if( xSchedulerRunning == pdFALSE )
  40196a:	f8df 814c 	ldr.w	r8, [pc, #332]	; 401ab8 <xTaskGenericCreate.part.5+0x200>
  40196e:	f8d8 3000 	ldr.w	r3, [r8]
  401972:	b92b      	cbnz	r3, 401980 <xTaskGenericCreate.part.5+0xc8>
					if( pxCurrentTCB->uxPriority <= uxPriority )
  401974:	6833      	ldr	r3, [r6, #0]
  401976:	9a0a      	ldr	r2, [sp, #40]	; 0x28
  401978:	6adb      	ldr	r3, [r3, #44]	; 0x2c
  40197a:	429a      	cmp	r2, r3
  40197c:	d300      	bcc.n	401980 <xTaskGenericCreate.part.5+0xc8>
						pxCurrentTCB = pxNewTCB;
  40197e:	6034      	str	r4, [r6, #0]
			uxTaskNumber++;
  401980:	f8df e138 	ldr.w	lr, [pc, #312]	; 401abc <xTaskGenericCreate.part.5+0x204>
			prvAddTaskToReadyList( pxNewTCB );
  401984:	2501      	movs	r5, #1
  401986:	f8df c138 	ldr.w	ip, [pc, #312]	; 401ac0 <xTaskGenericCreate.part.5+0x208>
  40198a:	4659      	mov	r1, fp
  40198c:	6ae0      	ldr	r0, [r4, #44]	; 0x2c
  40198e:	f8dc 9000 	ldr.w	r9, [ip]
			uxTaskNumber++;
  401992:	f8de 2000 	ldr.w	r2, [lr]
			prvAddTaskToReadyList( pxNewTCB );
  401996:	fa05 f300 	lsl.w	r3, r5, r0
  40199a:	eb00 0080 	add.w	r0, r0, r0, lsl #2
  40199e:	ea43 0309 	orr.w	r3, r3, r9
			uxTaskNumber++;
  4019a2:	442a      	add	r2, r5
			prvAddTaskToReadyList( pxNewTCB );
  4019a4:	f8df 90e8 	ldr.w	r9, [pc, #232]	; 401a90 <xTaskGenericCreate.part.5+0x1d8>
			uxTaskNumber++;
  4019a8:	f8ce 2000 	str.w	r2, [lr]
				pxNewTCB->uxTCBNumber = uxTaskNumber;
  4019ac:	6422      	str	r2, [r4, #64]	; 0x40
			prvAddTaskToReadyList( pxNewTCB );
  4019ae:	eb09 0080 	add.w	r0, r9, r0, lsl #2
  4019b2:	4a32      	ldr	r2, [pc, #200]	; (401a7c <xTaskGenericCreate.part.5+0x1c4>)
  4019b4:	f8cc 3000 	str.w	r3, [ip]
  4019b8:	4790      	blx	r2
		taskEXIT_CRITICAL();
  4019ba:	4b31      	ldr	r3, [pc, #196]	; (401a80 <xTaskGenericCreate.part.5+0x1c8>)
  4019bc:	4798      	blx	r3
		if( xSchedulerRunning != pdFALSE )
  4019be:	f8d8 3000 	ldr.w	r3, [r8]
  4019c2:	b17b      	cbz	r3, 4019e4 <xTaskGenericCreate.part.5+0x12c>
			if( pxCurrentTCB->uxPriority < uxPriority )
  4019c4:	6833      	ldr	r3, [r6, #0]
  4019c6:	9a0a      	ldr	r2, [sp, #40]	; 0x28
  4019c8:	6adb      	ldr	r3, [r3, #44]	; 0x2c
  4019ca:	429a      	cmp	r2, r3
  4019cc:	d90a      	bls.n	4019e4 <xTaskGenericCreate.part.5+0x12c>
				taskYIELD_IF_USING_PREEMPTION();
  4019ce:	4b2d      	ldr	r3, [pc, #180]	; (401a84 <xTaskGenericCreate.part.5+0x1cc>)
  4019d0:	f04f 5280 	mov.w	r2, #268435456	; 0x10000000
  4019d4:	601a      	str	r2, [r3, #0]
  4019d6:	f3bf 8f4f 	dsb	sy
  4019da:	f3bf 8f6f 	isb	sy
  4019de:	4628      	mov	r0, r5
  4019e0:	e8bd 8ff8 	ldmia.w	sp!, {r3, r4, r5, r6, r7, r8, r9, sl, fp, pc}
			if( pxCurrentTCB->uxPriority < uxPriority )
  4019e4:	4628      	mov	r0, r5
}
  4019e6:	e8bd 8ff8 	ldmia.w	sp!, {r3, r4, r5, r6, r7, r8, r9, sl, fp, pc}
				pxCurrentTCB =  pxNewTCB;
  4019ea:	6034      	str	r4, [r6, #0]
				if( uxCurrentNumberOfTasks == ( UBaseType_t ) 1 )
  4019ec:	6813      	ldr	r3, [r2, #0]
  4019ee:	2b01      	cmp	r3, #1
  4019f0:	d014      	beq.n	401a1c <xTaskGenericCreate.part.5+0x164>
  4019f2:	f8df 80c4 	ldr.w	r8, [pc, #196]	; 401ab8 <xTaskGenericCreate.part.5+0x200>
  4019f6:	e7c3      	b.n	401980 <xTaskGenericCreate.part.5+0xc8>
		pxStack = ( StackType_t * ) pvPortMallocAligned( ( ( ( size_t ) usStackDepth ) * sizeof( StackType_t ) ), puxStackBuffer ); /*lint !e961 MISRA exception as the casts are only redundant for some ports. */
  4019f8:	0090      	lsls	r0, r2, #2
  4019fa:	4c19      	ldr	r4, [pc, #100]	; (401a60 <xTaskGenericCreate.part.5+0x1a8>)
  4019fc:	47a0      	blx	r4
		if( pxStack != NULL )
  4019fe:	4606      	mov	r6, r0
  401a00:	2800      	cmp	r0, #0
  401a02:	f47f af64 	bne.w	4018ce <xTaskGenericCreate.part.5+0x16>
		xReturn = errCOULD_NOT_ALLOCATE_REQUIRED_MEMORY;
  401a06:	f04f 30ff 	mov.w	r0, #4294967295
  401a0a:	e8bd 8ff8 	ldmia.w	sp!, {r3, r4, r5, r6, r7, r8, r9, sl, fp, pc}
				vPortFree( pxStack );
  401a0e:	4630      	mov	r0, r6
  401a10:	4b1d      	ldr	r3, [pc, #116]	; (401a88 <xTaskGenericCreate.part.5+0x1d0>)
  401a12:	4798      	blx	r3
		xReturn = errCOULD_NOT_ALLOCATE_REQUIRED_MEMORY;
  401a14:	f04f 30ff 	mov.w	r0, #4294967295
  401a18:	e8bd 8ff8 	ldmia.w	sp!, {r3, r4, r5, r6, r7, r8, r9, sl, fp, pc}
		vListInitialise( &( pxReadyTasksLists[ uxPriority ] ) );
  401a1c:	4d1b      	ldr	r5, [pc, #108]	; (401a8c <xTaskGenericCreate.part.5+0x1d4>)
  401a1e:	481c      	ldr	r0, [pc, #112]	; (401a90 <xTaskGenericCreate.part.5+0x1d8>)
  401a20:	47a8      	blx	r5
  401a22:	481c      	ldr	r0, [pc, #112]	; (401a94 <xTaskGenericCreate.part.5+0x1dc>)
  401a24:	47a8      	blx	r5
  401a26:	481c      	ldr	r0, [pc, #112]	; (401a98 <xTaskGenericCreate.part.5+0x1e0>)
  401a28:	47a8      	blx	r5
	vListInitialise( &xDelayedTaskList1 );
  401a2a:	f8df 8098 	ldr.w	r8, [pc, #152]	; 401ac4 <xTaskGenericCreate.part.5+0x20c>
		vListInitialise( &( pxReadyTasksLists[ uxPriority ] ) );
  401a2e:	481b      	ldr	r0, [pc, #108]	; (401a9c <xTaskGenericCreate.part.5+0x1e4>)
  401a30:	47a8      	blx	r5
	vListInitialise( &xDelayedTaskList2 );
  401a32:	f8df 9094 	ldr.w	r9, [pc, #148]	; 401ac8 <xTaskGenericCreate.part.5+0x210>
		vListInitialise( &( pxReadyTasksLists[ uxPriority ] ) );
  401a36:	481a      	ldr	r0, [pc, #104]	; (401aa0 <xTaskGenericCreate.part.5+0x1e8>)
  401a38:	47a8      	blx	r5
	vListInitialise( &xDelayedTaskList1 );
  401a3a:	4640      	mov	r0, r8
  401a3c:	47a8      	blx	r5
	vListInitialise( &xDelayedTaskList2 );
  401a3e:	4648      	mov	r0, r9
  401a40:	47a8      	blx	r5
	vListInitialise( &xPendingReadyList );
  401a42:	4818      	ldr	r0, [pc, #96]	; (401aa4 <xTaskGenericCreate.part.5+0x1ec>)
  401a44:	47a8      	blx	r5
		vListInitialise( &xTasksWaitingTermination );
  401a46:	4818      	ldr	r0, [pc, #96]	; (401aa8 <xTaskGenericCreate.part.5+0x1f0>)
  401a48:	47a8      	blx	r5
		vListInitialise( &xSuspendedTaskList );
  401a4a:	4818      	ldr	r0, [pc, #96]	; (401aac <xTaskGenericCreate.part.5+0x1f4>)
  401a4c:	47a8      	blx	r5
	pxDelayedTaskList = &xDelayedTaskList1;
  401a4e:	4a18      	ldr	r2, [pc, #96]	; (401ab0 <xTaskGenericCreate.part.5+0x1f8>)
	pxOverflowDelayedTaskList = &xDelayedTaskList2;
  401a50:	4b18      	ldr	r3, [pc, #96]	; (401ab4 <xTaskGenericCreate.part.5+0x1fc>)
	pxDelayedTaskList = &xDelayedTaskList1;
  401a52:	f8c2 8000 	str.w	r8, [r2]
  401a56:	f8df 8060 	ldr.w	r8, [pc, #96]	; 401ab8 <xTaskGenericCreate.part.5+0x200>
	pxOverflowDelayedTaskList = &xDelayedTaskList2;
  401a5a:	f8c3 9000 	str.w	r9, [r3]
  401a5e:	e78f      	b.n	401980 <xTaskGenericCreate.part.5+0xc8>
  401a60:	00400fe1 	.word	0x00400fe1
  401a64:	00403559 	.word	0x00403559
  401a68:	00400c59 	.word	0x00400c59
  401a6c:	00400d41 	.word	0x00400d41
  401a70:	00400d91 	.word	0x00400d91
  401a74:	20400ad0 	.word	0x20400ad0
  401a78:	20400a60 	.word	0x20400a60
  401a7c:	00400c61 	.word	0x00400c61
  401a80:	00400ddd 	.word	0x00400ddd
  401a84:	e000ed04 	.word	0xe000ed04
  401a88:	00401015 	.word	0x00401015
  401a8c:	00400c41 	.word	0x00400c41
  401a90:	20400a6c 	.word	0x20400a6c
  401a94:	20400a80 	.word	0x20400a80
  401a98:	20400a94 	.word	0x20400a94
  401a9c:	20400aa8 	.word	0x20400aa8
  401aa0:	20400abc 	.word	0x20400abc
  401aa4:	20400b18 	.word	0x20400b18
  401aa8:	20400b44 	.word	0x20400b44
  401aac:	20400b30 	.word	0x20400b30
  401ab0:	20400a64 	.word	0x20400a64
  401ab4:	20400a68 	.word	0x20400a68
  401ab8:	20400b2c 	.word	0x20400b2c
  401abc:	20400adc 	.word	0x20400adc
  401ac0:	20400ae4 	.word	0x20400ae4
  401ac4:	20400ae8 	.word	0x20400ae8
  401ac8:	20400afc 	.word	0x20400afc

00401acc <prvTaskIsTaskSuspended.part.0>:
  401acc:	f04f 0380 	mov.w	r3, #128	; 0x80
  401ad0:	b672      	cpsid	i
  401ad2:	f383 8811 	msr	BASEPRI, r3
  401ad6:	f3bf 8f6f 	isb	sy
  401ada:	f3bf 8f4f 	dsb	sy
  401ade:	b662      	cpsie	i
  401ae0:	e7fe      	b.n	401ae0 <prvTaskIsTaskSuspended.part.0+0x14>
  401ae2:	bf00      	nop

00401ae4 <xTaskGenericCreate>:
{
  401ae4:	b470      	push	{r4, r5, r6}
  401ae6:	ac03      	add	r4, sp, #12
  401ae8:	cc70      	ldmia	r4, {r4, r5, r6}
	configASSERT( pxTaskCode );
  401aea:	b160      	cbz	r0, 401b06 <xTaskGenericCreate+0x22>
	configASSERT( ( ( uxPriority & ( UBaseType_t ) ( ~portPRIVILEGE_BIT ) ) < ( UBaseType_t ) configMAX_PRIORITIES ) );
  401aec:	2c04      	cmp	r4, #4
  401aee:	d915      	bls.n	401b1c <xTaskGenericCreate+0x38>
  401af0:	f04f 0380 	mov.w	r3, #128	; 0x80
  401af4:	b672      	cpsid	i
  401af6:	f383 8811 	msr	BASEPRI, r3
  401afa:	f3bf 8f6f 	isb	sy
  401afe:	f3bf 8f4f 	dsb	sy
  401b02:	b662      	cpsie	i
  401b04:	e7fe      	b.n	401b04 <xTaskGenericCreate+0x20>
  401b06:	f04f 0380 	mov.w	r3, #128	; 0x80
  401b0a:	b672      	cpsid	i
  401b0c:	f383 8811 	msr	BASEPRI, r3
  401b10:	f3bf 8f6f 	isb	sy
  401b14:	f3bf 8f4f 	dsb	sy
  401b18:	b662      	cpsie	i
  401b1a:	e7fe      	b.n	401b1a <xTaskGenericCreate+0x36>
  401b1c:	9403      	str	r4, [sp, #12]
  401b1e:	4c03      	ldr	r4, [pc, #12]	; (401b2c <xTaskGenericCreate+0x48>)
  401b20:	9605      	str	r6, [sp, #20]
  401b22:	9504      	str	r5, [sp, #16]
  401b24:	46a4      	mov	ip, r4
}
  401b26:	bc70      	pop	{r4, r5, r6}
  401b28:	4760      	bx	ip
  401b2a:	bf00      	nop
  401b2c:	004018b9 	.word	0x004018b9

00401b30 <vTaskStartScheduler>:
{
  401b30:	b570      	push	{r4, r5, r6, lr}
  401b32:	2400      	movs	r4, #0
  401b34:	b084      	sub	sp, #16
  401b36:	f44f 6200 	mov.w	r2, #2048	; 0x800
  401b3a:	4919      	ldr	r1, [pc, #100]	; (401ba0 <vTaskStartScheduler+0x70>)
  401b3c:	9402      	str	r4, [sp, #8]
  401b3e:	4623      	mov	r3, r4
  401b40:	9401      	str	r4, [sp, #4]
  401b42:	9400      	str	r4, [sp, #0]
  401b44:	4817      	ldr	r0, [pc, #92]	; (401ba4 <vTaskStartScheduler+0x74>)
  401b46:	4d18      	ldr	r5, [pc, #96]	; (401ba8 <vTaskStartScheduler+0x78>)
  401b48:	47a8      	blx	r5
		if( xReturn == pdPASS )
  401b4a:	2801      	cmp	r0, #1
  401b4c:	d00d      	beq.n	401b6a <vTaskStartScheduler+0x3a>
		configASSERT( xReturn );
  401b4e:	b950      	cbnz	r0, 401b66 <vTaskStartScheduler+0x36>
  401b50:	f04f 0380 	mov.w	r3, #128	; 0x80
  401b54:	b672      	cpsid	i
  401b56:	f383 8811 	msr	BASEPRI, r3
  401b5a:	f3bf 8f6f 	isb	sy
  401b5e:	f3bf 8f4f 	dsb	sy
  401b62:	b662      	cpsie	i
  401b64:	e7fe      	b.n	401b64 <vTaskStartScheduler+0x34>
}
  401b66:	b004      	add	sp, #16
  401b68:	bd70      	pop	{r4, r5, r6, pc}
			xReturn = xTimerCreateTimerTask();
  401b6a:	4b10      	ldr	r3, [pc, #64]	; (401bac <vTaskStartScheduler+0x7c>)
  401b6c:	4798      	blx	r3
	if( xReturn == pdPASS )
  401b6e:	2801      	cmp	r0, #1
  401b70:	d1ed      	bne.n	401b4e <vTaskStartScheduler+0x1e>
  401b72:	f04f 0380 	mov.w	r3, #128	; 0x80
  401b76:	b672      	cpsid	i
  401b78:	f383 8811 	msr	BASEPRI, r3
  401b7c:	f3bf 8f6f 	isb	sy
  401b80:	f3bf 8f4f 	dsb	sy
  401b84:	b662      	cpsie	i
		xNextTaskUnblockTime = portMAX_DELAY;
  401b86:	4d0a      	ldr	r5, [pc, #40]	; (401bb0 <vTaskStartScheduler+0x80>)
  401b88:	f04f 36ff 	mov.w	r6, #4294967295
		xSchedulerRunning = pdTRUE;
  401b8c:	4909      	ldr	r1, [pc, #36]	; (401bb4 <vTaskStartScheduler+0x84>)
		xTickCount = ( TickType_t ) 0U;
  401b8e:	4a0a      	ldr	r2, [pc, #40]	; (401bb8 <vTaskStartScheduler+0x88>)
		if( xPortStartScheduler() != pdFALSE )
  401b90:	4b0a      	ldr	r3, [pc, #40]	; (401bbc <vTaskStartScheduler+0x8c>)
		xNextTaskUnblockTime = portMAX_DELAY;
  401b92:	602e      	str	r6, [r5, #0]
		xSchedulerRunning = pdTRUE;
  401b94:	6008      	str	r0, [r1, #0]
		xTickCount = ( TickType_t ) 0U;
  401b96:	6014      	str	r4, [r2, #0]
}
  401b98:	b004      	add	sp, #16
  401b9a:	e8bd 4070 	ldmia.w	sp!, {r4, r5, r6, lr}
		if( xPortStartScheduler() != pdFALSE )
  401b9e:	4718      	bx	r3
  401ba0:	00405de4 	.word	0x00405de4
  401ba4:	00401f01 	.word	0x00401f01
  401ba8:	004018b9 	.word	0x004018b9
  401bac:	00402541 	.word	0x00402541
  401bb0:	20400b10 	.word	0x20400b10
  401bb4:	20400b2c 	.word	0x20400b2c
  401bb8:	20400b58 	.word	0x20400b58
  401bbc:	00400ec5 	.word	0x00400ec5

00401bc0 <vTaskSuspendAll>:
	++uxSchedulerSuspended;
  401bc0:	4a02      	ldr	r2, [pc, #8]	; (401bcc <vTaskSuspendAll+0xc>)
  401bc2:	6813      	ldr	r3, [r2, #0]
  401bc4:	3301      	adds	r3, #1
  401bc6:	6013      	str	r3, [r2, #0]
  401bc8:	4770      	bx	lr
  401bca:	bf00      	nop
  401bcc:	20400ad8 	.word	0x20400ad8

00401bd0 <xTaskGetTickCount>:
		xTicks = xTickCount;
  401bd0:	4b01      	ldr	r3, [pc, #4]	; (401bd8 <xTaskGetTickCount+0x8>)
  401bd2:	6818      	ldr	r0, [r3, #0]
}
  401bd4:	4770      	bx	lr
  401bd6:	bf00      	nop
  401bd8:	20400b58 	.word	0x20400b58

00401bdc <xTaskIncrementTick>:
{
  401bdc:	e92d 4ff8 	stmdb	sp!, {r3, r4, r5, r6, r7, r8, r9, sl, fp, lr}
	if( uxSchedulerSuspended == ( UBaseType_t ) pdFALSE )
  401be0:	4b4c      	ldr	r3, [pc, #304]	; (401d14 <xTaskIncrementTick+0x138>)
  401be2:	681b      	ldr	r3, [r3, #0]
  401be4:	2b00      	cmp	r3, #0
  401be6:	d170      	bne.n	401cca <xTaskIncrementTick+0xee>
		++xTickCount;
  401be8:	4b4b      	ldr	r3, [pc, #300]	; (401d18 <xTaskIncrementTick+0x13c>)
  401bea:	681a      	ldr	r2, [r3, #0]
  401bec:	3201      	adds	r2, #1
  401bee:	601a      	str	r2, [r3, #0]
			const TickType_t xConstTickCount = xTickCount;
  401bf0:	681e      	ldr	r6, [r3, #0]
			if( xConstTickCount == ( TickType_t ) 0U )
  401bf2:	2e00      	cmp	r6, #0
  401bf4:	d05a      	beq.n	401cac <xTaskIncrementTick+0xd0>
  401bf6:	f8df a150 	ldr.w	sl, [pc, #336]	; 401d48 <xTaskIncrementTick+0x16c>
			if( xConstTickCount >= xNextTaskUnblockTime )
  401bfa:	f8da 2000 	ldr.w	r2, [sl]
  401bfe:	2400      	movs	r4, #0
  401c00:	4296      	cmp	r6, r2
  401c02:	d36a      	bcc.n	401cda <xTaskIncrementTick+0xfe>
  401c04:	4d45      	ldr	r5, [pc, #276]	; (401d1c <xTaskIncrementTick+0x140>)
  401c06:	4f46      	ldr	r7, [pc, #280]	; (401d20 <xTaskIncrementTick+0x144>)
  401c08:	f8df 8140 	ldr.w	r8, [pc, #320]	; 401d4c <xTaskIncrementTick+0x170>
  401c0c:	e02f      	b.n	401c6e <xTaskIncrementTick+0x92>
						pxTCB = ( TCB_t * ) listGET_OWNER_OF_HEAD_ENTRY( pxDelayedTaskList );
  401c0e:	682a      	ldr	r2, [r5, #0]
  401c10:	68d2      	ldr	r2, [r2, #12]
  401c12:	f8d2 900c 	ldr.w	r9, [r2, #12]
						xItemValue = listGET_LIST_ITEM_VALUE( &( pxTCB->xGenericListItem ) );
  401c16:	f8d9 1004 	ldr.w	r1, [r9, #4]
						( void ) uxListRemove( &( pxTCB->xGenericListItem ) );
  401c1a:	f109 0b04 	add.w	fp, r9, #4
						if( xConstTickCount < xItemValue )
  401c1e:	428e      	cmp	r6, r1
						( void ) uxListRemove( &( pxTCB->xGenericListItem ) );
  401c20:	4658      	mov	r0, fp
						if( xConstTickCount < xItemValue )
  401c22:	d36d      	bcc.n	401d00 <xTaskIncrementTick+0x124>
						( void ) uxListRemove( &( pxTCB->xGenericListItem ) );
  401c24:	4b3f      	ldr	r3, [pc, #252]	; (401d24 <xTaskIncrementTick+0x148>)
  401c26:	4798      	blx	r3
						if( listLIST_ITEM_CONTAINER( &( pxTCB->xEventListItem ) ) != NULL )
  401c28:	f8d9 1028 	ldr.w	r1, [r9, #40]	; 0x28
							( void ) uxListRemove( &( pxTCB->xEventListItem ) );
  401c2c:	f109 0018 	add.w	r0, r9, #24
						if( listLIST_ITEM_CONTAINER( &( pxTCB->xEventListItem ) ) != NULL )
  401c30:	b109      	cbz	r1, 401c36 <xTaskIncrementTick+0x5a>
							( void ) uxListRemove( &( pxTCB->xEventListItem ) );
  401c32:	4b3c      	ldr	r3, [pc, #240]	; (401d24 <xTaskIncrementTick+0x148>)
  401c34:	4798      	blx	r3
						prvAddTaskToReadyList( pxTCB );
  401c36:	f8d9 002c 	ldr.w	r0, [r9, #44]	; 0x2c
  401c3a:	f04f 0e01 	mov.w	lr, #1
  401c3e:	4b3a      	ldr	r3, [pc, #232]	; (401d28 <xTaskIncrementTick+0x14c>)
  401c40:	4659      	mov	r1, fp
  401c42:	fa0e fe00 	lsl.w	lr, lr, r0
  401c46:	eb00 0080 	add.w	r0, r0, r0, lsl #2
  401c4a:	681b      	ldr	r3, [r3, #0]
  401c4c:	eb07 0080 	add.w	r0, r7, r0, lsl #2
  401c50:	ea4e 0e03 	orr.w	lr, lr, r3
  401c54:	4b34      	ldr	r3, [pc, #208]	; (401d28 <xTaskIncrementTick+0x14c>)
  401c56:	f8c3 e000 	str.w	lr, [r3]
  401c5a:	4b34      	ldr	r3, [pc, #208]	; (401d2c <xTaskIncrementTick+0x150>)
  401c5c:	4798      	blx	r3
							if( pxTCB->uxPriority >= pxCurrentTCB->uxPriority )
  401c5e:	f8d8 0000 	ldr.w	r0, [r8]
  401c62:	f8d9 102c 	ldr.w	r1, [r9, #44]	; 0x2c
  401c66:	6ac2      	ldr	r2, [r0, #44]	; 0x2c
								xSwitchRequired = pdTRUE;
  401c68:	4291      	cmp	r1, r2
  401c6a:	bf28      	it	cs
  401c6c:	2401      	movcs	r4, #1
					if( listLIST_IS_EMPTY( pxDelayedTaskList ) != pdFALSE )
  401c6e:	682a      	ldr	r2, [r5, #0]
  401c70:	6812      	ldr	r2, [r2, #0]
  401c72:	2a00      	cmp	r2, #0
  401c74:	d1cb      	bne.n	401c0e <xTaskIncrementTick+0x32>
						xNextTaskUnblockTime = portMAX_DELAY;
  401c76:	f04f 32ff 	mov.w	r2, #4294967295
  401c7a:	f8ca 2000 	str.w	r2, [sl]
			if( listCURRENT_LIST_LENGTH( &( pxReadyTasksLists[ pxCurrentTCB->uxPriority ] ) ) > ( UBaseType_t ) 1 )
  401c7e:	f8d8 3000 	ldr.w	r3, [r8]
			if( uxPendedTicks == ( UBaseType_t ) 0U )
  401c82:	4a2b      	ldr	r2, [pc, #172]	; (401d30 <xTaskIncrementTick+0x154>)
			if( listCURRENT_LIST_LENGTH( &( pxReadyTasksLists[ pxCurrentTCB->uxPriority ] ) ) > ( UBaseType_t ) 1 )
  401c84:	6adb      	ldr	r3, [r3, #44]	; 0x2c
			if( uxPendedTicks == ( UBaseType_t ) 0U )
  401c86:	6812      	ldr	r2, [r2, #0]
			if( listCURRENT_LIST_LENGTH( &( pxReadyTasksLists[ pxCurrentTCB->uxPriority ] ) ) > ( UBaseType_t ) 1 )
  401c88:	eb03 0383 	add.w	r3, r3, r3, lsl #2
  401c8c:	f857 3023 	ldr.w	r3, [r7, r3, lsl #2]
				xSwitchRequired = pdTRUE;
  401c90:	2b02      	cmp	r3, #2
  401c92:	bf28      	it	cs
  401c94:	2401      	movcs	r4, #1
			if( uxPendedTicks == ( UBaseType_t ) 0U )
  401c96:	b90a      	cbnz	r2, 401c9c <xTaskIncrementTick+0xc0>
				vApplicationTickHook();
  401c98:	4b26      	ldr	r3, [pc, #152]	; (401d34 <xTaskIncrementTick+0x158>)
  401c9a:	4798      	blx	r3
		if( xYieldPending != pdFALSE )
  401c9c:	4b26      	ldr	r3, [pc, #152]	; (401d38 <xTaskIncrementTick+0x15c>)
  401c9e:	681b      	ldr	r3, [r3, #0]
			xSwitchRequired = pdTRUE;
  401ca0:	2b00      	cmp	r3, #0
  401ca2:	bf18      	it	ne
  401ca4:	2401      	movne	r4, #1
}
  401ca6:	4620      	mov	r0, r4
  401ca8:	e8bd 8ff8 	ldmia.w	sp!, {r3, r4, r5, r6, r7, r8, r9, sl, fp, pc}
				taskSWITCH_DELAYED_LISTS();
  401cac:	4d1b      	ldr	r5, [pc, #108]	; (401d1c <xTaskIncrementTick+0x140>)
  401cae:	682b      	ldr	r3, [r5, #0]
  401cb0:	681b      	ldr	r3, [r3, #0]
  401cb2:	b1b3      	cbz	r3, 401ce2 <xTaskIncrementTick+0x106>
  401cb4:	f04f 0380 	mov.w	r3, #128	; 0x80
  401cb8:	b672      	cpsid	i
  401cba:	f383 8811 	msr	BASEPRI, r3
  401cbe:	f3bf 8f6f 	isb	sy
  401cc2:	f3bf 8f4f 	dsb	sy
  401cc6:	b662      	cpsie	i
  401cc8:	e7fe      	b.n	401cc8 <xTaskIncrementTick+0xec>
		++uxPendedTicks;
  401cca:	4a19      	ldr	r2, [pc, #100]	; (401d30 <xTaskIncrementTick+0x154>)
BaseType_t xSwitchRequired = pdFALSE;
  401ccc:	2400      	movs	r4, #0
			vApplicationTickHook();
  401cce:	4919      	ldr	r1, [pc, #100]	; (401d34 <xTaskIncrementTick+0x158>)
		++uxPendedTicks;
  401cd0:	6813      	ldr	r3, [r2, #0]
  401cd2:	3301      	adds	r3, #1
  401cd4:	6013      	str	r3, [r2, #0]
			vApplicationTickHook();
  401cd6:	4788      	blx	r1
  401cd8:	e7e0      	b.n	401c9c <xTaskIncrementTick+0xc0>
  401cda:	4f11      	ldr	r7, [pc, #68]	; (401d20 <xTaskIncrementTick+0x144>)
  401cdc:	f8df 806c 	ldr.w	r8, [pc, #108]	; 401d4c <xTaskIncrementTick+0x170>
  401ce0:	e7cd      	b.n	401c7e <xTaskIncrementTick+0xa2>
				taskSWITCH_DELAYED_LISTS();
  401ce2:	4b16      	ldr	r3, [pc, #88]	; (401d3c <xTaskIncrementTick+0x160>)
  401ce4:	6829      	ldr	r1, [r5, #0]
  401ce6:	4a16      	ldr	r2, [pc, #88]	; (401d40 <xTaskIncrementTick+0x164>)
  401ce8:	6818      	ldr	r0, [r3, #0]
  401cea:	6028      	str	r0, [r5, #0]
  401cec:	6019      	str	r1, [r3, #0]
  401cee:	6813      	ldr	r3, [r2, #0]
  401cf0:	3301      	adds	r3, #1
  401cf2:	6013      	str	r3, [r2, #0]
	if( listLIST_IS_EMPTY( pxDelayedTaskList ) != pdFALSE )
  401cf4:	682b      	ldr	r3, [r5, #0]
  401cf6:	681b      	ldr	r3, [r3, #0]
  401cf8:	b12b      	cbz	r3, 401d06 <xTaskIncrementTick+0x12a>
  401cfa:	4b12      	ldr	r3, [pc, #72]	; (401d44 <xTaskIncrementTick+0x168>)
  401cfc:	4798      	blx	r3
  401cfe:	e77a      	b.n	401bf6 <xTaskIncrementTick+0x1a>
							xNextTaskUnblockTime = xItemValue;
  401d00:	f8ca 1000 	str.w	r1, [sl]
							break;
  401d04:	e7bb      	b.n	401c7e <xTaskIncrementTick+0xa2>
		xNextTaskUnblockTime = portMAX_DELAY;
  401d06:	f8df a040 	ldr.w	sl, [pc, #64]	; 401d48 <xTaskIncrementTick+0x16c>
  401d0a:	f04f 32ff 	mov.w	r2, #4294967295
  401d0e:	f8ca 2000 	str.w	r2, [sl]
  401d12:	e772      	b.n	401bfa <xTaskIncrementTick+0x1e>
  401d14:	20400ad8 	.word	0x20400ad8
  401d18:	20400b58 	.word	0x20400b58
  401d1c:	20400a64 	.word	0x20400a64
  401d20:	20400a6c 	.word	0x20400a6c
  401d24:	00400cad 	.word	0x00400cad
  401d28:	20400ae4 	.word	0x20400ae4
  401d2c:	00400c61 	.word	0x00400c61
  401d30:	20400ad4 	.word	0x20400ad4
  401d34:	00402bcd 	.word	0x00402bcd
  401d38:	20400b5c 	.word	0x20400b5c
  401d3c:	20400a68 	.word	0x20400a68
  401d40:	20400b14 	.word	0x20400b14
  401d44:	00401851 	.word	0x00401851
  401d48:	20400b10 	.word	0x20400b10
  401d4c:	20400a60 	.word	0x20400a60

00401d50 <xTaskResumeAll>:
{
  401d50:	e92d 4ff0 	stmdb	sp!, {r4, r5, r6, r7, r8, r9, sl, fp, lr}
	configASSERT( uxSchedulerSuspended );
  401d54:	4c38      	ldr	r4, [pc, #224]	; (401e38 <xTaskResumeAll+0xe8>)
{
  401d56:	b083      	sub	sp, #12
	configASSERT( uxSchedulerSuspended );
  401d58:	6823      	ldr	r3, [r4, #0]
  401d5a:	b953      	cbnz	r3, 401d72 <xTaskResumeAll+0x22>
  401d5c:	f04f 0380 	mov.w	r3, #128	; 0x80
  401d60:	b672      	cpsid	i
  401d62:	f383 8811 	msr	BASEPRI, r3
  401d66:	f3bf 8f6f 	isb	sy
  401d6a:	f3bf 8f4f 	dsb	sy
  401d6e:	b662      	cpsie	i
  401d70:	e7fe      	b.n	401d70 <xTaskResumeAll+0x20>
	taskENTER_CRITICAL();
  401d72:	4b32      	ldr	r3, [pc, #200]	; (401e3c <xTaskResumeAll+0xec>)
  401d74:	4798      	blx	r3
		--uxSchedulerSuspended;
  401d76:	6823      	ldr	r3, [r4, #0]
  401d78:	3b01      	subs	r3, #1
  401d7a:	6023      	str	r3, [r4, #0]
		if( uxSchedulerSuspended == ( UBaseType_t ) pdFALSE )
  401d7c:	6823      	ldr	r3, [r4, #0]
  401d7e:	2b00      	cmp	r3, #0
  401d80:	d137      	bne.n	401df2 <xTaskResumeAll+0xa2>
			if( uxCurrentNumberOfTasks > ( UBaseType_t ) 0U )
  401d82:	4b2f      	ldr	r3, [pc, #188]	; (401e40 <xTaskResumeAll+0xf0>)
  401d84:	681b      	ldr	r3, [r3, #0]
  401d86:	2b00      	cmp	r3, #0
  401d88:	d033      	beq.n	401df2 <xTaskResumeAll+0xa2>
  401d8a:	f8df b0d8 	ldr.w	fp, [pc, #216]	; 401e64 <xTaskResumeAll+0x114>
  401d8e:	4b2d      	ldr	r3, [pc, #180]	; (401e44 <xTaskResumeAll+0xf4>)
					( void ) uxListRemove( &( pxTCB->xEventListItem ) );
  401d90:	4e2d      	ldr	r6, [pc, #180]	; (401e48 <xTaskResumeAll+0xf8>)
					prvAddTaskToReadyList( pxTCB );
  401d92:	4d2e      	ldr	r5, [pc, #184]	; (401e4c <xTaskResumeAll+0xfc>)
  401d94:	f8df a0d0 	ldr.w	sl, [pc, #208]	; 401e68 <xTaskResumeAll+0x118>
  401d98:	f8df 90d0 	ldr.w	r9, [pc, #208]	; 401e6c <xTaskResumeAll+0x11c>
  401d9c:	e01e      	b.n	401ddc <xTaskResumeAll+0x8c>
					pxTCB = ( TCB_t * ) listGET_OWNER_OF_HEAD_ENTRY( ( &xPendingReadyList ) );
  401d9e:	68da      	ldr	r2, [r3, #12]
  401da0:	9301      	str	r3, [sp, #4]
  401da2:	68d4      	ldr	r4, [r2, #12]
					( void ) uxListRemove( &( pxTCB->xGenericListItem ) );
  401da4:	f104 0804 	add.w	r8, r4, #4
					( void ) uxListRemove( &( pxTCB->xEventListItem ) );
  401da8:	f104 0018 	add.w	r0, r4, #24
  401dac:	47b0      	blx	r6
					( void ) uxListRemove( &( pxTCB->xGenericListItem ) );
  401dae:	4640      	mov	r0, r8
  401db0:	47b0      	blx	r6
					prvAddTaskToReadyList( pxTCB );
  401db2:	6ae0      	ldr	r0, [r4, #44]	; 0x2c
  401db4:	f8d5 e000 	ldr.w	lr, [r5]
  401db8:	4641      	mov	r1, r8
  401dba:	fa07 f200 	lsl.w	r2, r7, r0
  401dbe:	eb00 0080 	add.w	r0, r0, r0, lsl #2
  401dc2:	ea42 020e 	orr.w	r2, r2, lr
  401dc6:	eb0a 0080 	add.w	r0, sl, r0, lsl #2
  401dca:	602a      	str	r2, [r5, #0]
  401dcc:	47c8      	blx	r9
					if( pxTCB->uxPriority >= pxCurrentTCB->uxPriority )
  401dce:	4a20      	ldr	r2, [pc, #128]	; (401e50 <xTaskResumeAll+0x100>)
  401dd0:	6ae1      	ldr	r1, [r4, #44]	; 0x2c
  401dd2:	6812      	ldr	r2, [r2, #0]
  401dd4:	9b01      	ldr	r3, [sp, #4]
  401dd6:	6ad2      	ldr	r2, [r2, #44]	; 0x2c
  401dd8:	4291      	cmp	r1, r2
  401dda:	d211      	bcs.n	401e00 <xTaskResumeAll+0xb0>
				while( listLIST_IS_EMPTY( &xPendingReadyList ) == pdFALSE )
  401ddc:	681a      	ldr	r2, [r3, #0]
					prvAddTaskToReadyList( pxTCB );
  401dde:	2701      	movs	r7, #1
				while( listLIST_IS_EMPTY( &xPendingReadyList ) == pdFALSE )
  401de0:	2a00      	cmp	r2, #0
  401de2:	d1dc      	bne.n	401d9e <xTaskResumeAll+0x4e>
				if( uxPendedTicks > ( UBaseType_t ) 0U )
  401de4:	4c1b      	ldr	r4, [pc, #108]	; (401e54 <xTaskResumeAll+0x104>)
  401de6:	6823      	ldr	r3, [r4, #0]
  401de8:	b96b      	cbnz	r3, 401e06 <xTaskResumeAll+0xb6>
				if( xYieldPending == pdTRUE )
  401dea:	f8db 4000 	ldr.w	r4, [fp]
  401dee:	2c01      	cmp	r4, #1
  401df0:	d019      	beq.n	401e26 <xTaskResumeAll+0xd6>
BaseType_t xAlreadyYielded = pdFALSE;
  401df2:	2400      	movs	r4, #0
	taskEXIT_CRITICAL();
  401df4:	4b18      	ldr	r3, [pc, #96]	; (401e58 <xTaskResumeAll+0x108>)
  401df6:	4798      	blx	r3
}
  401df8:	4620      	mov	r0, r4
  401dfa:	b003      	add	sp, #12
  401dfc:	e8bd 8ff0 	ldmia.w	sp!, {r4, r5, r6, r7, r8, r9, sl, fp, pc}
						xYieldPending = pdTRUE;
  401e00:	f8cb 7000 	str.w	r7, [fp]
  401e04:	e7ea      	b.n	401ddc <xTaskResumeAll+0x8c>
					while( uxPendedTicks > ( UBaseType_t ) 0U )
  401e06:	6823      	ldr	r3, [r4, #0]
  401e08:	2b00      	cmp	r3, #0
  401e0a:	d0ee      	beq.n	401dea <xTaskResumeAll+0x9a>
  401e0c:	4e13      	ldr	r6, [pc, #76]	; (401e5c <xTaskResumeAll+0x10c>)
							xYieldPending = pdTRUE;
  401e0e:	2501      	movs	r5, #1
						if( xTaskIncrementTick() != pdFALSE )
  401e10:	47b0      	blx	r6
  401e12:	b108      	cbz	r0, 401e18 <xTaskResumeAll+0xc8>
							xYieldPending = pdTRUE;
  401e14:	f8cb 5000 	str.w	r5, [fp]
						--uxPendedTicks;
  401e18:	6823      	ldr	r3, [r4, #0]
  401e1a:	3b01      	subs	r3, #1
  401e1c:	6023      	str	r3, [r4, #0]
					while( uxPendedTicks > ( UBaseType_t ) 0U )
  401e1e:	6823      	ldr	r3, [r4, #0]
  401e20:	2b00      	cmp	r3, #0
  401e22:	d1f5      	bne.n	401e10 <xTaskResumeAll+0xc0>
  401e24:	e7e1      	b.n	401dea <xTaskResumeAll+0x9a>
					taskYIELD_IF_USING_PREEMPTION();
  401e26:	4b0e      	ldr	r3, [pc, #56]	; (401e60 <xTaskResumeAll+0x110>)
  401e28:	f04f 5280 	mov.w	r2, #268435456	; 0x10000000
  401e2c:	601a      	str	r2, [r3, #0]
  401e2e:	f3bf 8f4f 	dsb	sy
  401e32:	f3bf 8f6f 	isb	sy
  401e36:	e7dd      	b.n	401df4 <xTaskResumeAll+0xa4>
  401e38:	20400ad8 	.word	0x20400ad8
  401e3c:	00400d91 	.word	0x00400d91
  401e40:	20400ad0 	.word	0x20400ad0
  401e44:	20400b18 	.word	0x20400b18
  401e48:	00400cad 	.word	0x00400cad
  401e4c:	20400ae4 	.word	0x20400ae4
  401e50:	20400a60 	.word	0x20400a60
  401e54:	20400ad4 	.word	0x20400ad4
  401e58:	00400ddd 	.word	0x00400ddd
  401e5c:	00401bdd 	.word	0x00401bdd
  401e60:	e000ed04 	.word	0xe000ed04
  401e64:	20400b5c 	.word	0x20400b5c
  401e68:	20400a6c 	.word	0x20400a6c
  401e6c:	00400c61 	.word	0x00400c61

00401e70 <vTaskDelay>:
	{
  401e70:	b538      	push	{r3, r4, r5, lr}
		if( xTicksToDelay > ( TickType_t ) 0U )
  401e72:	b168      	cbz	r0, 401e90 <vTaskDelay+0x20>
			configASSERT( uxSchedulerSuspended == 0 );
  401e74:	4b1a      	ldr	r3, [pc, #104]	; (401ee0 <vTaskDelay+0x70>)
  401e76:	681a      	ldr	r2, [r3, #0]
  401e78:	b19a      	cbz	r2, 401ea2 <vTaskDelay+0x32>
  401e7a:	f04f 0380 	mov.w	r3, #128	; 0x80
  401e7e:	b672      	cpsid	i
  401e80:	f383 8811 	msr	BASEPRI, r3
  401e84:	f3bf 8f6f 	isb	sy
  401e88:	f3bf 8f4f 	dsb	sy
  401e8c:	b662      	cpsie	i
  401e8e:	e7fe      	b.n	401e8e <vTaskDelay+0x1e>
			portYIELD_WITHIN_API();
  401e90:	4b14      	ldr	r3, [pc, #80]	; (401ee4 <vTaskDelay+0x74>)
  401e92:	f04f 5280 	mov.w	r2, #268435456	; 0x10000000
  401e96:	601a      	str	r2, [r3, #0]
  401e98:	f3bf 8f4f 	dsb	sy
  401e9c:	f3bf 8f6f 	isb	sy
  401ea0:	bd38      	pop	{r3, r4, r5, pc}
	++uxSchedulerSuspended;
  401ea2:	681a      	ldr	r2, [r3, #0]
  401ea4:	4604      	mov	r4, r0
				if( uxListRemove( &( pxCurrentTCB->xGenericListItem ) ) == ( UBaseType_t ) 0 )
  401ea6:	4d10      	ldr	r5, [pc, #64]	; (401ee8 <vTaskDelay+0x78>)
				xTimeToWake = xTickCount + xTicksToDelay;
  401ea8:	4810      	ldr	r0, [pc, #64]	; (401eec <vTaskDelay+0x7c>)
	++uxSchedulerSuspended;
  401eaa:	3201      	adds	r2, #1
				if( uxListRemove( &( pxCurrentTCB->xGenericListItem ) ) == ( UBaseType_t ) 0 )
  401eac:	4910      	ldr	r1, [pc, #64]	; (401ef0 <vTaskDelay+0x80>)
	++uxSchedulerSuspended;
  401eae:	601a      	str	r2, [r3, #0]
				xTimeToWake = xTickCount + xTicksToDelay;
  401eb0:	6803      	ldr	r3, [r0, #0]
				if( uxListRemove( &( pxCurrentTCB->xGenericListItem ) ) == ( UBaseType_t ) 0 )
  401eb2:	6828      	ldr	r0, [r5, #0]
				xTimeToWake = xTickCount + xTicksToDelay;
  401eb4:	441c      	add	r4, r3
				if( uxListRemove( &( pxCurrentTCB->xGenericListItem ) ) == ( UBaseType_t ) 0 )
  401eb6:	3004      	adds	r0, #4
  401eb8:	4788      	blx	r1
  401eba:	b940      	cbnz	r0, 401ece <vTaskDelay+0x5e>
					portRESET_READY_PRIORITY( pxCurrentTCB->uxPriority, uxTopReadyPriority );
  401ebc:	682b      	ldr	r3, [r5, #0]
  401ebe:	2201      	movs	r2, #1
  401ec0:	490c      	ldr	r1, [pc, #48]	; (401ef4 <vTaskDelay+0x84>)
  401ec2:	6ad8      	ldr	r0, [r3, #44]	; 0x2c
  401ec4:	680b      	ldr	r3, [r1, #0]
  401ec6:	4082      	lsls	r2, r0
  401ec8:	ea23 0302 	bic.w	r3, r3, r2
  401ecc:	600b      	str	r3, [r1, #0]
				prvAddCurrentTaskToDelayedList( xTimeToWake );
  401ece:	4b0a      	ldr	r3, [pc, #40]	; (401ef8 <vTaskDelay+0x88>)
  401ed0:	4620      	mov	r0, r4
  401ed2:	4798      	blx	r3
			xAlreadyYielded = xTaskResumeAll();
  401ed4:	4b09      	ldr	r3, [pc, #36]	; (401efc <vTaskDelay+0x8c>)
  401ed6:	4798      	blx	r3
		if( xAlreadyYielded == pdFALSE )
  401ed8:	2800      	cmp	r0, #0
  401eda:	d0d9      	beq.n	401e90 <vTaskDelay+0x20>
  401edc:	bd38      	pop	{r3, r4, r5, pc}
  401ede:	bf00      	nop
  401ee0:	20400ad8 	.word	0x20400ad8
  401ee4:	e000ed04 	.word	0xe000ed04
  401ee8:	20400a60 	.word	0x20400a60
  401eec:	20400b58 	.word	0x20400b58
  401ef0:	00400cad 	.word	0x00400cad
  401ef4:	20400ae4 	.word	0x20400ae4
  401ef8:	00401869 	.word	0x00401869
  401efc:	00401d51 	.word	0x00401d51

00401f00 <prvIdleTask>:
{
  401f00:	e92d 4888 	stmdb	sp!, {r3, r7, fp, lr}
  401f04:	4c1e      	ldr	r4, [pc, #120]	; (401f80 <prvIdleTask+0x80>)
  401f06:	4e1f      	ldr	r6, [pc, #124]	; (401f84 <prvIdleTask+0x84>)
  401f08:	4f1f      	ldr	r7, [pc, #124]	; (401f88 <prvIdleTask+0x88>)
  401f0a:	f8df 9094 	ldr.w	r9, [pc, #148]	; 401fa0 <prvIdleTask+0xa0>
  401f0e:	f8df 8094 	ldr.w	r8, [pc, #148]	; 401fa4 <prvIdleTask+0xa4>
  401f12:	4d1e      	ldr	r5, [pc, #120]	; (401f8c <prvIdleTask+0x8c>)
  401f14:	f8df a090 	ldr.w	sl, [pc, #144]	; 401fa8 <prvIdleTask+0xa8>
  401f18:	e008      	b.n	401f2c <prvIdleTask+0x2c>
	++uxSchedulerSuspended;
  401f1a:	6823      	ldr	r3, [r4, #0]
				xListIsEmpty = listLIST_IS_EMPTY( &xTasksWaitingTermination );
  401f1c:	f8d6 b000 	ldr.w	fp, [r6]
	++uxSchedulerSuspended;
  401f20:	3301      	adds	r3, #1
  401f22:	6023      	str	r3, [r4, #0]
			( void ) xTaskResumeAll();
  401f24:	47b8      	blx	r7
			if( xListIsEmpty == pdFALSE )
  401f26:	f1bb 0f00 	cmp.w	fp, #0
  401f2a:	d10f      	bne.n	401f4c <prvIdleTask+0x4c>
		while( uxTasksDeleted > ( UBaseType_t ) 0U )
  401f2c:	682b      	ldr	r3, [r5, #0]
  401f2e:	2b00      	cmp	r3, #0
  401f30:	d1f3      	bne.n	401f1a <prvIdleTask+0x1a>
			if( listCURRENT_LIST_LENGTH( &( pxReadyTasksLists[ tskIDLE_PRIORITY ] ) ) > ( UBaseType_t ) 1 )
  401f32:	f8da 3000 	ldr.w	r3, [sl]
  401f36:	2b01      	cmp	r3, #1
  401f38:	d9f8      	bls.n	401f2c <prvIdleTask+0x2c>
				taskYIELD();
  401f3a:	4b15      	ldr	r3, [pc, #84]	; (401f90 <prvIdleTask+0x90>)
  401f3c:	f04f 5280 	mov.w	r2, #268435456	; 0x10000000
  401f40:	601a      	str	r2, [r3, #0]
  401f42:	f3bf 8f4f 	dsb	sy
  401f46:	f3bf 8f6f 	isb	sy
  401f4a:	e7ef      	b.n	401f2c <prvIdleTask+0x2c>
				taskENTER_CRITICAL();
  401f4c:	4b11      	ldr	r3, [pc, #68]	; (401f94 <prvIdleTask+0x94>)
  401f4e:	4798      	blx	r3
					pxTCB = ( TCB_t * ) listGET_OWNER_OF_HEAD_ENTRY( ( &xTasksWaitingTermination ) );
  401f50:	68f3      	ldr	r3, [r6, #12]
  401f52:	f8d3 b00c 	ldr.w	fp, [r3, #12]
					( void ) uxListRemove( &( pxTCB->xGenericListItem ) );
  401f56:	4b10      	ldr	r3, [pc, #64]	; (401f98 <prvIdleTask+0x98>)
  401f58:	f10b 0004 	add.w	r0, fp, #4
  401f5c:	4798      	blx	r3
					--uxCurrentNumberOfTasks;
  401f5e:	f8d9 3000 	ldr.w	r3, [r9]
  401f62:	3b01      	subs	r3, #1
  401f64:	f8c9 3000 	str.w	r3, [r9]
					--uxTasksDeleted;
  401f68:	682b      	ldr	r3, [r5, #0]
  401f6a:	3b01      	subs	r3, #1
  401f6c:	602b      	str	r3, [r5, #0]
				taskEXIT_CRITICAL();
  401f6e:	4b0b      	ldr	r3, [pc, #44]	; (401f9c <prvIdleTask+0x9c>)
  401f70:	4798      	blx	r3
			vPortFreeAligned( pxTCB->pxStack );
  401f72:	f8db 0030 	ldr.w	r0, [fp, #48]	; 0x30
  401f76:	47c0      	blx	r8
		vPortFree( pxTCB );
  401f78:	4658      	mov	r0, fp
  401f7a:	47c0      	blx	r8
  401f7c:	e7d6      	b.n	401f2c <prvIdleTask+0x2c>
  401f7e:	bf00      	nop
  401f80:	20400ad8 	.word	0x20400ad8
  401f84:	20400b44 	.word	0x20400b44
  401f88:	00401d51 	.word	0x00401d51
  401f8c:	20400ae0 	.word	0x20400ae0
  401f90:	e000ed04 	.word	0xe000ed04
  401f94:	00400d91 	.word	0x00400d91
  401f98:	00400cad 	.word	0x00400cad
  401f9c:	00400ddd 	.word	0x00400ddd
  401fa0:	20400ad0 	.word	0x20400ad0
  401fa4:	00401015 	.word	0x00401015
  401fa8:	20400a6c 	.word	0x20400a6c

00401fac <vTaskSwitchContext>:
	if( uxSchedulerSuspended != ( UBaseType_t ) pdFALSE )
  401fac:	4b25      	ldr	r3, [pc, #148]	; (402044 <vTaskSwitchContext+0x98>)
  401fae:	681b      	ldr	r3, [r3, #0]
  401fb0:	2b00      	cmp	r3, #0
  401fb2:	d135      	bne.n	402020 <vTaskSwitchContext+0x74>
		xYieldPending = pdFALSE;
  401fb4:	4a24      	ldr	r2, [pc, #144]	; (402048 <vTaskSwitchContext+0x9c>)
{
  401fb6:	b510      	push	{r4, lr}
		taskCHECK_FOR_STACK_OVERFLOW();
  401fb8:	4c24      	ldr	r4, [pc, #144]	; (40204c <vTaskSwitchContext+0xa0>)
		xYieldPending = pdFALSE;
  401fba:	6013      	str	r3, [r2, #0]
		taskCHECK_FOR_STACK_OVERFLOW();
  401fbc:	6823      	ldr	r3, [r4, #0]
  401fbe:	6b1b      	ldr	r3, [r3, #48]	; 0x30
  401fc0:	681a      	ldr	r2, [r3, #0]
  401fc2:	f1b2 3fa5 	cmp.w	r2, #2779096485	; 0xa5a5a5a5
  401fc6:	d103      	bne.n	401fd0 <vTaskSwitchContext+0x24>
  401fc8:	685a      	ldr	r2, [r3, #4]
  401fca:	f1b2 3fa5 	cmp.w	r2, #2779096485	; 0xa5a5a5a5
  401fce:	d02b      	beq.n	402028 <vTaskSwitchContext+0x7c>
  401fd0:	6820      	ldr	r0, [r4, #0]
  401fd2:	6821      	ldr	r1, [r4, #0]
  401fd4:	4b1e      	ldr	r3, [pc, #120]	; (402050 <vTaskSwitchContext+0xa4>)
  401fd6:	3134      	adds	r1, #52	; 0x34
  401fd8:	4798      	blx	r3
		taskSELECT_HIGHEST_PRIORITY_TASK();
  401fda:	4b1e      	ldr	r3, [pc, #120]	; (402054 <vTaskSwitchContext+0xa8>)
  401fdc:	681b      	ldr	r3, [r3, #0]
		__asm volatile ( "clz %0, %1" : "=r" ( ucReturn ) : "r" ( ulBitmap ) );
  401fde:	fab3 f383 	clz	r3, r3
  401fe2:	b2db      	uxtb	r3, r3
  401fe4:	4a1c      	ldr	r2, [pc, #112]	; (402058 <vTaskSwitchContext+0xac>)
  401fe6:	f1c3 031f 	rsb	r3, r3, #31
  401fea:	eb03 0383 	add.w	r3, r3, r3, lsl #2
  401fee:	009b      	lsls	r3, r3, #2
  401ff0:	58d0      	ldr	r0, [r2, r3]
  401ff2:	18d1      	adds	r1, r2, r3
  401ff4:	b950      	cbnz	r0, 40200c <vTaskSwitchContext+0x60>
	__asm volatile
  401ff6:	f04f 0380 	mov.w	r3, #128	; 0x80
  401ffa:	b672      	cpsid	i
  401ffc:	f383 8811 	msr	BASEPRI, r3
  402000:	f3bf 8f6f 	isb	sy
  402004:	f3bf 8f4f 	dsb	sy
  402008:	b662      	cpsie	i
  40200a:	e7fe      	b.n	40200a <vTaskSwitchContext+0x5e>
  40200c:	3308      	adds	r3, #8
  40200e:	6848      	ldr	r0, [r1, #4]
  402010:	441a      	add	r2, r3
  402012:	6843      	ldr	r3, [r0, #4]
  402014:	4293      	cmp	r3, r2
  402016:	604b      	str	r3, [r1, #4]
  402018:	d00f      	beq.n	40203a <vTaskSwitchContext+0x8e>
  40201a:	68db      	ldr	r3, [r3, #12]
  40201c:	6023      	str	r3, [r4, #0]
  40201e:	bd10      	pop	{r4, pc}
		xYieldPending = pdTRUE;
  402020:	4b09      	ldr	r3, [pc, #36]	; (402048 <vTaskSwitchContext+0x9c>)
  402022:	2201      	movs	r2, #1
  402024:	601a      	str	r2, [r3, #0]
  402026:	4770      	bx	lr
		taskCHECK_FOR_STACK_OVERFLOW();
  402028:	689a      	ldr	r2, [r3, #8]
  40202a:	f1b2 3fa5 	cmp.w	r2, #2779096485	; 0xa5a5a5a5
  40202e:	d1cf      	bne.n	401fd0 <vTaskSwitchContext+0x24>
  402030:	68db      	ldr	r3, [r3, #12]
  402032:	f1b3 3fa5 	cmp.w	r3, #2779096485	; 0xa5a5a5a5
  402036:	d1cb      	bne.n	401fd0 <vTaskSwitchContext+0x24>
  402038:	e7cf      	b.n	401fda <vTaskSwitchContext+0x2e>
		taskSELECT_HIGHEST_PRIORITY_TASK();
  40203a:	685b      	ldr	r3, [r3, #4]
  40203c:	604b      	str	r3, [r1, #4]
  40203e:	68db      	ldr	r3, [r3, #12]
  402040:	6023      	str	r3, [r4, #0]
  402042:	bd10      	pop	{r4, pc}
  402044:	20400ad8 	.word	0x20400ad8
  402048:	20400b5c 	.word	0x20400b5c
  40204c:	20400a60 	.word	0x20400a60
  402050:	00402bb5 	.word	0x00402bb5
  402054:	20400ae4 	.word	0x20400ae4
  402058:	20400a6c 	.word	0x20400a6c

0040205c <vTaskPlaceOnEventList>:
	configASSERT( pxEventList );
  40205c:	b1e8      	cbz	r0, 40209a <vTaskPlaceOnEventList+0x3e>
	vListInsert( pxEventList, &( pxCurrentTCB->xEventListItem ) );
  40205e:	4b18      	ldr	r3, [pc, #96]	; (4020c0 <vTaskPlaceOnEventList+0x64>)
{
  402060:	b570      	push	{r4, r5, r6, lr}
	vListInsert( pxEventList, &( pxCurrentTCB->xEventListItem ) );
  402062:	4d18      	ldr	r5, [pc, #96]	; (4020c4 <vTaskPlaceOnEventList+0x68>)
  402064:	460c      	mov	r4, r1
  402066:	6829      	ldr	r1, [r5, #0]
  402068:	3118      	adds	r1, #24
  40206a:	4798      	blx	r3
	if( uxListRemove( &( pxCurrentTCB->xGenericListItem ) ) == ( UBaseType_t ) 0 )
  40206c:	6828      	ldr	r0, [r5, #0]
  40206e:	4b16      	ldr	r3, [pc, #88]	; (4020c8 <vTaskPlaceOnEventList+0x6c>)
  402070:	3004      	adds	r0, #4
  402072:	4798      	blx	r3
  402074:	b940      	cbnz	r0, 402088 <vTaskPlaceOnEventList+0x2c>
		portRESET_READY_PRIORITY( pxCurrentTCB->uxPriority, uxTopReadyPriority );
  402076:	682b      	ldr	r3, [r5, #0]
  402078:	2201      	movs	r2, #1
  40207a:	4914      	ldr	r1, [pc, #80]	; (4020cc <vTaskPlaceOnEventList+0x70>)
  40207c:	6ad8      	ldr	r0, [r3, #44]	; 0x2c
  40207e:	680b      	ldr	r3, [r1, #0]
  402080:	4082      	lsls	r2, r0
  402082:	ea23 0302 	bic.w	r3, r3, r2
  402086:	600b      	str	r3, [r1, #0]
		if( xTicksToWait == portMAX_DELAY )
  402088:	1c63      	adds	r3, r4, #1
  40208a:	d011      	beq.n	4020b0 <vTaskPlaceOnEventList+0x54>
			xTimeToWake = xTickCount + xTicksToWait;
  40208c:	4a10      	ldr	r2, [pc, #64]	; (4020d0 <vTaskPlaceOnEventList+0x74>)
			prvAddCurrentTaskToDelayedList( xTimeToWake );
  40208e:	4b11      	ldr	r3, [pc, #68]	; (4020d4 <vTaskPlaceOnEventList+0x78>)
			xTimeToWake = xTickCount + xTicksToWait;
  402090:	6810      	ldr	r0, [r2, #0]
			prvAddCurrentTaskToDelayedList( xTimeToWake );
  402092:	4420      	add	r0, r4
}
  402094:	e8bd 4070 	ldmia.w	sp!, {r4, r5, r6, lr}
			prvAddCurrentTaskToDelayedList( xTimeToWake );
  402098:	4718      	bx	r3
  40209a:	f04f 0380 	mov.w	r3, #128	; 0x80
  40209e:	b672      	cpsid	i
  4020a0:	f383 8811 	msr	BASEPRI, r3
  4020a4:	f3bf 8f6f 	isb	sy
  4020a8:	f3bf 8f4f 	dsb	sy
  4020ac:	b662      	cpsie	i
  4020ae:	e7fe      	b.n	4020ae <vTaskPlaceOnEventList+0x52>
			vListInsertEnd( &xSuspendedTaskList, &( pxCurrentTCB->xGenericListItem ) );
  4020b0:	6829      	ldr	r1, [r5, #0]
  4020b2:	4809      	ldr	r0, [pc, #36]	; (4020d8 <vTaskPlaceOnEventList+0x7c>)
  4020b4:	3104      	adds	r1, #4
  4020b6:	4b09      	ldr	r3, [pc, #36]	; (4020dc <vTaskPlaceOnEventList+0x80>)
}
  4020b8:	e8bd 4070 	ldmia.w	sp!, {r4, r5, r6, lr}
			vListInsertEnd( &xSuspendedTaskList, &( pxCurrentTCB->xGenericListItem ) );
  4020bc:	4718      	bx	r3
  4020be:	bf00      	nop
  4020c0:	00400c79 	.word	0x00400c79
  4020c4:	20400a60 	.word	0x20400a60
  4020c8:	00400cad 	.word	0x00400cad
  4020cc:	20400ae4 	.word	0x20400ae4
  4020d0:	20400b58 	.word	0x20400b58
  4020d4:	00401869 	.word	0x00401869
  4020d8:	20400b30 	.word	0x20400b30
  4020dc:	00400c61 	.word	0x00400c61

004020e0 <vTaskPlaceOnEventListRestricted>:
		configASSERT( pxEventList );
  4020e0:	b1f8      	cbz	r0, 402122 <vTaskPlaceOnEventListRestricted+0x42>
	{
  4020e2:	e92d 41f0 	stmdb	sp!, {r4, r5, r6, r7, r8, lr}
		vListInsertEnd( pxEventList, &( pxCurrentTCB->xEventListItem ) );
  4020e6:	4c18      	ldr	r4, [pc, #96]	; (402148 <vTaskPlaceOnEventListRestricted+0x68>)
  4020e8:	460d      	mov	r5, r1
  4020ea:	4f18      	ldr	r7, [pc, #96]	; (40214c <vTaskPlaceOnEventListRestricted+0x6c>)
  4020ec:	4616      	mov	r6, r2
  4020ee:	6821      	ldr	r1, [r4, #0]
  4020f0:	3118      	adds	r1, #24
  4020f2:	47b8      	blx	r7
		if( uxListRemove( &( pxCurrentTCB->xGenericListItem ) ) == ( UBaseType_t ) 0 )
  4020f4:	6820      	ldr	r0, [r4, #0]
  4020f6:	4b16      	ldr	r3, [pc, #88]	; (402150 <vTaskPlaceOnEventListRestricted+0x70>)
  4020f8:	3004      	adds	r0, #4
  4020fa:	4798      	blx	r3
  4020fc:	b940      	cbnz	r0, 402110 <vTaskPlaceOnEventListRestricted+0x30>
			portRESET_READY_PRIORITY( pxCurrentTCB->uxPriority, uxTopReadyPriority );
  4020fe:	6823      	ldr	r3, [r4, #0]
  402100:	2201      	movs	r2, #1
  402102:	4914      	ldr	r1, [pc, #80]	; (402154 <vTaskPlaceOnEventListRestricted+0x74>)
  402104:	6ad8      	ldr	r0, [r3, #44]	; 0x2c
  402106:	680b      	ldr	r3, [r1, #0]
  402108:	4082      	lsls	r2, r0
  40210a:	ea23 0302 	bic.w	r3, r3, r2
  40210e:	600b      	str	r3, [r1, #0]
			if( xWaitIndefinitely == pdTRUE )
  402110:	2e01      	cmp	r6, #1
  402112:	d011      	beq.n	402138 <vTaskPlaceOnEventListRestricted+0x58>
				xTimeToWake = xTickCount + xTicksToWait;
  402114:	4a10      	ldr	r2, [pc, #64]	; (402158 <vTaskPlaceOnEventListRestricted+0x78>)
				prvAddCurrentTaskToDelayedList( xTimeToWake );
  402116:	4b11      	ldr	r3, [pc, #68]	; (40215c <vTaskPlaceOnEventListRestricted+0x7c>)
				xTimeToWake = xTickCount + xTicksToWait;
  402118:	6810      	ldr	r0, [r2, #0]
				prvAddCurrentTaskToDelayedList( xTimeToWake );
  40211a:	4428      	add	r0, r5
	}
  40211c:	e8bd 41f0 	ldmia.w	sp!, {r4, r5, r6, r7, r8, lr}
				prvAddCurrentTaskToDelayedList( xTimeToWake );
  402120:	4718      	bx	r3
  402122:	f04f 0380 	mov.w	r3, #128	; 0x80
  402126:	b672      	cpsid	i
  402128:	f383 8811 	msr	BASEPRI, r3
  40212c:	f3bf 8f6f 	isb	sy
  402130:	f3bf 8f4f 	dsb	sy
  402134:	b662      	cpsie	i
  402136:	e7fe      	b.n	402136 <vTaskPlaceOnEventListRestricted+0x56>
				vListInsertEnd( &xSuspendedTaskList, &( pxCurrentTCB->xGenericListItem ) );
  402138:	6821      	ldr	r1, [r4, #0]
  40213a:	463b      	mov	r3, r7
  40213c:	4808      	ldr	r0, [pc, #32]	; (402160 <vTaskPlaceOnEventListRestricted+0x80>)
  40213e:	3104      	adds	r1, #4
	}
  402140:	e8bd 41f0 	ldmia.w	sp!, {r4, r5, r6, r7, r8, lr}
				vListInsertEnd( &xSuspendedTaskList, &( pxCurrentTCB->xGenericListItem ) );
  402144:	4718      	bx	r3
  402146:	bf00      	nop
  402148:	20400a60 	.word	0x20400a60
  40214c:	00400c61 	.word	0x00400c61
  402150:	00400cad 	.word	0x00400cad
  402154:	20400ae4 	.word	0x20400ae4
  402158:	20400b58 	.word	0x20400b58
  40215c:	00401869 	.word	0x00401869
  402160:	20400b30 	.word	0x20400b30

00402164 <xTaskRemoveFromEventList>:
{
  402164:	b5f8      	push	{r3, r4, r5, r6, r7, lr}
	pxUnblockedTCB = ( TCB_t * ) listGET_OWNER_OF_HEAD_ENTRY( pxEventList );
  402166:	68c3      	ldr	r3, [r0, #12]
  402168:	68dc      	ldr	r4, [r3, #12]
	configASSERT( pxUnblockedTCB );
  40216a:	b31c      	cbz	r4, 4021b4 <xTaskRemoveFromEventList+0x50>
	( void ) uxListRemove( &( pxUnblockedTCB->xEventListItem ) );
  40216c:	f104 0518 	add.w	r5, r4, #24
  402170:	4f19      	ldr	r7, [pc, #100]	; (4021d8 <xTaskRemoveFromEventList+0x74>)
  402172:	4628      	mov	r0, r5
  402174:	47b8      	blx	r7
	if( uxSchedulerSuspended == ( UBaseType_t ) pdFALSE )
  402176:	4b19      	ldr	r3, [pc, #100]	; (4021dc <xTaskRemoveFromEventList+0x78>)
  402178:	681b      	ldr	r3, [r3, #0]
  40217a:	bb43      	cbnz	r3, 4021ce <xTaskRemoveFromEventList+0x6a>
		( void ) uxListRemove( &( pxUnblockedTCB->xGenericListItem ) );
  40217c:	1d26      	adds	r6, r4, #4
		prvAddTaskToReadyList( pxUnblockedTCB );
  40217e:	4d18      	ldr	r5, [pc, #96]	; (4021e0 <xTaskRemoveFromEventList+0x7c>)
		( void ) uxListRemove( &( pxUnblockedTCB->xGenericListItem ) );
  402180:	4630      	mov	r0, r6
  402182:	47b8      	blx	r7
		prvAddTaskToReadyList( pxUnblockedTCB );
  402184:	6ae2      	ldr	r2, [r4, #44]	; 0x2c
  402186:	2301      	movs	r3, #1
  402188:	4816      	ldr	r0, [pc, #88]	; (4021e4 <xTaskRemoveFromEventList+0x80>)
  40218a:	eb02 0782 	add.w	r7, r2, r2, lsl #2
  40218e:	4631      	mov	r1, r6
  402190:	4093      	lsls	r3, r2
  402192:	682a      	ldr	r2, [r5, #0]
  402194:	eb00 0087 	add.w	r0, r0, r7, lsl #2
  402198:	4313      	orrs	r3, r2
  40219a:	4a13      	ldr	r2, [pc, #76]	; (4021e8 <xTaskRemoveFromEventList+0x84>)
  40219c:	602b      	str	r3, [r5, #0]
  40219e:	4790      	blx	r2
	if( pxUnblockedTCB->uxPriority > pxCurrentTCB->uxPriority )
  4021a0:	4b12      	ldr	r3, [pc, #72]	; (4021ec <xTaskRemoveFromEventList+0x88>)
  4021a2:	6ae2      	ldr	r2, [r4, #44]	; 0x2c
  4021a4:	681b      	ldr	r3, [r3, #0]
  4021a6:	6adb      	ldr	r3, [r3, #44]	; 0x2c
  4021a8:	429a      	cmp	r2, r3
  4021aa:	d90e      	bls.n	4021ca <xTaskRemoveFromEventList+0x66>
		xYieldPending = pdTRUE;
  4021ac:	4b10      	ldr	r3, [pc, #64]	; (4021f0 <xTaskRemoveFromEventList+0x8c>)
  4021ae:	2001      	movs	r0, #1
  4021b0:	6018      	str	r0, [r3, #0]
  4021b2:	bdf8      	pop	{r3, r4, r5, r6, r7, pc}
  4021b4:	f04f 0380 	mov.w	r3, #128	; 0x80
  4021b8:	b672      	cpsid	i
  4021ba:	f383 8811 	msr	BASEPRI, r3
  4021be:	f3bf 8f6f 	isb	sy
  4021c2:	f3bf 8f4f 	dsb	sy
  4021c6:	b662      	cpsie	i
  4021c8:	e7fe      	b.n	4021c8 <xTaskRemoveFromEventList+0x64>
		xReturn = pdFALSE;
  4021ca:	2000      	movs	r0, #0
}
  4021cc:	bdf8      	pop	{r3, r4, r5, r6, r7, pc}
		vListInsertEnd( &( xPendingReadyList ), &( pxUnblockedTCB->xEventListItem ) );
  4021ce:	4629      	mov	r1, r5
  4021d0:	4808      	ldr	r0, [pc, #32]	; (4021f4 <xTaskRemoveFromEventList+0x90>)
  4021d2:	4b05      	ldr	r3, [pc, #20]	; (4021e8 <xTaskRemoveFromEventList+0x84>)
  4021d4:	4798      	blx	r3
  4021d6:	e7e3      	b.n	4021a0 <xTaskRemoveFromEventList+0x3c>
  4021d8:	00400cad 	.word	0x00400cad
  4021dc:	20400ad8 	.word	0x20400ad8
  4021e0:	20400ae4 	.word	0x20400ae4
  4021e4:	20400a6c 	.word	0x20400a6c
  4021e8:	00400c61 	.word	0x00400c61
  4021ec:	20400a60 	.word	0x20400a60
  4021f0:	20400b5c 	.word	0x20400b5c
  4021f4:	20400b18 	.word	0x20400b18

004021f8 <vTaskSetTimeOutState>:
{
  4021f8:	b508      	push	{r3, lr}
	configASSERT( pxTimeOut );
  4021fa:	b130      	cbz	r0, 40220a <vTaskSetTimeOutState+0x12>
	pxTimeOut->xOverflowCount = xNumOfOverflows;
  4021fc:	4a04      	ldr	r2, [pc, #16]	; (402210 <vTaskSetTimeOutState+0x18>)
	pxTimeOut->xTimeOnEntering = xTickCount;
  4021fe:	4b05      	ldr	r3, [pc, #20]	; (402214 <vTaskSetTimeOutState+0x1c>)
	pxTimeOut->xOverflowCount = xNumOfOverflows;
  402200:	6812      	ldr	r2, [r2, #0]
	pxTimeOut->xTimeOnEntering = xTickCount;
  402202:	681b      	ldr	r3, [r3, #0]
  402204:	e880 000c 	stmia.w	r0, {r2, r3}
  402208:	bd08      	pop	{r3, pc}
  40220a:	4b03      	ldr	r3, [pc, #12]	; (402218 <vTaskSetTimeOutState+0x20>)
  40220c:	4798      	blx	r3
  40220e:	bf00      	nop
  402210:	20400b14 	.word	0x20400b14
  402214:	20400b58 	.word	0x20400b58
  402218:	00401acd 	.word	0x00401acd

0040221c <xTaskCheckForTimeOut>:
{
  40221c:	b5f8      	push	{r3, r4, r5, r6, r7, lr}
	configASSERT( pxTimeOut );
  40221e:	2800      	cmp	r0, #0
  402220:	d030      	beq.n	402284 <xTaskCheckForTimeOut+0x68>
	configASSERT( pxTicksToWait );
  402222:	b321      	cbz	r1, 40226e <xTaskCheckForTimeOut+0x52>
  402224:	460d      	mov	r5, r1
	taskENTER_CRITICAL();
  402226:	4b1f      	ldr	r3, [pc, #124]	; (4022a4 <xTaskCheckForTimeOut+0x88>)
  402228:	4604      	mov	r4, r0
  40222a:	4798      	blx	r3
			if( *pxTicksToWait == portMAX_DELAY )
  40222c:	682b      	ldr	r3, [r5, #0]
		const TickType_t xConstTickCount = xTickCount;
  40222e:	481e      	ldr	r0, [pc, #120]	; (4022a8 <xTaskCheckForTimeOut+0x8c>)
			if( *pxTicksToWait == portMAX_DELAY )
  402230:	1c5a      	adds	r2, r3, #1
		const TickType_t xConstTickCount = xTickCount;
  402232:	6801      	ldr	r1, [r0, #0]
			if( *pxTicksToWait == portMAX_DELAY )
  402234:	d031      	beq.n	40229a <xTaskCheckForTimeOut+0x7e>
		if( ( xNumOfOverflows != pxTimeOut->xOverflowCount ) && ( xConstTickCount >= pxTimeOut->xTimeOnEntering ) ) /*lint !e525 Indentation preferred as is to make code within pre-processor directives clearer. */
  402236:	4e1d      	ldr	r6, [pc, #116]	; (4022ac <xTaskCheckForTimeOut+0x90>)
  402238:	6827      	ldr	r7, [r4, #0]
  40223a:	6832      	ldr	r2, [r6, #0]
  40223c:	4297      	cmp	r7, r2
  40223e:	6862      	ldr	r2, [r4, #4]
  402240:	d006      	beq.n	402250 <xTaskCheckForTimeOut+0x34>
  402242:	4291      	cmp	r1, r2
  402244:	d304      	bcc.n	402250 <xTaskCheckForTimeOut+0x34>
			xReturn = pdTRUE;
  402246:	2601      	movs	r6, #1
	taskEXIT_CRITICAL();
  402248:	4b19      	ldr	r3, [pc, #100]	; (4022b0 <xTaskCheckForTimeOut+0x94>)
  40224a:	4798      	blx	r3
}
  40224c:	4630      	mov	r0, r6
  40224e:	bdf8      	pop	{r3, r4, r5, r6, r7, pc}
		else if( ( xConstTickCount - pxTimeOut->xTimeOnEntering ) < *pxTicksToWait )
  402250:	1a8f      	subs	r7, r1, r2
  402252:	42bb      	cmp	r3, r7
  402254:	d9f7      	bls.n	402246 <xTaskCheckForTimeOut+0x2a>
			*pxTicksToWait -= ( xConstTickCount -  pxTimeOut->xTimeOnEntering );
  402256:	1a5b      	subs	r3, r3, r1
	pxTimeOut->xOverflowCount = xNumOfOverflows;
  402258:	6837      	ldr	r7, [r6, #0]
	pxTimeOut->xTimeOnEntering = xTickCount;
  40225a:	6801      	ldr	r1, [r0, #0]
			xReturn = pdFALSE;
  40225c:	2600      	movs	r6, #0
			*pxTicksToWait -= ( xConstTickCount -  pxTimeOut->xTimeOnEntering );
  40225e:	4413      	add	r3, r2
  402260:	602b      	str	r3, [r5, #0]
	pxTimeOut->xOverflowCount = xNumOfOverflows;
  402262:	6027      	str	r7, [r4, #0]
	pxTimeOut->xTimeOnEntering = xTickCount;
  402264:	6061      	str	r1, [r4, #4]
	taskEXIT_CRITICAL();
  402266:	4b12      	ldr	r3, [pc, #72]	; (4022b0 <xTaskCheckForTimeOut+0x94>)
  402268:	4798      	blx	r3
}
  40226a:	4630      	mov	r0, r6
  40226c:	bdf8      	pop	{r3, r4, r5, r6, r7, pc}
  40226e:	f04f 0380 	mov.w	r3, #128	; 0x80
  402272:	b672      	cpsid	i
  402274:	f383 8811 	msr	BASEPRI, r3
  402278:	f3bf 8f6f 	isb	sy
  40227c:	f3bf 8f4f 	dsb	sy
  402280:	b662      	cpsie	i
  402282:	e7fe      	b.n	402282 <xTaskCheckForTimeOut+0x66>
  402284:	f04f 0380 	mov.w	r3, #128	; 0x80
  402288:	b672      	cpsid	i
  40228a:	f383 8811 	msr	BASEPRI, r3
  40228e:	f3bf 8f6f 	isb	sy
  402292:	f3bf 8f4f 	dsb	sy
  402296:	b662      	cpsie	i
  402298:	e7fe      	b.n	402298 <xTaskCheckForTimeOut+0x7c>
				xReturn = pdFALSE;
  40229a:	2600      	movs	r6, #0
	taskEXIT_CRITICAL();
  40229c:	4b04      	ldr	r3, [pc, #16]	; (4022b0 <xTaskCheckForTimeOut+0x94>)
  40229e:	4798      	blx	r3
}
  4022a0:	4630      	mov	r0, r6
  4022a2:	bdf8      	pop	{r3, r4, r5, r6, r7, pc}
  4022a4:	00400d91 	.word	0x00400d91
  4022a8:	20400b58 	.word	0x20400b58
  4022ac:	20400b14 	.word	0x20400b14
  4022b0:	00400ddd 	.word	0x00400ddd

004022b4 <vTaskMissedYield>:
	xYieldPending = pdTRUE;
  4022b4:	4b01      	ldr	r3, [pc, #4]	; (4022bc <vTaskMissedYield+0x8>)
  4022b6:	2201      	movs	r2, #1
  4022b8:	601a      	str	r2, [r3, #0]
  4022ba:	4770      	bx	lr
  4022bc:	20400b5c 	.word	0x20400b5c

004022c0 <xTaskGetSchedulerState>:

	BaseType_t xTaskGetSchedulerState( void )
	{
	BaseType_t xReturn;

		if( xSchedulerRunning == pdFALSE )
  4022c0:	4b05      	ldr	r3, [pc, #20]	; (4022d8 <xTaskGetSchedulerState+0x18>)
  4022c2:	681b      	ldr	r3, [r3, #0]
  4022c4:	b133      	cbz	r3, 4022d4 <xTaskGetSchedulerState+0x14>
		{
			xReturn = taskSCHEDULER_NOT_STARTED;
		}
		else
		{
			if( uxSchedulerSuspended == ( UBaseType_t ) pdFALSE )
  4022c6:	4b05      	ldr	r3, [pc, #20]	; (4022dc <xTaskGetSchedulerState+0x1c>)
  4022c8:	681b      	ldr	r3, [r3, #0]
  4022ca:	2b00      	cmp	r3, #0
			{
				xReturn = taskSCHEDULER_RUNNING;
			}
			else
			{
				xReturn = taskSCHEDULER_SUSPENDED;
  4022cc:	bf0c      	ite	eq
  4022ce:	2002      	moveq	r0, #2
  4022d0:	2000      	movne	r0, #0
  4022d2:	4770      	bx	lr
			xReturn = taskSCHEDULER_NOT_STARTED;
  4022d4:	2001      	movs	r0, #1
			}
		}

		return xReturn;
	}
  4022d6:	4770      	bx	lr
  4022d8:	20400b2c 	.word	0x20400b2c
  4022dc:	20400ad8 	.word	0x20400ad8

004022e0 <vTaskPriorityInherit>:
	{
	TCB_t * const pxTCB = ( TCB_t * ) pxMutexHolder;

		/* If the mutex was given back by an interrupt while the queue was
		locked then the mutex holder might now be NULL. */
		if( pxMutexHolder != NULL )
  4022e0:	2800      	cmp	r0, #0
  4022e2:	d046      	beq.n	402372 <vTaskPriorityInherit+0x92>
	{
  4022e4:	e92d 41f0 	stmdb	sp!, {r4, r5, r6, r7, r8, lr}
		{
			/* If the holder of the mutex has a priority below the priority of
			the task attempting to obtain the mutex then it will temporarily
			inherit the priority of the task attempting to obtain the mutex. */
			if( pxTCB->uxPriority < pxCurrentTCB->uxPriority )
  4022e8:	4c22      	ldr	r4, [pc, #136]	; (402374 <vTaskPriorityInherit+0x94>)
  4022ea:	6ac3      	ldr	r3, [r0, #44]	; 0x2c
  4022ec:	6822      	ldr	r2, [r4, #0]
  4022ee:	6ad2      	ldr	r2, [r2, #44]	; 0x2c
  4022f0:	4293      	cmp	r3, r2
  4022f2:	d212      	bcs.n	40231a <vTaskPriorityInherit+0x3a>
			{
				/* Adjust the mutex holder state to account for its new
				priority.  Only reset the event list item value if the value is
				not	being used for anything else. */
				if( ( listGET_LIST_ITEM_VALUE( &( pxTCB->xEventListItem ) ) & taskEVENT_LIST_ITEM_VALUE_IN_USE ) == 0UL )
  4022f4:	6982      	ldr	r2, [r0, #24]
  4022f6:	2a00      	cmp	r2, #0
  4022f8:	db04      	blt.n	402304 <vTaskPriorityInherit+0x24>
				{
					listSET_LIST_ITEM_VALUE( &( pxTCB->xEventListItem ), ( TickType_t ) configMAX_PRIORITIES - ( TickType_t ) pxCurrentTCB->uxPriority ); /*lint !e961 MISRA exception as the casts are only redundant for some ports. */
  4022fa:	6822      	ldr	r2, [r4, #0]
  4022fc:	6ad2      	ldr	r2, [r2, #44]	; 0x2c
  4022fe:	f1c2 0205 	rsb	r2, r2, #5
  402302:	6182      	str	r2, [r0, #24]
					mtCOVERAGE_TEST_MARKER();
				}

				/* If the task being modified is in the ready state it will need
				to be moved into a new list. */
				if( listIS_CONTAINED_WITHIN( &( pxReadyTasksLists[ pxTCB->uxPriority ] ), &( pxTCB->xGenericListItem ) ) != pdFALSE )
  402304:	eb03 0383 	add.w	r3, r3, r3, lsl #2
  402308:	4d1b      	ldr	r5, [pc, #108]	; (402378 <vTaskPriorityInherit+0x98>)
  40230a:	6942      	ldr	r2, [r0, #20]
  40230c:	eb05 0383 	add.w	r3, r5, r3, lsl #2
  402310:	429a      	cmp	r2, r3
  402312:	d004      	beq.n	40231e <vTaskPriorityInherit+0x3e>
					prvAddTaskToReadyList( pxTCB );
				}
				else
				{
					/* Just inherit the priority. */
					pxTCB->uxPriority = pxCurrentTCB->uxPriority;
  402314:	6823      	ldr	r3, [r4, #0]
  402316:	6adb      	ldr	r3, [r3, #44]	; 0x2c
  402318:	62c3      	str	r3, [r0, #44]	; 0x2c
  40231a:	e8bd 81f0 	ldmia.w	sp!, {r4, r5, r6, r7, r8, pc}
					if( uxListRemove( &( pxTCB->xGenericListItem ) ) == ( UBaseType_t ) 0 )
  40231e:	1d07      	adds	r7, r0, #4
  402320:	4606      	mov	r6, r0
  402322:	4b16      	ldr	r3, [pc, #88]	; (40237c <vTaskPriorityInherit+0x9c>)
  402324:	4638      	mov	r0, r7
  402326:	4798      	blx	r3
  402328:	bb08      	cbnz	r0, 40236e <vTaskPriorityInherit+0x8e>
						taskRESET_READY_PRIORITY( pxTCB->uxPriority );
  40232a:	6af3      	ldr	r3, [r6, #44]	; 0x2c
  40232c:	eb03 0283 	add.w	r2, r3, r3, lsl #2
  402330:	f855 2022 	ldr.w	r2, [r5, r2, lsl #2]
  402334:	b9da      	cbnz	r2, 40236e <vTaskPriorityInherit+0x8e>
  402336:	4a12      	ldr	r2, [pc, #72]	; (402380 <vTaskPriorityInherit+0xa0>)
  402338:	2001      	movs	r0, #1
  40233a:	6811      	ldr	r1, [r2, #0]
  40233c:	fa00 f303 	lsl.w	r3, r0, r3
  402340:	ea21 0303 	bic.w	r3, r1, r3
  402344:	6013      	str	r3, [r2, #0]
					pxTCB->uxPriority = pxCurrentTCB->uxPriority;
  402346:	6820      	ldr	r0, [r4, #0]
					prvAddTaskToReadyList( pxTCB );
  402348:	2301      	movs	r3, #1
  40234a:	f8d2 e000 	ldr.w	lr, [r2]
  40234e:	4639      	mov	r1, r7
					pxTCB->uxPriority = pxCurrentTCB->uxPriority;
  402350:	6ac0      	ldr	r0, [r0, #44]	; 0x2c
					prvAddTaskToReadyList( pxTCB );
  402352:	4c0c      	ldr	r4, [pc, #48]	; (402384 <vTaskPriorityInherit+0xa4>)
  402354:	4083      	lsls	r3, r0
					pxTCB->uxPriority = pxCurrentTCB->uxPriority;
  402356:	62f0      	str	r0, [r6, #44]	; 0x2c
					prvAddTaskToReadyList( pxTCB );
  402358:	eb00 0080 	add.w	r0, r0, r0, lsl #2
  40235c:	ea43 030e 	orr.w	r3, r3, lr
  402360:	eb05 0080 	add.w	r0, r5, r0, lsl #2
  402364:	6013      	str	r3, [r2, #0]
  402366:	4623      	mov	r3, r4
		}
		else
		{
			mtCOVERAGE_TEST_MARKER();
		}
	}
  402368:	e8bd 41f0 	ldmia.w	sp!, {r4, r5, r6, r7, r8, lr}
					prvAddTaskToReadyList( pxTCB );
  40236c:	4718      	bx	r3
  40236e:	4a04      	ldr	r2, [pc, #16]	; (402380 <vTaskPriorityInherit+0xa0>)
  402370:	e7e9      	b.n	402346 <vTaskPriorityInherit+0x66>
  402372:	4770      	bx	lr
  402374:	20400a60 	.word	0x20400a60
  402378:	20400a6c 	.word	0x20400a6c
  40237c:	00400cad 	.word	0x00400cad
  402380:	20400ae4 	.word	0x20400ae4
  402384:	00400c61 	.word	0x00400c61

00402388 <xTaskPriorityDisinherit>:
	BaseType_t xTaskPriorityDisinherit( TaskHandle_t const pxMutexHolder )
	{
	TCB_t * const pxTCB = ( TCB_t * ) pxMutexHolder;
	BaseType_t xReturn = pdFALSE;

		if( pxMutexHolder != NULL )
  402388:	2800      	cmp	r0, #0
  40238a:	d042      	beq.n	402412 <xTaskPriorityDisinherit+0x8a>
	{
  40238c:	b5f8      	push	{r3, r4, r5, r6, r7, lr}
		{
			/* A task can only have an inherited priority if it holds the mutex.
			If the mutex is held by a task then it cannot be given from an
			interrupt, and if a mutex is given by the holding task then it must
			be the running state task. */
			configASSERT( pxTCB == pxCurrentTCB );
  40238e:	4b2b      	ldr	r3, [pc, #172]	; (40243c <xTaskPriorityDisinherit+0xb4>)
  402390:	681b      	ldr	r3, [r3, #0]
  402392:	4298      	cmp	r0, r3
  402394:	d00a      	beq.n	4023ac <xTaskPriorityDisinherit+0x24>
  402396:	f04f 0380 	mov.w	r3, #128	; 0x80
  40239a:	b672      	cpsid	i
  40239c:	f383 8811 	msr	BASEPRI, r3
  4023a0:	f3bf 8f6f 	isb	sy
  4023a4:	f3bf 8f4f 	dsb	sy
  4023a8:	b662      	cpsie	i
  4023aa:	e7fe      	b.n	4023aa <xTaskPriorityDisinherit+0x22>

			configASSERT( pxTCB->uxMutexesHeld );
  4023ac:	6cc3      	ldr	r3, [r0, #76]	; 0x4c
  4023ae:	b953      	cbnz	r3, 4023c6 <xTaskPriorityDisinherit+0x3e>
  4023b0:	f04f 0380 	mov.w	r3, #128	; 0x80
  4023b4:	b672      	cpsid	i
  4023b6:	f383 8811 	msr	BASEPRI, r3
  4023ba:	f3bf 8f6f 	isb	sy
  4023be:	f3bf 8f4f 	dsb	sy
  4023c2:	b662      	cpsie	i
  4023c4:	e7fe      	b.n	4023c4 <xTaskPriorityDisinherit+0x3c>
			( pxTCB->uxMutexesHeld )--;

			/* Has the holder of the mutex inherited the priority of another
			task? */
			if( pxTCB->uxPriority != pxTCB->uxBasePriority )
  4023c6:	6ac1      	ldr	r1, [r0, #44]	; 0x2c
			( pxTCB->uxMutexesHeld )--;
  4023c8:	3b01      	subs	r3, #1
			if( pxTCB->uxPriority != pxTCB->uxBasePriority )
  4023ca:	6c82      	ldr	r2, [r0, #72]	; 0x48
			( pxTCB->uxMutexesHeld )--;
  4023cc:	64c3      	str	r3, [r0, #76]	; 0x4c
			{
				/* Only disinherit if no other mutexes are held. */
				if( pxTCB->uxMutexesHeld == ( UBaseType_t ) 0 )
  4023ce:	4291      	cmp	r1, r2
  4023d0:	d031      	beq.n	402436 <xTaskPriorityDisinherit+0xae>
  4023d2:	2b00      	cmp	r3, #0
  4023d4:	d12f      	bne.n	402436 <xTaskPriorityDisinherit+0xae>
					/* A task can only have an inherited priority if it holds
					the mutex.  If the mutex is held by a task then it cannot be
					given from an interrupt, and if a mutex is given by the
					holding	task then it must be the running state task.  Remove
					the	holding task from the ready	list. */
					if( uxListRemove( &( pxTCB->xGenericListItem ) ) == ( UBaseType_t ) 0 )
  4023d6:	1d07      	adds	r7, r0, #4
  4023d8:	4604      	mov	r4, r0
  4023da:	4b19      	ldr	r3, [pc, #100]	; (402440 <xTaskPriorityDisinherit+0xb8>)
  4023dc:	4638      	mov	r0, r7
  4023de:	4798      	blx	r3
  4023e0:	b1c8      	cbz	r0, 402416 <xTaskPriorityDisinherit+0x8e>
  4023e2:	4818      	ldr	r0, [pc, #96]	; (402444 <xTaskPriorityDisinherit+0xbc>)
  4023e4:	4a18      	ldr	r2, [pc, #96]	; (402448 <xTaskPriorityDisinherit+0xc0>)
					}

					/* Disinherit the priority before adding the task into the
					new	ready list. */
					traceTASK_PRIORITY_DISINHERIT( pxTCB, pxTCB->uxBasePriority );
					pxTCB->uxPriority = pxTCB->uxBasePriority;
  4023e6:	6ca3      	ldr	r3, [r4, #72]	; 0x48

					/* Reset the event list item value.  It cannot be in use for
					any other purpose if this task is running, and it must be
					running to give back the mutex. */
					listSET_LIST_ITEM_VALUE( &( pxTCB->xEventListItem ), ( TickType_t ) configMAX_PRIORITIES - ( TickType_t ) pxTCB->uxPriority ); /*lint !e961 MISRA exception as the casts are only redundant for some ports. */
					prvAddTaskToReadyList( pxTCB );
  4023e8:	2501      	movs	r5, #1
  4023ea:	f8d2 e000 	ldr.w	lr, [r2]
  4023ee:	4639      	mov	r1, r7
  4023f0:	fa05 f603 	lsl.w	r6, r5, r3
					listSET_LIST_ITEM_VALUE( &( pxTCB->xEventListItem ), ( TickType_t ) configMAX_PRIORITIES - ( TickType_t ) pxTCB->uxPriority ); /*lint !e961 MISRA exception as the casts are only redundant for some ports. */
  4023f4:	f1c3 0705 	rsb	r7, r3, #5
					pxTCB->uxPriority = pxTCB->uxBasePriority;
  4023f8:	62e3      	str	r3, [r4, #44]	; 0x2c
					prvAddTaskToReadyList( pxTCB );
  4023fa:	eb03 0383 	add.w	r3, r3, r3, lsl #2
  4023fe:	ea46 060e 	orr.w	r6, r6, lr
					listSET_LIST_ITEM_VALUE( &( pxTCB->xEventListItem ), ( TickType_t ) configMAX_PRIORITIES - ( TickType_t ) pxTCB->uxPriority ); /*lint !e961 MISRA exception as the casts are only redundant for some ports. */
  402402:	61a7      	str	r7, [r4, #24]
					prvAddTaskToReadyList( pxTCB );
  402404:	eb00 0083 	add.w	r0, r0, r3, lsl #2
  402408:	4b10      	ldr	r3, [pc, #64]	; (40244c <xTaskPriorityDisinherit+0xc4>)
  40240a:	6016      	str	r6, [r2, #0]
  40240c:	4798      	blx	r3
					in an order different to that in which they were taken.
					If a context switch did not occur when the first mutex was
					returned, even if a task was waiting on it, then a context
					switch should occur when the last mutex is returned whether
					a task is waiting on it or not. */
					xReturn = pdTRUE;
  40240e:	4628      	mov	r0, r5
		{
			mtCOVERAGE_TEST_MARKER();
		}

		return xReturn;
	}
  402410:	bdf8      	pop	{r3, r4, r5, r6, r7, pc}
	BaseType_t xReturn = pdFALSE;
  402412:	2000      	movs	r0, #0
	}
  402414:	4770      	bx	lr
						taskRESET_READY_PRIORITY( pxTCB->uxPriority );
  402416:	6ae6      	ldr	r6, [r4, #44]	; 0x2c
  402418:	480a      	ldr	r0, [pc, #40]	; (402444 <xTaskPriorityDisinherit+0xbc>)
  40241a:	eb06 0386 	add.w	r3, r6, r6, lsl #2
  40241e:	4a0a      	ldr	r2, [pc, #40]	; (402448 <xTaskPriorityDisinherit+0xc0>)
  402420:	f850 3023 	ldr.w	r3, [r0, r3, lsl #2]
  402424:	2b00      	cmp	r3, #0
  402426:	d1de      	bne.n	4023e6 <xTaskPriorityDisinherit+0x5e>
  402428:	2501      	movs	r5, #1
  40242a:	6813      	ldr	r3, [r2, #0]
  40242c:	40b5      	lsls	r5, r6
  40242e:	ea23 0305 	bic.w	r3, r3, r5
  402432:	6013      	str	r3, [r2, #0]
  402434:	e7d7      	b.n	4023e6 <xTaskPriorityDisinherit+0x5e>
	BaseType_t xReturn = pdFALSE;
  402436:	2000      	movs	r0, #0
  402438:	bdf8      	pop	{r3, r4, r5, r6, r7, pc}
  40243a:	bf00      	nop
  40243c:	20400a60 	.word	0x20400a60
  402440:	00400cad 	.word	0x00400cad
  402444:	20400a6c 	.word	0x20400a6c
  402448:	20400ae4 	.word	0x20400ae4
  40244c:	00400c61 	.word	0x00400c61

00402450 <pvTaskIncrementMutexHeldCount>:

	void *pvTaskIncrementMutexHeldCount( void )
	{
		/* If xSemaphoreCreateMutex() is called before any tasks have been created
		then pxCurrentTCB will be NULL. */
		if( pxCurrentTCB != NULL )
  402450:	4b04      	ldr	r3, [pc, #16]	; (402464 <pvTaskIncrementMutexHeldCount+0x14>)
  402452:	681a      	ldr	r2, [r3, #0]
  402454:	b11a      	cbz	r2, 40245e <pvTaskIncrementMutexHeldCount+0xe>
		{
			( pxCurrentTCB->uxMutexesHeld )++;
  402456:	6819      	ldr	r1, [r3, #0]
  402458:	6cca      	ldr	r2, [r1, #76]	; 0x4c
  40245a:	3201      	adds	r2, #1
  40245c:	64ca      	str	r2, [r1, #76]	; 0x4c
		}

		return pxCurrentTCB;
  40245e:	6818      	ldr	r0, [r3, #0]
	}
  402460:	4770      	bx	lr
  402462:	bf00      	nop
  402464:	20400a60 	.word	0x20400a60

00402468 <prvInsertTimerInActiveList>:
BaseType_t xProcessTimerNow = pdFALSE;

	listSET_LIST_ITEM_VALUE( &( pxTimer->xTimerListItem ), xNextExpiryTime );
	listSET_LIST_ITEM_OWNER( &( pxTimer->xTimerListItem ), pxTimer );

	if( xNextExpiryTime <= xTimeNow )
  402468:	4291      	cmp	r1, r2
{
  40246a:	b508      	push	{r3, lr}
	listSET_LIST_ITEM_OWNER( &( pxTimer->xTimerListItem ), pxTimer );
  40246c:	6100      	str	r0, [r0, #16]
	listSET_LIST_ITEM_VALUE( &( pxTimer->xTimerListItem ), xNextExpiryTime );
  40246e:	6041      	str	r1, [r0, #4]
	if( xNextExpiryTime <= xTimeNow )
  402470:	d805      	bhi.n	40247e <prvInsertTimerInActiveList+0x16>
	{
		/* Has the expiry time elapsed between the command to start/reset a
		timer was issued, and the time the command was processed? */
		if( ( xTimeNow - xCommandTime ) >= pxTimer->xTimerPeriodInTicks )
  402472:	1ad2      	subs	r2, r2, r3
  402474:	6983      	ldr	r3, [r0, #24]
  402476:	429a      	cmp	r2, r3
  402478:	d307      	bcc.n	40248a <prvInsertTimerInActiveList+0x22>
		{
			/* The time between a command being issued and the command being
			processed actually exceeds the timers period.  */
			xProcessTimerNow = pdTRUE;
  40247a:	2001      	movs	r0, #1
			vListInsert( pxCurrentTimerList, &( pxTimer->xTimerListItem ) );
		}
	}

	return xProcessTimerNow;
}
  40247c:	bd08      	pop	{r3, pc}
		if( ( xTimeNow < xCommandTime ) && ( xNextExpiryTime >= xCommandTime ) )
  40247e:	429a      	cmp	r2, r3
  402480:	d201      	bcs.n	402486 <prvInsertTimerInActiveList+0x1e>
  402482:	4299      	cmp	r1, r3
  402484:	d2f9      	bcs.n	40247a <prvInsertTimerInActiveList+0x12>
			vListInsert( pxCurrentTimerList, &( pxTimer->xTimerListItem ) );
  402486:	4a04      	ldr	r2, [pc, #16]	; (402498 <prvInsertTimerInActiveList+0x30>)
  402488:	e000      	b.n	40248c <prvInsertTimerInActiveList+0x24>
			vListInsert( pxOverflowTimerList, &( pxTimer->xTimerListItem ) );
  40248a:	4a04      	ldr	r2, [pc, #16]	; (40249c <prvInsertTimerInActiveList+0x34>)
			vListInsert( pxCurrentTimerList, &( pxTimer->xTimerListItem ) );
  40248c:	1d01      	adds	r1, r0, #4
  40248e:	4b04      	ldr	r3, [pc, #16]	; (4024a0 <prvInsertTimerInActiveList+0x38>)
  402490:	6810      	ldr	r0, [r2, #0]
  402492:	4798      	blx	r3
BaseType_t xProcessTimerNow = pdFALSE;
  402494:	2000      	movs	r0, #0
  402496:	bd08      	pop	{r3, pc}
  402498:	20400b60 	.word	0x20400b60
  40249c:	20400b64 	.word	0x20400b64
  4024a0:	00400c79 	.word	0x00400c79

004024a4 <prvCheckForValidListAndQueue.part.1>:
  4024a4:	f04f 0380 	mov.w	r3, #128	; 0x80
  4024a8:	b672      	cpsid	i
  4024aa:	f383 8811 	msr	BASEPRI, r3
  4024ae:	f3bf 8f6f 	isb	sy
  4024b2:	f3bf 8f4f 	dsb	sy
  4024b6:	b662      	cpsie	i
  4024b8:	e7fe      	b.n	4024b8 <prvCheckForValidListAndQueue.part.1+0x14>
  4024ba:	bf00      	nop

004024bc <prvCheckForValidListAndQueue>:
	pxOverflowTimerList = pxTemp;
}
/*-----------------------------------------------------------*/

static void prvCheckForValidListAndQueue( void )
{
  4024bc:	e92d 41f0 	stmdb	sp!, {r4, r5, r6, r7, r8, lr}
	/* Check that the list from which active timers are referenced, and the
	queue used to communicate with the timer service, have been
	initialised. */
	taskENTER_CRITICAL();
	{
		if( xTimerQueue == NULL )
  4024c0:	4c13      	ldr	r4, [pc, #76]	; (402510 <prvCheckForValidListAndQueue+0x54>)
	taskENTER_CRITICAL();
  4024c2:	4b14      	ldr	r3, [pc, #80]	; (402514 <prvCheckForValidListAndQueue+0x58>)
  4024c4:	4798      	blx	r3
		if( xTimerQueue == NULL )
  4024c6:	6827      	ldr	r7, [r4, #0]
  4024c8:	b11f      	cbz	r7, 4024d2 <prvCheckForValidListAndQueue+0x16>
		else
		{
			mtCOVERAGE_TEST_MARKER();
		}
	}
	taskEXIT_CRITICAL();
  4024ca:	4b13      	ldr	r3, [pc, #76]	; (402518 <prvCheckForValidListAndQueue+0x5c>)
}
  4024cc:	e8bd 41f0 	ldmia.w	sp!, {r4, r5, r6, r7, r8, lr}
	taskEXIT_CRITICAL();
  4024d0:	4718      	bx	r3
			vListInitialise( &xActiveTimerList1 );
  4024d2:	4e12      	ldr	r6, [pc, #72]	; (40251c <prvCheckForValidListAndQueue+0x60>)
			vListInitialise( &xActiveTimerList2 );
  4024d4:	4d12      	ldr	r5, [pc, #72]	; (402520 <prvCheckForValidListAndQueue+0x64>)
			vListInitialise( &xActiveTimerList1 );
  4024d6:	4630      	mov	r0, r6
  4024d8:	f8df 805c 	ldr.w	r8, [pc, #92]	; 402538 <prvCheckForValidListAndQueue+0x7c>
  4024dc:	47c0      	blx	r8
			vListInitialise( &xActiveTimerList2 );
  4024de:	4628      	mov	r0, r5
  4024e0:	47c0      	blx	r8
			pxCurrentTimerList = &xActiveTimerList1;
  4024e2:	4b10      	ldr	r3, [pc, #64]	; (402524 <prvCheckForValidListAndQueue+0x68>)
			pxOverflowTimerList = &xActiveTimerList2;
  4024e4:	f8df e054 	ldr.w	lr, [pc, #84]	; 40253c <prvCheckForValidListAndQueue+0x80>
			xTimerQueue = xQueueCreate( ( UBaseType_t ) configTIMER_QUEUE_LENGTH, sizeof( DaemonTaskMessage_t ) );
  4024e8:	463a      	mov	r2, r7
			pxCurrentTimerList = &xActiveTimerList1;
  4024ea:	601e      	str	r6, [r3, #0]
			xTimerQueue = xQueueCreate( ( UBaseType_t ) configTIMER_QUEUE_LENGTH, sizeof( DaemonTaskMessage_t ) );
  4024ec:	2110      	movs	r1, #16
  4024ee:	2005      	movs	r0, #5
  4024f0:	4b0d      	ldr	r3, [pc, #52]	; (402528 <prvCheckForValidListAndQueue+0x6c>)
			pxOverflowTimerList = &xActiveTimerList2;
  4024f2:	f8ce 5000 	str.w	r5, [lr]
			xTimerQueue = xQueueCreate( ( UBaseType_t ) configTIMER_QUEUE_LENGTH, sizeof( DaemonTaskMessage_t ) );
  4024f6:	4798      	blx	r3
  4024f8:	6020      	str	r0, [r4, #0]
			configASSERT( xTimerQueue );
  4024fa:	b130      	cbz	r0, 40250a <prvCheckForValidListAndQueue+0x4e>
					vQueueAddToRegistry( xTimerQueue, "TmrQ" );
  4024fc:	4b0b      	ldr	r3, [pc, #44]	; (40252c <prvCheckForValidListAndQueue+0x70>)
  4024fe:	490c      	ldr	r1, [pc, #48]	; (402530 <prvCheckForValidListAndQueue+0x74>)
  402500:	4798      	blx	r3
	taskEXIT_CRITICAL();
  402502:	4b05      	ldr	r3, [pc, #20]	; (402518 <prvCheckForValidListAndQueue+0x5c>)
}
  402504:	e8bd 41f0 	ldmia.w	sp!, {r4, r5, r6, r7, r8, lr}
	taskEXIT_CRITICAL();
  402508:	4718      	bx	r3
  40250a:	4b0a      	ldr	r3, [pc, #40]	; (402534 <prvCheckForValidListAndQueue+0x78>)
  40250c:	4798      	blx	r3
  40250e:	bf00      	nop
  402510:	20400b94 	.word	0x20400b94
  402514:	00400d91 	.word	0x00400d91
  402518:	00400ddd 	.word	0x00400ddd
  40251c:	20400b68 	.word	0x20400b68
  402520:	20400b7c 	.word	0x20400b7c
  402524:	20400b60 	.word	0x20400b60
  402528:	004012c1 	.word	0x004012c1
  40252c:	004017d5 	.word	0x004017d5
  402530:	00405dec 	.word	0x00405dec
  402534:	004024a5 	.word	0x004024a5
  402538:	00400c41 	.word	0x00400c41
  40253c:	20400b64 	.word	0x20400b64

00402540 <xTimerCreateTimerTask>:
{
  402540:	b510      	push	{r4, lr}
	prvCheckForValidListAndQueue();
  402542:	4b10      	ldr	r3, [pc, #64]	; (402584 <xTimerCreateTimerTask+0x44>)
{
  402544:	b084      	sub	sp, #16
	prvCheckForValidListAndQueue();
  402546:	4798      	blx	r3
	if( xTimerQueue != NULL )
  402548:	4b0f      	ldr	r3, [pc, #60]	; (402588 <xTimerCreateTimerTask+0x48>)
  40254a:	681b      	ldr	r3, [r3, #0]
  40254c:	b17b      	cbz	r3, 40256e <xTimerCreateTimerTask+0x2e>
			xReturn = xTaskCreate( prvTimerTask, "Tmr Svc", ( uint16_t ) configTIMER_TASK_STACK_DEPTH, NULL, ( ( UBaseType_t ) configTIMER_TASK_PRIORITY ) | portPRIVILEGE_BIT, NULL);
  40254e:	2000      	movs	r0, #0
  402550:	2404      	movs	r4, #4
  402552:	f44f 5280 	mov.w	r2, #4096	; 0x1000
  402556:	490d      	ldr	r1, [pc, #52]	; (40258c <xTimerCreateTimerTask+0x4c>)
  402558:	9003      	str	r0, [sp, #12]
  40255a:	4603      	mov	r3, r0
  40255c:	9002      	str	r0, [sp, #8]
  40255e:	9001      	str	r0, [sp, #4]
  402560:	9400      	str	r4, [sp, #0]
  402562:	480b      	ldr	r0, [pc, #44]	; (402590 <xTimerCreateTimerTask+0x50>)
  402564:	4c0b      	ldr	r4, [pc, #44]	; (402594 <xTimerCreateTimerTask+0x54>)
  402566:	47a0      	blx	r4
	configASSERT( xReturn );
  402568:	b108      	cbz	r0, 40256e <xTimerCreateTimerTask+0x2e>
}
  40256a:	b004      	add	sp, #16
  40256c:	bd10      	pop	{r4, pc}
  40256e:	f04f 0380 	mov.w	r3, #128	; 0x80
  402572:	b672      	cpsid	i
  402574:	f383 8811 	msr	BASEPRI, r3
  402578:	f3bf 8f6f 	isb	sy
  40257c:	f3bf 8f4f 	dsb	sy
  402580:	b662      	cpsie	i
  402582:	e7fe      	b.n	402582 <xTimerCreateTimerTask+0x42>
  402584:	004024bd 	.word	0x004024bd
  402588:	20400b94 	.word	0x20400b94
  40258c:	00405df4 	.word	0x00405df4
  402590:	00402699 	.word	0x00402699
  402594:	00401ae5 	.word	0x00401ae5

00402598 <xTimerGenericCommand>:
{
  402598:	b530      	push	{r4, r5, lr}
  40259a:	b085      	sub	sp, #20
	configASSERT( xTimer );
  40259c:	b310      	cbz	r0, 4025e4 <xTimerGenericCommand+0x4c>
	if( xTimerQueue != NULL )
  40259e:	4c12      	ldr	r4, [pc, #72]	; (4025e8 <xTimerGenericCommand+0x50>)
  4025a0:	4605      	mov	r5, r0
  4025a2:	6820      	ldr	r0, [r4, #0]
  4025a4:	b168      	cbz	r0, 4025c2 <xTimerGenericCommand+0x2a>
		if( xCommandID < tmrFIRST_FROM_ISR_COMMAND )
  4025a6:	2905      	cmp	r1, #5
		xMessage.u.xTimerParameters.pxTimer = ( Timer_t * ) xTimer;
  4025a8:	e88d 0026 	stmia.w	sp, {r1, r2, r5}
		if( xCommandID < tmrFIRST_FROM_ISR_COMMAND )
  4025ac:	dc0b      	bgt.n	4025c6 <xTimerGenericCommand+0x2e>
			if( xTaskGetSchedulerState() == taskSCHEDULER_RUNNING )
  4025ae:	4b0f      	ldr	r3, [pc, #60]	; (4025ec <xTimerGenericCommand+0x54>)
  4025b0:	4798      	blx	r3
  4025b2:	2802      	cmp	r0, #2
  4025b4:	d00e      	beq.n	4025d4 <xTimerGenericCommand+0x3c>
				xReturn = xQueueSendToBack( xTimerQueue, &xMessage, tmrNO_DELAY );
  4025b6:	2300      	movs	r3, #0
  4025b8:	6820      	ldr	r0, [r4, #0]
  4025ba:	4669      	mov	r1, sp
  4025bc:	4c0c      	ldr	r4, [pc, #48]	; (4025f0 <xTimerGenericCommand+0x58>)
  4025be:	461a      	mov	r2, r3
  4025c0:	47a0      	blx	r4
}
  4025c2:	b005      	add	sp, #20
  4025c4:	bd30      	pop	{r4, r5, pc}
			xReturn = xQueueSendToBackFromISR( xTimerQueue, &xMessage, pxHigherPriorityTaskWoken );
  4025c6:	461a      	mov	r2, r3
  4025c8:	4669      	mov	r1, sp
  4025ca:	2300      	movs	r3, #0
  4025cc:	4c09      	ldr	r4, [pc, #36]	; (4025f4 <xTimerGenericCommand+0x5c>)
  4025ce:	47a0      	blx	r4
}
  4025d0:	b005      	add	sp, #20
  4025d2:	bd30      	pop	{r4, r5, pc}
				xReturn = xQueueSendToBack( xTimerQueue, &xMessage, xTicksToWait );
  4025d4:	6820      	ldr	r0, [r4, #0]
  4025d6:	2300      	movs	r3, #0
  4025d8:	9a08      	ldr	r2, [sp, #32]
  4025da:	4669      	mov	r1, sp
  4025dc:	4c04      	ldr	r4, [pc, #16]	; (4025f0 <xTimerGenericCommand+0x58>)
  4025de:	47a0      	blx	r4
}
  4025e0:	b005      	add	sp, #20
  4025e2:	bd30      	pop	{r4, r5, pc}
  4025e4:	4b04      	ldr	r3, [pc, #16]	; (4025f8 <xTimerGenericCommand+0x60>)
  4025e6:	4798      	blx	r3
  4025e8:	20400b94 	.word	0x20400b94
  4025ec:	004022c1 	.word	0x004022c1
  4025f0:	0040132d 	.word	0x0040132d
  4025f4:	0040150d 	.word	0x0040150d
  4025f8:	004024a5 	.word	0x004024a5

004025fc <prvSwitchTimerLists>:
{
  4025fc:	e92d 47f0 	stmdb	sp!, {r4, r5, r6, r7, r8, r9, sl, lr}
  402600:	4e20      	ldr	r6, [pc, #128]	; (402684 <prvSwitchTimerLists+0x88>)
  402602:	b082      	sub	sp, #8
		( void ) uxListRemove( &( pxTimer->xTimerListItem ) );
  402604:	4f20      	ldr	r7, [pc, #128]	; (402688 <prvSwitchTimerLists+0x8c>)
				xResult = xTimerGenericCommand( pxTimer, tmrCOMMAND_START_DONT_TRACE, xNextExpireTime, NULL, tmrNO_DELAY );
  402606:	f8df 8088 	ldr.w	r8, [pc, #136]	; 402690 <prvSwitchTimerLists+0x94>
	while( listLIST_IS_EMPTY( pxCurrentTimerList ) == pdFALSE )
  40260a:	e00c      	b.n	402626 <prvSwitchTimerLists+0x2a>
		xNextExpireTime = listGET_ITEM_VALUE_OF_HEAD_ENTRY( pxCurrentTimerList );
  40260c:	68db      	ldr	r3, [r3, #12]
		pxTimer = ( Timer_t * ) listGET_OWNER_OF_HEAD_ENTRY( pxCurrentTimerList );
  40260e:	68dc      	ldr	r4, [r3, #12]
		xNextExpireTime = listGET_ITEM_VALUE_OF_HEAD_ENTRY( pxCurrentTimerList );
  402610:	f8d3 9000 	ldr.w	r9, [r3]
		( void ) uxListRemove( &( pxTimer->xTimerListItem ) );
  402614:	1d25      	adds	r5, r4, #4
  402616:	4628      	mov	r0, r5
  402618:	47b8      	blx	r7
		pxTimer->pxCallbackFunction( ( TimerHandle_t ) pxTimer );
  40261a:	6a63      	ldr	r3, [r4, #36]	; 0x24
  40261c:	4620      	mov	r0, r4
  40261e:	4798      	blx	r3
		if( pxTimer->uxAutoReload == ( UBaseType_t ) pdTRUE )
  402620:	69e3      	ldr	r3, [r4, #28]
  402622:	2b01      	cmp	r3, #1
  402624:	d00a      	beq.n	40263c <prvSwitchTimerLists+0x40>
	while( listLIST_IS_EMPTY( pxCurrentTimerList ) == pdFALSE )
  402626:	6833      	ldr	r3, [r6, #0]
  402628:	681a      	ldr	r2, [r3, #0]
  40262a:	2a00      	cmp	r2, #0
  40262c:	d1ee      	bne.n	40260c <prvSwitchTimerLists+0x10>
	pxCurrentTimerList = pxOverflowTimerList;
  40262e:	4a17      	ldr	r2, [pc, #92]	; (40268c <prvSwitchTimerLists+0x90>)
  402630:	6811      	ldr	r1, [r2, #0]
	pxOverflowTimerList = pxTemp;
  402632:	6013      	str	r3, [r2, #0]
	pxCurrentTimerList = pxOverflowTimerList;
  402634:	6031      	str	r1, [r6, #0]
}
  402636:	b002      	add	sp, #8
  402638:	e8bd 87f0 	ldmia.w	sp!, {r4, r5, r6, r7, r8, r9, sl, pc}
			xReloadTime = ( xNextExpireTime + pxTimer->xTimerPeriodInTicks );
  40263c:	69a3      	ldr	r3, [r4, #24]
				vListInsert( pxCurrentTimerList, &( pxTimer->xTimerListItem ) );
  40263e:	4629      	mov	r1, r5
				xResult = xTimerGenericCommand( pxTimer, tmrCOMMAND_START_DONT_TRACE, xNextExpireTime, NULL, tmrNO_DELAY );
  402640:	f04f 0e00 	mov.w	lr, #0
				vListInsert( pxCurrentTimerList, &( pxTimer->xTimerListItem ) );
  402644:	f8df a04c 	ldr.w	sl, [pc, #76]	; 402694 <prvSwitchTimerLists+0x98>
			xReloadTime = ( xNextExpireTime + pxTimer->xTimerPeriodInTicks );
  402648:	eb09 0503 	add.w	r5, r9, r3
				xResult = xTimerGenericCommand( pxTimer, tmrCOMMAND_START_DONT_TRACE, xNextExpireTime, NULL, tmrNO_DELAY );
  40264c:	464a      	mov	r2, r9
  40264e:	4673      	mov	r3, lr
  402650:	4620      	mov	r0, r4
			if( xReloadTime > xNextExpireTime )
  402652:	45a9      	cmp	r9, r5
  402654:	d204      	bcs.n	402660 <prvSwitchTimerLists+0x64>
				listSET_LIST_ITEM_VALUE( &( pxTimer->xTimerListItem ), xReloadTime );
  402656:	6065      	str	r5, [r4, #4]
				listSET_LIST_ITEM_OWNER( &( pxTimer->xTimerListItem ), pxTimer );
  402658:	6124      	str	r4, [r4, #16]
				vListInsert( pxCurrentTimerList, &( pxTimer->xTimerListItem ) );
  40265a:	6830      	ldr	r0, [r6, #0]
  40265c:	47d0      	blx	sl
  40265e:	e7e2      	b.n	402626 <prvSwitchTimerLists+0x2a>
				xResult = xTimerGenericCommand( pxTimer, tmrCOMMAND_START_DONT_TRACE, xNextExpireTime, NULL, tmrNO_DELAY );
  402660:	f8cd e000 	str.w	lr, [sp]
  402664:	4671      	mov	r1, lr
  402666:	47c0      	blx	r8
				configASSERT( xResult );
  402668:	2800      	cmp	r0, #0
  40266a:	d1dc      	bne.n	402626 <prvSwitchTimerLists+0x2a>
  40266c:	f04f 0380 	mov.w	r3, #128	; 0x80
  402670:	b672      	cpsid	i
  402672:	f383 8811 	msr	BASEPRI, r3
  402676:	f3bf 8f6f 	isb	sy
  40267a:	f3bf 8f4f 	dsb	sy
  40267e:	b662      	cpsie	i
  402680:	e7fe      	b.n	402680 <prvSwitchTimerLists+0x84>
  402682:	bf00      	nop
  402684:	20400b60 	.word	0x20400b60
  402688:	00400cad 	.word	0x00400cad
  40268c:	20400b64 	.word	0x20400b64
  402690:	00402599 	.word	0x00402599
  402694:	00400c79 	.word	0x00400c79

00402698 <prvTimerTask>:
{
  402698:	e92d 4ff0 	stmdb	sp!, {r4, r5, r6, r7, r8, r9, sl, fp, lr}
  40269c:	f8df 9204 	ldr.w	r9, [pc, #516]	; 4028a4 <prvTimerTask+0x20c>
  4026a0:	b089      	sub	sp, #36	; 0x24
  4026a2:	f8df a204 	ldr.w	sl, [pc, #516]	; 4028a8 <prvTimerTask+0x210>
  4026a6:	f8df 8204 	ldr.w	r8, [pc, #516]	; 4028ac <prvTimerTask+0x214>
  4026aa:	4d72      	ldr	r5, [pc, #456]	; (402874 <prvTimerTask+0x1dc>)
  4026ac:	4e72      	ldr	r6, [pc, #456]	; (402878 <prvTimerTask+0x1e0>)
	*pxListWasEmpty = listLIST_IS_EMPTY( pxCurrentTimerList );
  4026ae:	f8d9 3000 	ldr.w	r3, [r9]
	if( *pxListWasEmpty == pdFALSE )
  4026b2:	681c      	ldr	r4, [r3, #0]
  4026b4:	2c00      	cmp	r4, #0
  4026b6:	d04e      	beq.n	402756 <prvTimerTask+0xbe>
		xNextExpireTime = listGET_ITEM_VALUE_OF_HEAD_ENTRY( pxCurrentTimerList );
  4026b8:	68db      	ldr	r3, [r3, #12]
  4026ba:	681f      	ldr	r7, [r3, #0]
	vTaskSuspendAll();
  4026bc:	47d0      	blx	sl
	xTimeNow = xTaskGetTickCount();
  4026be:	47c0      	blx	r8
	if( xTimeNow < xLastTime )
  4026c0:	4a6e      	ldr	r2, [pc, #440]	; (40287c <prvTimerTask+0x1e4>)
	xTimeNow = xTaskGetTickCount();
  4026c2:	4603      	mov	r3, r0
	if( xTimeNow < xLastTime )
  4026c4:	6812      	ldr	r2, [r2, #0]
  4026c6:	4290      	cmp	r0, r2
  4026c8:	d356      	bcc.n	402778 <prvTimerTask+0xe0>
	xLastTime = xTimeNow;
  4026ca:	4a6c      	ldr	r2, [pc, #432]	; (40287c <prvTimerTask+0x1e4>)
			if( ( xListWasEmpty == pdFALSE ) && ( xNextExpireTime <= xTimeNow ) )
  4026cc:	4287      	cmp	r7, r0
	xLastTime = xTimeNow;
  4026ce:	6010      	str	r0, [r2, #0]
			if( ( xListWasEmpty == pdFALSE ) && ( xNextExpireTime <= xTimeNow ) )
  4026d0:	d960      	bls.n	402794 <prvTimerTask+0xfc>
  4026d2:	2200      	movs	r2, #0
				vQueueWaitForMessageRestricted( xTimerQueue, ( xNextExpireTime - xTimeNow ), xListWasEmpty );
  4026d4:	1af9      	subs	r1, r7, r3
  4026d6:	6828      	ldr	r0, [r5, #0]
  4026d8:	4b69      	ldr	r3, [pc, #420]	; (402880 <prvTimerTask+0x1e8>)
  4026da:	4798      	blx	r3
				if( xTaskResumeAll() == pdFALSE )
  4026dc:	4b69      	ldr	r3, [pc, #420]	; (402884 <prvTimerTask+0x1ec>)
  4026de:	4798      	blx	r3
  4026e0:	b938      	cbnz	r0, 4026f2 <prvTimerTask+0x5a>
					portYIELD_WITHIN_API();
  4026e2:	f04f 5380 	mov.w	r3, #268435456	; 0x10000000
  4026e6:	4a68      	ldr	r2, [pc, #416]	; (402888 <prvTimerTask+0x1f0>)
  4026e8:	6013      	str	r3, [r2, #0]
  4026ea:	f3bf 8f4f 	dsb	sy
  4026ee:	f3bf 8f6f 	isb	sy
	while( xQueueReceive( xTimerQueue, &xMessage, tmrNO_DELAY ) != pdFAIL ) /*lint !e603 xMessage does not have to be initialised as it is passed out, not in, and it is not used unless xQueueReceive() returns pdTRUE. */
  4026f2:	2300      	movs	r3, #0
  4026f4:	a904      	add	r1, sp, #16
  4026f6:	6828      	ldr	r0, [r5, #0]
  4026f8:	461a      	mov	r2, r3
  4026fa:	47b0      	blx	r6
  4026fc:	2800      	cmp	r0, #0
  4026fe:	d0d6      	beq.n	4026ae <prvTimerTask+0x16>
			if( xMessage.xMessageID < ( BaseType_t ) 0 )
  402700:	9b04      	ldr	r3, [sp, #16]
  402702:	2b00      	cmp	r3, #0
  402704:	db1f      	blt.n	402746 <prvTimerTask+0xae>
			pxTimer = xMessage.u.xTimerParameters.pxTimer;
  402706:	9c06      	ldr	r4, [sp, #24]
			if( listIS_CONTAINED_WITHIN( NULL, &( pxTimer->xTimerListItem ) ) == pdFALSE )
  402708:	6963      	ldr	r3, [r4, #20]
  40270a:	b113      	cbz	r3, 402712 <prvTimerTask+0x7a>
				( void ) uxListRemove( &( pxTimer->xTimerListItem ) );
  40270c:	1d20      	adds	r0, r4, #4
  40270e:	4b5f      	ldr	r3, [pc, #380]	; (40288c <prvTimerTask+0x1f4>)
  402710:	4798      	blx	r3
	xTimeNow = xTaskGetTickCount();
  402712:	47c0      	blx	r8
	if( xTimeNow < xLastTime )
  402714:	4b59      	ldr	r3, [pc, #356]	; (40287c <prvTimerTask+0x1e4>)
	xTimeNow = xTaskGetTickCount();
  402716:	4602      	mov	r2, r0
	if( xTimeNow < xLastTime )
  402718:	681b      	ldr	r3, [r3, #0]
  40271a:	4298      	cmp	r0, r3
  40271c:	d335      	bcc.n	40278a <prvTimerTask+0xf2>
  40271e:	9b04      	ldr	r3, [sp, #16]
	xLastTime = xTimeNow;
  402720:	4956      	ldr	r1, [pc, #344]	; (40287c <prvTimerTask+0x1e4>)
  402722:	2b09      	cmp	r3, #9
  402724:	600a      	str	r2, [r1, #0]
  402726:	d8e4      	bhi.n	4026f2 <prvTimerTask+0x5a>
  402728:	2101      	movs	r1, #1
  40272a:	fa01 f303 	lsl.w	r3, r1, r3
  40272e:	f413 7b04 	ands.w	fp, r3, #528	; 0x210
  402732:	d163      	bne.n	4027fc <prvTimerTask+0x164>
  402734:	f013 0fc7 	tst.w	r3, #199	; 0xc7
  402738:	d169      	bne.n	40280e <prvTimerTask+0x176>
  40273a:	069b      	lsls	r3, r3, #26
  40273c:	d5d9      	bpl.n	4026f2 <prvTimerTask+0x5a>
					vPortFree( pxTimer );
  40273e:	4620      	mov	r0, r4
  402740:	4b53      	ldr	r3, [pc, #332]	; (402890 <prvTimerTask+0x1f8>)
  402742:	4798      	blx	r3
  402744:	e7d5      	b.n	4026f2 <prvTimerTask+0x5a>
				pxCallback->pxCallbackFunction( pxCallback->pvParameter1, pxCallback->ulParameter2 );
  402746:	9b05      	ldr	r3, [sp, #20]
  402748:	9907      	ldr	r1, [sp, #28]
  40274a:	9806      	ldr	r0, [sp, #24]
  40274c:	4798      	blx	r3
		if( xMessage.xMessageID >= ( BaseType_t ) 0 )
  40274e:	9b04      	ldr	r3, [sp, #16]
  402750:	2b00      	cmp	r3, #0
  402752:	dbce      	blt.n	4026f2 <prvTimerTask+0x5a>
  402754:	e7d7      	b.n	402706 <prvTimerTask+0x6e>
	vTaskSuspendAll();
  402756:	47d0      	blx	sl
	xTimeNow = xTaskGetTickCount();
  402758:	47c0      	blx	r8
	if( xTimeNow < xLastTime )
  40275a:	4a48      	ldr	r2, [pc, #288]	; (40287c <prvTimerTask+0x1e4>)
	xTimeNow = xTaskGetTickCount();
  40275c:	4603      	mov	r3, r0
	if( xTimeNow < xLastTime )
  40275e:	6812      	ldr	r2, [r2, #0]
  402760:	4282      	cmp	r2, r0
  402762:	d809      	bhi.n	402778 <prvTimerTask+0xe0>
					xListWasEmpty = listLIST_IS_EMPTY( pxOverflowTimerList );
  402764:	4a4b      	ldr	r2, [pc, #300]	; (402894 <prvTimerTask+0x1fc>)
  402766:	4627      	mov	r7, r4
	xLastTime = xTimeNow;
  402768:	4944      	ldr	r1, [pc, #272]	; (40287c <prvTimerTask+0x1e4>)
					xListWasEmpty = listLIST_IS_EMPTY( pxOverflowTimerList );
  40276a:	6812      	ldr	r2, [r2, #0]
	xLastTime = xTimeNow;
  40276c:	600b      	str	r3, [r1, #0]
					xListWasEmpty = listLIST_IS_EMPTY( pxOverflowTimerList );
  40276e:	6812      	ldr	r2, [r2, #0]
  402770:	fab2 f282 	clz	r2, r2
  402774:	0952      	lsrs	r2, r2, #5
  402776:	e7ad      	b.n	4026d4 <prvTimerTask+0x3c>
  402778:	9303      	str	r3, [sp, #12]
		prvSwitchTimerLists();
  40277a:	4b47      	ldr	r3, [pc, #284]	; (402898 <prvTimerTask+0x200>)
  40277c:	4798      	blx	r3
	xLastTime = xTimeNow;
  40277e:	9b03      	ldr	r3, [sp, #12]
  402780:	4a3e      	ldr	r2, [pc, #248]	; (40287c <prvTimerTask+0x1e4>)
  402782:	6013      	str	r3, [r2, #0]
			( void ) xTaskResumeAll();
  402784:	4b3f      	ldr	r3, [pc, #252]	; (402884 <prvTimerTask+0x1ec>)
  402786:	4798      	blx	r3
  402788:	e7b3      	b.n	4026f2 <prvTimerTask+0x5a>
		prvSwitchTimerLists();
  40278a:	4b43      	ldr	r3, [pc, #268]	; (402898 <prvTimerTask+0x200>)
  40278c:	9003      	str	r0, [sp, #12]
  40278e:	4798      	blx	r3
  402790:	9a03      	ldr	r2, [sp, #12]
  402792:	e7c4      	b.n	40271e <prvTimerTask+0x86>
  402794:	9303      	str	r3, [sp, #12]
				( void ) xTaskResumeAll();
  402796:	4b3b      	ldr	r3, [pc, #236]	; (402884 <prvTimerTask+0x1ec>)
  402798:	4798      	blx	r3
Timer_t * const pxTimer = ( Timer_t * ) listGET_OWNER_OF_HEAD_ENTRY( pxCurrentTimerList );
  40279a:	f8d9 2000 	ldr.w	r2, [r9]
	( void ) uxListRemove( &( pxTimer->xTimerListItem ) );
  40279e:	4b3b      	ldr	r3, [pc, #236]	; (40288c <prvTimerTask+0x1f4>)
Timer_t * const pxTimer = ( Timer_t * ) listGET_OWNER_OF_HEAD_ENTRY( pxCurrentTimerList );
  4027a0:	68d2      	ldr	r2, [r2, #12]
  4027a2:	f8d2 b00c 	ldr.w	fp, [r2, #12]
	( void ) uxListRemove( &( pxTimer->xTimerListItem ) );
  4027a6:	f10b 0004 	add.w	r0, fp, #4
  4027aa:	4798      	blx	r3
	if( pxTimer->uxAutoReload == ( UBaseType_t ) pdTRUE )
  4027ac:	f8db 201c 	ldr.w	r2, [fp, #28]
  4027b0:	9b03      	ldr	r3, [sp, #12]
  4027b2:	2a01      	cmp	r2, #1
  4027b4:	d004      	beq.n	4027c0 <prvTimerTask+0x128>
	pxTimer->pxCallbackFunction( ( TimerHandle_t ) pxTimer );
  4027b6:	f8db 3024 	ldr.w	r3, [fp, #36]	; 0x24
  4027ba:	4658      	mov	r0, fp
  4027bc:	4798      	blx	r3
  4027be:	e798      	b.n	4026f2 <prvTimerTask+0x5a>
		if( prvInsertTimerInActiveList( pxTimer, ( xNextExpireTime + pxTimer->xTimerPeriodInTicks ), xTimeNow, xNextExpireTime ) == pdTRUE )
  4027c0:	f8db 1018 	ldr.w	r1, [fp, #24]
  4027c4:	461a      	mov	r2, r3
  4027c6:	4658      	mov	r0, fp
  4027c8:	463b      	mov	r3, r7
  4027ca:	4439      	add	r1, r7
  4027cc:	4c33      	ldr	r4, [pc, #204]	; (40289c <prvTimerTask+0x204>)
  4027ce:	47a0      	blx	r4
  4027d0:	2801      	cmp	r0, #1
  4027d2:	d1f0      	bne.n	4027b6 <prvTimerTask+0x11e>
			xResult = xTimerGenericCommand( pxTimer, tmrCOMMAND_START_DONT_TRACE, xNextExpireTime, NULL, tmrNO_DELAY );
  4027d4:	2300      	movs	r3, #0
  4027d6:	463a      	mov	r2, r7
  4027d8:	4658      	mov	r0, fp
  4027da:	4c31      	ldr	r4, [pc, #196]	; (4028a0 <prvTimerTask+0x208>)
  4027dc:	9300      	str	r3, [sp, #0]
  4027de:	4619      	mov	r1, r3
  4027e0:	47a0      	blx	r4
			configASSERT( xResult );
  4027e2:	2800      	cmp	r0, #0
  4027e4:	d1e7      	bne.n	4027b6 <prvTimerTask+0x11e>
  4027e6:	f04f 0380 	mov.w	r3, #128	; 0x80
  4027ea:	b672      	cpsid	i
  4027ec:	f383 8811 	msr	BASEPRI, r3
  4027f0:	f3bf 8f6f 	isb	sy
  4027f4:	f3bf 8f4f 	dsb	sy
  4027f8:	b662      	cpsie	i
  4027fa:	e7fe      	b.n	4027fa <prvTimerTask+0x162>
					pxTimer->xTimerPeriodInTicks = xMessage.u.xTimerParameters.xMessageValue;
  4027fc:	9905      	ldr	r1, [sp, #20]
  4027fe:	61a1      	str	r1, [r4, #24]
					configASSERT( ( pxTimer->xTimerPeriodInTicks > 0 ) );
  402800:	b369      	cbz	r1, 40285e <prvTimerTask+0x1c6>
					( void ) prvInsertTimerInActiveList( pxTimer, ( xTimeNow + pxTimer->xTimerPeriodInTicks ), xTimeNow, xTimeNow );
  402802:	4411      	add	r1, r2
  402804:	4620      	mov	r0, r4
  402806:	4613      	mov	r3, r2
  402808:	4c24      	ldr	r4, [pc, #144]	; (40289c <prvTimerTask+0x204>)
  40280a:	47a0      	blx	r4
  40280c:	e771      	b.n	4026f2 <prvTimerTask+0x5a>
					if( prvInsertTimerInActiveList( pxTimer,  xMessage.u.xTimerParameters.xMessageValue + pxTimer->xTimerPeriodInTicks, xTimeNow, xMessage.u.xTimerParameters.xMessageValue ) == pdTRUE )
  40280e:	9b05      	ldr	r3, [sp, #20]
  402810:	4620      	mov	r0, r4
  402812:	69a1      	ldr	r1, [r4, #24]
  402814:	4f21      	ldr	r7, [pc, #132]	; (40289c <prvTimerTask+0x204>)
  402816:	4419      	add	r1, r3
  402818:	47b8      	blx	r7
  40281a:	2801      	cmp	r0, #1
  40281c:	f47f af69 	bne.w	4026f2 <prvTimerTask+0x5a>
						pxTimer->pxCallbackFunction( ( TimerHandle_t ) pxTimer );
  402820:	6a63      	ldr	r3, [r4, #36]	; 0x24
  402822:	4620      	mov	r0, r4
  402824:	4798      	blx	r3
						if( pxTimer->uxAutoReload == ( UBaseType_t ) pdTRUE )
  402826:	69e3      	ldr	r3, [r4, #28]
  402828:	2b01      	cmp	r3, #1
  40282a:	f47f af62 	bne.w	4026f2 <prvTimerTask+0x5a>
							xResult = xTimerGenericCommand( pxTimer, tmrCOMMAND_START_DONT_TRACE, xMessage.u.xTimerParameters.xMessageValue + pxTimer->xTimerPeriodInTicks, NULL, tmrNO_DELAY );
  40282e:	9a05      	ldr	r2, [sp, #20]
  402830:	4620      	mov	r0, r4
  402832:	69a4      	ldr	r4, [r4, #24]
  402834:	465b      	mov	r3, fp
  402836:	f8cd b000 	str.w	fp, [sp]
  40283a:	4659      	mov	r1, fp
  40283c:	4422      	add	r2, r4
  40283e:	4c18      	ldr	r4, [pc, #96]	; (4028a0 <prvTimerTask+0x208>)
  402840:	47a0      	blx	r4
							configASSERT( xResult );
  402842:	2800      	cmp	r0, #0
  402844:	f47f af55 	bne.w	4026f2 <prvTimerTask+0x5a>
  402848:	f04f 0380 	mov.w	r3, #128	; 0x80
  40284c:	b672      	cpsid	i
  40284e:	f383 8811 	msr	BASEPRI, r3
  402852:	f3bf 8f6f 	isb	sy
  402856:	f3bf 8f4f 	dsb	sy
  40285a:	b662      	cpsie	i
  40285c:	e7fe      	b.n	40285c <prvTimerTask+0x1c4>
  40285e:	f04f 0380 	mov.w	r3, #128	; 0x80
  402862:	b672      	cpsid	i
  402864:	f383 8811 	msr	BASEPRI, r3
  402868:	f3bf 8f6f 	isb	sy
  40286c:	f3bf 8f4f 	dsb	sy
  402870:	b662      	cpsie	i
  402872:	e7fe      	b.n	402872 <prvTimerTask+0x1da>
  402874:	20400b94 	.word	0x20400b94
  402878:	0040160d 	.word	0x0040160d
  40287c:	20400b90 	.word	0x20400b90
  402880:	004017fd 	.word	0x004017fd
  402884:	00401d51 	.word	0x00401d51
  402888:	e000ed04 	.word	0xe000ed04
  40288c:	00400cad 	.word	0x00400cad
  402890:	00401015 	.word	0x00401015
  402894:	20400b64 	.word	0x20400b64
  402898:	004025fd 	.word	0x004025fd
  40289c:	00402469 	.word	0x00402469
  4028a0:	00402599 	.word	0x00402599
  4028a4:	20400b60 	.word	0x20400b60
  4028a8:	00401bc1 	.word	0x00401bc1
  4028ac:	00401bd1 	.word	0x00401bd1

004028b0 <echo_callback>:
  xQueueSendFromISR(xQueueButFreq, (void *)&increment, 10);
}

//borda subida flag == 1, borda descida flag == 2
void echo_callback(void) {
  if (flag_echo == 0) {
  4028b0:	4b04      	ldr	r3, [pc, #16]	; (4028c4 <echo_callback+0x14>)
  4028b2:	681a      	ldr	r2, [r3, #0]
  4028b4:	b112      	cbz	r2, 4028bc <echo_callback+0xc>
    flag_echo = 1;
  } else {
    flag_echo = 2;
  4028b6:	2202      	movs	r2, #2
  4028b8:	601a      	str	r2, [r3, #0]
  4028ba:	4770      	bx	lr
    flag_echo = 1;
  4028bc:	2201      	movs	r2, #1
  4028be:	601a      	str	r2, [r3, #0]
  4028c0:	4770      	bx	lr
  4028c2:	bf00      	nop
  4028c4:	20400b98 	.word	0x20400b98

004028c8 <but_callback>:
void but_callback(void) {
  4028c8:	b510      	push	{r4, lr}
  4028ca:	b082      	sub	sp, #8
  uint increment = 100;
  4028cc:	2264      	movs	r2, #100	; 0x64
  xQueueSendFromISR(xQueueButFreq, (void *)&increment, 10);
  4028ce:	4805      	ldr	r0, [pc, #20]	; (4028e4 <but_callback+0x1c>)
  4028d0:	2300      	movs	r3, #0
  uint increment = 100;
  4028d2:	a902      	add	r1, sp, #8
  xQueueSendFromISR(xQueueButFreq, (void *)&increment, 10);
  4028d4:	4c04      	ldr	r4, [pc, #16]	; (4028e8 <but_callback+0x20>)
  4028d6:	6800      	ldr	r0, [r0, #0]
  uint increment = 100;
  4028d8:	f841 2d04 	str.w	r2, [r1, #-4]!
  xQueueSendFromISR(xQueueButFreq, (void *)&increment, 10);
  4028dc:	220a      	movs	r2, #10
  4028de:	47a0      	blx	r4
}
  4028e0:	b002      	add	sp, #8
  4028e2:	bd10      	pop	{r4, pc}
  4028e4:	20400c20 	.word	0x20400c20
  4028e8:	0040150d 	.word	0x0040150d

004028ec <task_but>:
    /* suspende por delayMs */
    vTaskDelay(delayMs);
  }
}

static void task_but(void *pvParameters) {
  4028ec:	e92d 4880 	stmdb	sp!, {r7, fp, lr}


static void BUT_init(void) {
  // Configura PIO para lidar com o pino do boto como entrada
  // com pull-up
  pio_configure(BUT_PIO, PIO_INPUT, BUT_PIO_PIN_MASK, PIO_PULLUP);
  4028f0:	4d36      	ldr	r5, [pc, #216]	; (4029cc <task_but+0xe0>)
static void task_but(void *pvParameters) {
  4028f2:	b085      	sub	sp, #20
  pio_configure(BUT_PIO, PIO_INPUT, BUT_PIO_PIN_MASK, PIO_PULLUP);
  4028f4:	2301      	movs	r3, #1
  4028f6:	f44f 6200 	mov.w	r2, #2048	; 0x800
  4028fa:	f04f 5120 	mov.w	r1, #671088640	; 0x28000000
  4028fe:	4834      	ldr	r0, [pc, #208]	; (4029d0 <task_but+0xe4>)
  402900:	47a8      	blx	r5

  pio_configure(ECHO_PIO, PIO_INPUT, ECHO_PIO_IDX_MASK, 0);
  402902:	2300      	movs	r3, #0
  402904:	f04f 4280 	mov.w	r2, #1073741824	; 0x40000000
  402908:	f04f 5120 	mov.w	r1, #671088640	; 0x28000000
  40290c:	4831      	ldr	r0, [pc, #196]	; (4029d4 <task_but+0xe8>)
  uint32_t msg = 0;
  40290e:	ac04      	add	r4, sp, #16
  pio_configure(ECHO_PIO, PIO_INPUT, ECHO_PIO_IDX_MASK, 0);
  402910:	47a8      	blx	r5

  // Configura interrupo no pino referente ao botao e associa
  // funo de callback caso uma interrupo for gerada
  // a funo de callback  a: but_callback()
  pio_handler_set(BUT_PIO,
  402912:	4931      	ldr	r1, [pc, #196]	; (4029d8 <task_but+0xec>)
  402914:	4d31      	ldr	r5, [pc, #196]	; (4029dc <task_but+0xf0>)
  402916:	2350      	movs	r3, #80	; 0x50
  402918:	f44f 6200 	mov.w	r2, #2048	; 0x800
  40291c:	9100      	str	r1, [sp, #0]
  40291e:	482c      	ldr	r0, [pc, #176]	; (4029d0 <task_but+0xe4>)
  402920:	210a      	movs	r1, #10
  402922:	47a8      	blx	r5
                  BUT_PIO_ID,
                  BUT_PIO_PIN_MASK,
                  PIO_IT_FALL_EDGE,
                  but_callback);

	pio_handler_set(ECHO_PIO,
  402924:	492e      	ldr	r1, [pc, #184]	; (4029e0 <task_but+0xf4>)
  402926:	2340      	movs	r3, #64	; 0x40
  402928:	f04f 4280 	mov.w	r2, #1073741824	; 0x40000000
  40292c:	9100      	str	r1, [sp, #0]
  40292e:	2110      	movs	r1, #16
  402930:	4828      	ldr	r0, [pc, #160]	; (4029d4 <task_but+0xe8>)
  402932:	47a8      	blx	r5
                  ECHO_PIO_IDX_MASK,
                  PIO_IT_EDGE,
                  echo_callback);

  // Ativa interrupo e limpa primeira IRQ gerada na ativacao
  pio_enable_interrupt(BUT_PIO, BUT_PIO_PIN_MASK);
  402934:	4e2b      	ldr	r6, [pc, #172]	; (4029e4 <task_but+0xf8>)
  402936:	f44f 6100 	mov.w	r1, #2048	; 0x800
  40293a:	4825      	ldr	r0, [pc, #148]	; (4029d0 <task_but+0xe4>)
  40293c:	47b0      	blx	r6
  pio_get_interrupt_status(BUT_PIO);
  40293e:	4d2a      	ldr	r5, [pc, #168]	; (4029e8 <task_but+0xfc>)
  402940:	4823      	ldr	r0, [pc, #140]	; (4029d0 <task_but+0xe4>)
  402942:	47a8      	blx	r5
  
  pio_enable_interrupt(ECHO_PIO, ECHO_PIO_IDX_MASK);
  402944:	f04f 4180 	mov.w	r1, #1073741824	; 0x40000000
  402948:	4822      	ldr	r0, [pc, #136]	; (4029d4 <task_but+0xe8>)
  40294a:	47b0      	blx	r6
  pio_get_interrupt_status(ECHO_PIO);
  40294c:	4821      	ldr	r0, [pc, #132]	; (4029d4 <task_but+0xe8>)
  40294e:	47a8      	blx	r5
  NVIC->ISER[(uint32_t)((int32_t)IRQn) >> 5] = (uint32_t)(1 << ((uint32_t)((int32_t)IRQn) & (uint32_t)0x1F)); /* enable interrupt */
  402950:	4b26      	ldr	r3, [pc, #152]	; (4029ec <task_but+0x100>)
  402952:	f44f 6580 	mov.w	r5, #1024	; 0x400
    NVIC->IP[(uint32_t)(IRQn)]            = ((priority << (8 - __NVIC_PRIO_BITS)) & 0xff); } /* set Priority for device specific Interrupts  */
  402956:	2280      	movs	r2, #128	; 0x80
  NVIC->ISER[(uint32_t)((int32_t)IRQn) >> 5] = (uint32_t)(1 << ((uint32_t)((int32_t)IRQn) & (uint32_t)0x1F)); /* enable interrupt */
  402958:	f44f 3680 	mov.w	r6, #65536	; 0x10000
  uint32_t delayTicks = 2000;
  40295c:	f44f 60fa 	mov.w	r0, #2000	; 0x7d0
  402960:	601d      	str	r5, [r3, #0]
  uint32_t msg = 0;
  402962:	2100      	movs	r1, #0
  402964:	f8df 8090 	ldr.w	r8, [pc, #144]	; 4029f8 <task_but+0x10c>
  402968:	4d21      	ldr	r5, [pc, #132]	; (4029f0 <task_but+0x104>)
  40296a:	f8df b090 	ldr.w	fp, [pc, #144]	; 4029fc <task_but+0x110>
  40296e:	f8df a090 	ldr.w	sl, [pc, #144]	; 402a00 <task_but+0x114>
  402972:	f8df 9090 	ldr.w	r9, [pc, #144]	; 402a04 <task_but+0x118>
  402976:	601e      	str	r6, [r3, #0]
    NVIC->IP[(uint32_t)(IRQn)]            = ((priority << (8 - __NVIC_PRIO_BITS)) & 0xff); } /* set Priority for device specific Interrupts  */
  402978:	f883 230a 	strb.w	r2, [r3, #778]	; 0x30a
  40297c:	f883 2310 	strb.w	r2, [r3, #784]	; 0x310
  uint32_t delayTicks = 2000;
  402980:	9002      	str	r0, [sp, #8]
  uint32_t msg = 0;
  402982:	f844 1d04 	str.w	r1, [r4, #-4]!
    if(xQueueReceive(xQueueButFreq, &msg, (TickType_t) 0)){
  402986:	2300      	movs	r3, #0
  402988:	4621      	mov	r1, r4
  40298a:	f8d8 0000 	ldr.w	r0, [r8]
  40298e:	461a      	mov	r2, r3
  402990:	47a8      	blx	r5
  402992:	2800      	cmp	r0, #0
  402994:	d0f7      	beq.n	402986 <task_but+0x9a>
      delayTicks += msg;
  402996:	9f02      	ldr	r7, [sp, #8]
      xQueueSend(xQueueLedFreq, (void *)&delayTicks, 10);
  402998:	2300      	movs	r3, #0
      delayTicks += msg;
  40299a:	9e03      	ldr	r6, [sp, #12]
      xQueueSend(xQueueLedFreq, (void *)&delayTicks, 10);
  40299c:	220a      	movs	r2, #10
  40299e:	a902      	add	r1, sp, #8
  4029a0:	f8db 0000 	ldr.w	r0, [fp]
      delayTicks += msg;
  4029a4:	443e      	add	r6, r7
  4029a6:	9602      	str	r6, [sp, #8]
      xQueueSend(xQueueLedFreq, (void *)&delayTicks, 10);
  4029a8:	47d0      	blx	sl
      printf("task_but: %d \n", delayTicks);
  4029aa:	9902      	ldr	r1, [sp, #8]
  4029ac:	4811      	ldr	r0, [pc, #68]	; (4029f4 <task_but+0x108>)
  4029ae:	47c8      	blx	r9
      if (delayTicks < 100) {
  4029b0:	9b02      	ldr	r3, [sp, #8]
        delayTicks = 100;
  4029b2:	2264      	movs	r2, #100	; 0x64
      if (delayTicks < 100) {
  4029b4:	2b63      	cmp	r3, #99	; 0x63
  4029b6:	d801      	bhi.n	4029bc <task_but+0xd0>
        delayTicks = 100;
  4029b8:	9202      	str	r2, [sp, #8]
  4029ba:	e7e4      	b.n	402986 <task_but+0x9a>
      if (delayTicks > 1000) {
  4029bc:	f5b3 7f7a 	cmp.w	r3, #1000	; 0x3e8
  4029c0:	d9e1      	bls.n	402986 <task_but+0x9a>
        delayTicks = 1000;
  4029c2:	f44f 737a 	mov.w	r3, #1000	; 0x3e8
  4029c6:	9302      	str	r3, [sp, #8]
  4029c8:	e7dd      	b.n	402986 <task_but+0x9a>
  4029ca:	bf00      	nop
  4029cc:	00400515 	.word	0x00400515
  4029d0:	400e0e00 	.word	0x400e0e00
  4029d4:	400e1400 	.word	0x400e1400
  4029d8:	004028c9 	.word	0x004028c9
  4029dc:	00400669 	.word	0x00400669
  4029e0:	004028b1 	.word	0x004028b1
  4029e4:	004005d5 	.word	0x004005d5
  4029e8:	004005d9 	.word	0x004005d9
  4029ec:	e000e100 	.word	0xe000e100
  4029f0:	0040160d 	.word	0x0040160d
  4029f4:	00405e98 	.word	0x00405e98
  4029f8:	20400c20 	.word	0x20400c20
  4029fc:	20400c24 	.word	0x20400c24
  402a00:	0040132d 	.word	0x0040132d
  402a04:	00402e7d 	.word	0x00402e7d

00402a08 <usart_serial_getchar>:
	if (UART == (Uart*)p_usart) {
		while (uart_read((Uart*)p_usart, data));
	}
#else
# ifdef UART0
	if (UART0 == (Uart*)p_usart) {
  402a08:	4b2d      	ldr	r3, [pc, #180]	; (402ac0 <usart_serial_getchar+0xb8>)
	uint32_t val = 0;
  402a0a:	2200      	movs	r2, #0
{
  402a0c:	b5f0      	push	{r4, r5, r6, r7, lr}
	if (UART0 == (Uart*)p_usart) {
  402a0e:	4298      	cmp	r0, r3
{
  402a10:	b083      	sub	sp, #12
  402a12:	4604      	mov	r4, r0
  402a14:	460d      	mov	r5, r1
	uint32_t val = 0;
  402a16:	9201      	str	r2, [sp, #4]
	if (UART0 == (Uart*)p_usart) {
  402a18:	d03a      	beq.n	402a90 <usart_serial_getchar+0x88>
		while (uart_read((Uart*)p_usart, data));
	}
# endif
# ifdef UART1
	if (UART1 == (Uart*)p_usart) {
  402a1a:	4b2a      	ldr	r3, [pc, #168]	; (402ac4 <usart_serial_getchar+0xbc>)
  402a1c:	4298      	cmp	r0, r3
  402a1e:	d03f      	beq.n	402aa0 <usart_serial_getchar+0x98>
		while (uart_read((Uart*)p_usart, data));
	}
# endif
# ifdef UART2
	if (UART2 == (Uart*)p_usart) {
  402a20:	4b29      	ldr	r3, [pc, #164]	; (402ac8 <usart_serial_getchar+0xc0>)
  402a22:	4298      	cmp	r0, r3
  402a24:	d044      	beq.n	402ab0 <usart_serial_getchar+0xa8>
		while (uart_read((Uart*)p_usart, data));
	}
# endif
# ifdef UART3
	if (UART3 == (Uart*)p_usart) {
  402a26:	4b29      	ldr	r3, [pc, #164]	; (402acc <usart_serial_getchar+0xc4>)
  402a28:	4298      	cmp	r0, r3
  402a2a:	d015      	beq.n	402a58 <usart_serial_getchar+0x50>
		while (usart_read(p_usart, &val));
		*data = (uint8_t)(val & 0xFF);
	}
#else
# ifdef USART0
	if (USART0 == p_usart) {
  402a2c:	4b28      	ldr	r3, [pc, #160]	; (402ad0 <usart_serial_getchar+0xc8>)
  402a2e:	4298      	cmp	r0, r3
  402a30:	d024      	beq.n	402a7c <usart_serial_getchar+0x74>
		while (usart_read(p_usart, &val));
		*data = (uint8_t)(val & 0xFF);
	}
# endif
# ifdef USART1
	if (USART1 == p_usart) {
  402a32:	4b28      	ldr	r3, [pc, #160]	; (402ad4 <usart_serial_getchar+0xcc>)
  402a34:	429c      	cmp	r4, r3
  402a36:	d017      	beq.n	402a68 <usart_serial_getchar+0x60>
		while (usart_read(p_usart, &val));
		*data = (uint8_t)(val & 0xFF);
	}
# endif
# ifdef USART2
	if (USART2 == p_usart) {
  402a38:	4b27      	ldr	r3, [pc, #156]	; (402ad8 <usart_serial_getchar+0xd0>)
  402a3a:	429c      	cmp	r4, r3
  402a3c:	d001      	beq.n	402a42 <usart_serial_getchar+0x3a>
		*data = (uint8_t)(val & 0xFF);
	}
# endif
#endif /* ifdef USART */

}
  402a3e:	b003      	add	sp, #12
  402a40:	bdf0      	pop	{r4, r5, r6, r7, pc}
  402a42:	af01      	add	r7, sp, #4
  402a44:	4e25      	ldr	r6, [pc, #148]	; (402adc <usart_serial_getchar+0xd4>)
		while (usart_read(p_usart, &val));
  402a46:	4639      	mov	r1, r7
  402a48:	4620      	mov	r0, r4
  402a4a:	47b0      	blx	r6
  402a4c:	2800      	cmp	r0, #0
  402a4e:	d1fa      	bne.n	402a46 <usart_serial_getchar+0x3e>
		*data = (uint8_t)(val & 0xFF);
  402a50:	9b01      	ldr	r3, [sp, #4]
  402a52:	702b      	strb	r3, [r5, #0]
}
  402a54:	b003      	add	sp, #12
  402a56:	bdf0      	pop	{r4, r5, r6, r7, pc}
  402a58:	4e21      	ldr	r6, [pc, #132]	; (402ae0 <usart_serial_getchar+0xd8>)
		while (uart_read((Uart*)p_usart, data));
  402a5a:	4629      	mov	r1, r5
  402a5c:	4620      	mov	r0, r4
  402a5e:	47b0      	blx	r6
  402a60:	2800      	cmp	r0, #0
  402a62:	d1fa      	bne.n	402a5a <usart_serial_getchar+0x52>
}
  402a64:	b003      	add	sp, #12
  402a66:	bdf0      	pop	{r4, r5, r6, r7, pc}
  402a68:	af01      	add	r7, sp, #4
  402a6a:	4e1c      	ldr	r6, [pc, #112]	; (402adc <usart_serial_getchar+0xd4>)
		while (usart_read(p_usart, &val));
  402a6c:	4639      	mov	r1, r7
  402a6e:	4620      	mov	r0, r4
  402a70:	47b0      	blx	r6
  402a72:	2800      	cmp	r0, #0
  402a74:	d1fa      	bne.n	402a6c <usart_serial_getchar+0x64>
		*data = (uint8_t)(val & 0xFF);
  402a76:	9b01      	ldr	r3, [sp, #4]
  402a78:	702b      	strb	r3, [r5, #0]
  402a7a:	e7eb      	b.n	402a54 <usart_serial_getchar+0x4c>
  402a7c:	af01      	add	r7, sp, #4
  402a7e:	4e17      	ldr	r6, [pc, #92]	; (402adc <usart_serial_getchar+0xd4>)
		while (usart_read(p_usart, &val));
  402a80:	4639      	mov	r1, r7
  402a82:	4620      	mov	r0, r4
  402a84:	47b0      	blx	r6
  402a86:	2800      	cmp	r0, #0
  402a88:	d1fa      	bne.n	402a80 <usart_serial_getchar+0x78>
		*data = (uint8_t)(val & 0xFF);
  402a8a:	9b01      	ldr	r3, [sp, #4]
  402a8c:	702b      	strb	r3, [r5, #0]
  402a8e:	e7e1      	b.n	402a54 <usart_serial_getchar+0x4c>
  402a90:	4e13      	ldr	r6, [pc, #76]	; (402ae0 <usart_serial_getchar+0xd8>)
		while (uart_read((Uart*)p_usart, data));
  402a92:	4607      	mov	r7, r0
  402a94:	4629      	mov	r1, r5
  402a96:	4638      	mov	r0, r7
  402a98:	47b0      	blx	r6
  402a9a:	2800      	cmp	r0, #0
  402a9c:	d1fa      	bne.n	402a94 <usart_serial_getchar+0x8c>
  402a9e:	e7c8      	b.n	402a32 <usart_serial_getchar+0x2a>
  402aa0:	4e0f      	ldr	r6, [pc, #60]	; (402ae0 <usart_serial_getchar+0xd8>)
		while (uart_read((Uart*)p_usart, data));
  402aa2:	4607      	mov	r7, r0
  402aa4:	4629      	mov	r1, r5
  402aa6:	4638      	mov	r0, r7
  402aa8:	47b0      	blx	r6
  402aaa:	2800      	cmp	r0, #0
  402aac:	d1fa      	bne.n	402aa4 <usart_serial_getchar+0x9c>
  402aae:	e7c0      	b.n	402a32 <usart_serial_getchar+0x2a>
  402ab0:	4e0b      	ldr	r6, [pc, #44]	; (402ae0 <usart_serial_getchar+0xd8>)
		while (uart_read((Uart*)p_usart, data));
  402ab2:	4607      	mov	r7, r0
  402ab4:	4629      	mov	r1, r5
  402ab6:	4638      	mov	r0, r7
  402ab8:	47b0      	blx	r6
  402aba:	2800      	cmp	r0, #0
  402abc:	d1fa      	bne.n	402ab4 <usart_serial_getchar+0xac>
  402abe:	e7bb      	b.n	402a38 <usart_serial_getchar+0x30>
  402ac0:	400e0800 	.word	0x400e0800
  402ac4:	400e0a00 	.word	0x400e0a00
  402ac8:	400e1a00 	.word	0x400e1a00
  402acc:	400e1c00 	.word	0x400e1c00
  402ad0:	40024000 	.word	0x40024000
  402ad4:	40028000 	.word	0x40028000
  402ad8:	4002c000 	.word	0x4002c000
  402adc:	00400995 	.word	0x00400995
  402ae0:	00400895 	.word	0x00400895

00402ae4 <usart_serial_putchar>:
	if (UART0 == (Uart*)p_usart) {
  402ae4:	4b2a      	ldr	r3, [pc, #168]	; (402b90 <usart_serial_putchar+0xac>)
  402ae6:	4298      	cmp	r0, r3
{
  402ae8:	b570      	push	{r4, r5, r6, lr}
  402aea:	460d      	mov	r5, r1
	if (UART0 == (Uart*)p_usart) {
  402aec:	d01c      	beq.n	402b28 <usart_serial_putchar+0x44>
	if (UART1 == (Uart*)p_usart) {
  402aee:	4b29      	ldr	r3, [pc, #164]	; (402b94 <usart_serial_putchar+0xb0>)
  402af0:	4298      	cmp	r0, r3
  402af2:	d022      	beq.n	402b3a <usart_serial_putchar+0x56>
	if (UART2 == (Uart*)p_usart) {
  402af4:	4b28      	ldr	r3, [pc, #160]	; (402b98 <usart_serial_putchar+0xb4>)
  402af6:	4298      	cmp	r0, r3
  402af8:	d028      	beq.n	402b4c <usart_serial_putchar+0x68>
	if (UART3 == (Uart*)p_usart) {
  402afa:	4b28      	ldr	r3, [pc, #160]	; (402b9c <usart_serial_putchar+0xb8>)
  402afc:	4298      	cmp	r0, r3
  402afe:	d02e      	beq.n	402b5e <usart_serial_putchar+0x7a>
	if (USART0 == p_usart) {
  402b00:	4b27      	ldr	r3, [pc, #156]	; (402ba0 <usart_serial_putchar+0xbc>)
  402b02:	4298      	cmp	r0, r3
  402b04:	d007      	beq.n	402b16 <usart_serial_putchar+0x32>
	if (USART1 == p_usart) {
  402b06:	4b27      	ldr	r3, [pc, #156]	; (402ba4 <usart_serial_putchar+0xc0>)
  402b08:	4298      	cmp	r0, r3
  402b0a:	d038      	beq.n	402b7e <usart_serial_putchar+0x9a>
	if (USART2 == p_usart) {
  402b0c:	4b26      	ldr	r3, [pc, #152]	; (402ba8 <usart_serial_putchar+0xc4>)
  402b0e:	4298      	cmp	r0, r3
  402b10:	d02d      	beq.n	402b6e <usart_serial_putchar+0x8a>
	return 0;
  402b12:	2000      	movs	r0, #0
}
  402b14:	bd70      	pop	{r4, r5, r6, pc}
		while (usart_write(p_usart, c)!=0);
  402b16:	4604      	mov	r4, r0
  402b18:	4e24      	ldr	r6, [pc, #144]	; (402bac <usart_serial_putchar+0xc8>)
  402b1a:	4629      	mov	r1, r5
  402b1c:	4620      	mov	r0, r4
  402b1e:	47b0      	blx	r6
  402b20:	2800      	cmp	r0, #0
  402b22:	d1fa      	bne.n	402b1a <usart_serial_putchar+0x36>
		return 1;
  402b24:	2001      	movs	r0, #1
  402b26:	bd70      	pop	{r4, r5, r6, pc}
		while (uart_write((Uart*)p_usart, c)!=0);
  402b28:	4604      	mov	r4, r0
  402b2a:	4e21      	ldr	r6, [pc, #132]	; (402bb0 <usart_serial_putchar+0xcc>)
  402b2c:	4629      	mov	r1, r5
  402b2e:	4620      	mov	r0, r4
  402b30:	47b0      	blx	r6
  402b32:	2800      	cmp	r0, #0
  402b34:	d1fa      	bne.n	402b2c <usart_serial_putchar+0x48>
		return 1;
  402b36:	2001      	movs	r0, #1
  402b38:	bd70      	pop	{r4, r5, r6, pc}
		while (uart_write((Uart*)p_usart, c)!=0);
  402b3a:	4604      	mov	r4, r0
  402b3c:	4e1c      	ldr	r6, [pc, #112]	; (402bb0 <usart_serial_putchar+0xcc>)
  402b3e:	4629      	mov	r1, r5
  402b40:	4620      	mov	r0, r4
  402b42:	47b0      	blx	r6
  402b44:	2800      	cmp	r0, #0
  402b46:	d1fa      	bne.n	402b3e <usart_serial_putchar+0x5a>
		return 1;
  402b48:	2001      	movs	r0, #1
  402b4a:	bd70      	pop	{r4, r5, r6, pc}
		while (uart_write((Uart*)p_usart, c)!=0);
  402b4c:	4604      	mov	r4, r0
  402b4e:	4e18      	ldr	r6, [pc, #96]	; (402bb0 <usart_serial_putchar+0xcc>)
  402b50:	4629      	mov	r1, r5
  402b52:	4620      	mov	r0, r4
  402b54:	47b0      	blx	r6
  402b56:	2800      	cmp	r0, #0
  402b58:	d1fa      	bne.n	402b50 <usart_serial_putchar+0x6c>
		return 1;
  402b5a:	2001      	movs	r0, #1
  402b5c:	bd70      	pop	{r4, r5, r6, pc}
		while (uart_write((Uart*)p_usart, c)!=0);
  402b5e:	4604      	mov	r4, r0
  402b60:	4e13      	ldr	r6, [pc, #76]	; (402bb0 <usart_serial_putchar+0xcc>)
  402b62:	4629      	mov	r1, r5
  402b64:	4620      	mov	r0, r4
  402b66:	47b0      	blx	r6
  402b68:	2800      	cmp	r0, #0
  402b6a:	d1fa      	bne.n	402b62 <usart_serial_putchar+0x7e>
  402b6c:	e7da      	b.n	402b24 <usart_serial_putchar+0x40>
		while (usart_write(p_usart, c)!=0);
  402b6e:	4604      	mov	r4, r0
  402b70:	4e0e      	ldr	r6, [pc, #56]	; (402bac <usart_serial_putchar+0xc8>)
  402b72:	4629      	mov	r1, r5
  402b74:	4620      	mov	r0, r4
  402b76:	47b0      	blx	r6
  402b78:	2800      	cmp	r0, #0
  402b7a:	d1fa      	bne.n	402b72 <usart_serial_putchar+0x8e>
  402b7c:	e7d2      	b.n	402b24 <usart_serial_putchar+0x40>
		while (usart_write(p_usart, c)!=0);
  402b7e:	4604      	mov	r4, r0
  402b80:	4e0a      	ldr	r6, [pc, #40]	; (402bac <usart_serial_putchar+0xc8>)
  402b82:	4629      	mov	r1, r5
  402b84:	4620      	mov	r0, r4
  402b86:	47b0      	blx	r6
  402b88:	2800      	cmp	r0, #0
  402b8a:	d1fa      	bne.n	402b82 <usart_serial_putchar+0x9e>
  402b8c:	e7ca      	b.n	402b24 <usart_serial_putchar+0x40>
  402b8e:	bf00      	nop
  402b90:	400e0800 	.word	0x400e0800
  402b94:	400e0a00 	.word	0x400e0a00
  402b98:	400e1a00 	.word	0x400e1a00
  402b9c:	400e1c00 	.word	0x400e1c00
  402ba0:	40024000 	.word	0x40024000
  402ba4:	40028000 	.word	0x40028000
  402ba8:	4002c000 	.word	0x4002c000
  402bac:	0040097d 	.word	0x0040097d
  402bb0:	00400885 	.word	0x00400885

00402bb4 <vApplicationStackOverflowHook>:
                                          signed char *pcTaskName) {
  402bb4:	b508      	push	{r3, lr}
  printf("stack overflow %x %s\r\n", pxTask, (portCHAR *)pcTaskName);
  402bb6:	460a      	mov	r2, r1
  402bb8:	4b02      	ldr	r3, [pc, #8]	; (402bc4 <vApplicationStackOverflowHook+0x10>)
  402bba:	4601      	mov	r1, r0
  402bbc:	4802      	ldr	r0, [pc, #8]	; (402bc8 <vApplicationStackOverflowHook+0x14>)
  402bbe:	4798      	blx	r3
  402bc0:	e7fe      	b.n	402bc0 <vApplicationStackOverflowHook+0xc>
  402bc2:	bf00      	nop
  402bc4:	00402e7d 	.word	0x00402e7d
  402bc8:	00405ec8 	.word	0x00405ec8

00402bcc <vApplicationTickHook>:
extern void vApplicationTickHook(void) {}
  402bcc:	4770      	bx	lr
  402bce:	bf00      	nop

00402bd0 <vApplicationMallocFailedHook>:
  402bd0:	f04f 0380 	mov.w	r3, #128	; 0x80
  402bd4:	b672      	cpsid	i
  402bd6:	f383 8811 	msr	BASEPRI, r3
  402bda:	f3bf 8f6f 	isb	sy
  402bde:	f3bf 8f4f 	dsb	sy
  402be2:	b662      	cpsie	i
  402be4:	e7fe      	b.n	402be4 <vApplicationMallocFailedHook+0x14>
  402be6:	bf00      	nop

00402be8 <LED_init>:
void LED_init(int estado){
  402be8:	b570      	push	{r4, r5, r6, lr}
  402bea:	4605      	mov	r5, r0
  402bec:	b082      	sub	sp, #8
  pmc_enable_periph_clk(TRIGGER_PIO_ID);
  402bee:	4c0b      	ldr	r4, [pc, #44]	; (402c1c <LED_init+0x34>)
  402bf0:	200a      	movs	r0, #10
  402bf2:	47a0      	blx	r4
	pio_configure(TRIGGER_PIO, PIO_OUTPUT_0, TRIGGER_IDX_MASK, PIO_DEFAULT);
  402bf4:	4e0a      	ldr	r6, [pc, #40]	; (402c20 <LED_init+0x38>)
  402bf6:	2300      	movs	r3, #0
  402bf8:	2240      	movs	r2, #64	; 0x40
  402bfa:	f04f 5140 	mov.w	r1, #805306368	; 0x30000000
  402bfe:	4809      	ldr	r0, [pc, #36]	; (402c24 <LED_init+0x3c>)
  402c00:	47b0      	blx	r6
	pmc_enable_periph_clk(LED_PIO_ID);
  402c02:	200c      	movs	r0, #12
  402c04:	47a0      	blx	r4
	pio_set_output(LED_PIO, LED_IDX_MASK, estado, 0, 0);
  402c06:	2300      	movs	r3, #0
  402c08:	462a      	mov	r2, r5
  402c0a:	f44f 7180 	mov.w	r1, #256	; 0x100
  402c0e:	4806      	ldr	r0, [pc, #24]	; (402c28 <LED_init+0x40>)
  402c10:	4c06      	ldr	r4, [pc, #24]	; (402c2c <LED_init+0x44>)
  402c12:	9300      	str	r3, [sp, #0]
  402c14:	47a0      	blx	r4
};
  402c16:	b002      	add	sp, #8
  402c18:	bd70      	pop	{r4, r5, r6, pc}
  402c1a:	bf00      	nop
  402c1c:	0040083d 	.word	0x0040083d
  402c20:	00400515 	.word	0x00400515
  402c24:	400e0e00 	.word	0x400e0e00
  402c28:	400e1200 	.word	0x400e1200
  402c2c:	004004e1 	.word	0x004004e1

00402c30 <task_led>:
static void task_led(void *pvParameters) {
  402c30:	e92d 4ff8 	stmdb	sp!, {r3, r4, r5, r6, r7, r8, r9, sl, fp, lr}
  LED_init(1);
  402c34:	2001      	movs	r0, #1
  402c36:	4b19      	ldr	r3, [pc, #100]	; (402c9c <task_led+0x6c>)
  402c38:	4798      	blx	r3
  pio_set(TRIGGER_PIO, TRIGGER_IDX_MASK);
  402c3a:	2140      	movs	r1, #64	; 0x40
  402c3c:	4818      	ldr	r0, [pc, #96]	; (402ca0 <task_led+0x70>)
      flag_echo = 0;
  402c3e:	f04f 0800 	mov.w	r8, #0
  pio_set(TRIGGER_PIO, TRIGGER_IDX_MASK);
  402c42:	4b18      	ldr	r3, [pc, #96]	; (402ca4 <task_led+0x74>)
  402c44:	4798      	blx	r3
	delay_us(10);
  402c46:	f44f 70fd 	mov.w	r0, #506	; 0x1fa
  402c4a:	4b17      	ldr	r3, [pc, #92]	; (402ca8 <task_led+0x78>)
  402c4c:	4798      	blx	r3
	pio_clear(TRIGGER_PIO, TRIGGER_IDX_MASK);
  402c4e:	2140      	movs	r1, #64	; 0x40
  402c50:	4813      	ldr	r0, [pc, #76]	; (402ca0 <task_led+0x70>)
  402c52:	4b16      	ldr	r3, [pc, #88]	; (402cac <task_led+0x7c>)
  402c54:	4c16      	ldr	r4, [pc, #88]	; (402cb0 <task_led+0x80>)
  402c56:	4798      	blx	r3
  402c58:	4f16      	ldr	r7, [pc, #88]	; (402cb4 <task_led+0x84>)
  402c5a:	f8df 9060 	ldr.w	r9, [pc, #96]	; 402cbc <task_led+0x8c>
  402c5e:	4e16      	ldr	r6, [pc, #88]	; (402cb8 <task_led+0x88>)
      printf("Echo subida\n");
  402c60:	f8df b05c 	ldr.w	fp, [pc, #92]	; 402cc0 <task_led+0x90>
      printf("Echo descida\n");
  402c64:	f8df a05c 	ldr.w	sl, [pc, #92]	; 402cc4 <task_led+0x94>
  402c68:	e004      	b.n	402c74 <task_led+0x44>
    if (flag_echo == 2) {
  402c6a:	6823      	ldr	r3, [r4, #0]
  402c6c:	2b02      	cmp	r3, #2
  402c6e:	d00d      	beq.n	402c8c <task_led+0x5c>
    vTaskDelay(delayMs);
  402c70:	2001      	movs	r0, #1
  402c72:	47b0      	blx	r6
    if (flag_echo == 1 && flag_sinal == 0) {
  402c74:	6825      	ldr	r5, [r4, #0]
  402c76:	2d01      	cmp	r5, #1
  402c78:	d1f7      	bne.n	402c6a <task_led+0x3a>
  402c7a:	683b      	ldr	r3, [r7, #0]
  402c7c:	2b00      	cmp	r3, #0
  402c7e:	d1f4      	bne.n	402c6a <task_led+0x3a>
      printf("Echo subida\n");
  402c80:	4658      	mov	r0, fp
  402c82:	47c8      	blx	r9
      flag_sinal = 1;
  402c84:	603d      	str	r5, [r7, #0]
    if (flag_echo == 2) {
  402c86:	6823      	ldr	r3, [r4, #0]
  402c88:	2b02      	cmp	r3, #2
  402c8a:	d1f1      	bne.n	402c70 <task_led+0x40>
      printf("Echo descida\n");
  402c8c:	4650      	mov	r0, sl
  402c8e:	47c8      	blx	r9
      flag_echo = 0;
  402c90:	f8c4 8000 	str.w	r8, [r4]
      flag_sinal = 0;
  402c94:	f8c7 8000 	str.w	r8, [r7]
  402c98:	e7ea      	b.n	402c70 <task_led+0x40>
  402c9a:	bf00      	nop
  402c9c:	00402be9 	.word	0x00402be9
  402ca0:	400e0e00 	.word	0x400e0e00
  402ca4:	00400441 	.word	0x00400441
  402ca8:	20400001 	.word	0x20400001
  402cac:	00400445 	.word	0x00400445
  402cb0:	20400b98 	.word	0x20400b98
  402cb4:	20400b9c 	.word	0x20400b9c
  402cb8:	00401e71 	.word	0x00401e71
  402cbc:	00402e7d 	.word	0x00402e7d
  402cc0:	00405ea8 	.word	0x00405ea8
  402cc4:	00405eb8 	.word	0x00405eb8

00402cc8 <main>:
/**
 *  \brief FreeRTOS Real Time Kernel example entry point.
 *
 *  \return Unused (ANSI-C compatibility).
 */
int main(void) {
  402cc8:	b580      	push	{r7, lr}
  /* Initialize the SAM system */
  sysclk_init();
  402cca:	4b39      	ldr	r3, [pc, #228]	; (402db0 <main+0xe8>)
int main(void) {
  402ccc:	b08a      	sub	sp, #40	; 0x28
  sysclk_init();
  402cce:	4798      	blx	r3
 *
 */
static inline void stdio_serial_init(volatile void *usart, const usart_serial_options_t *opt)
{
	stdio_base = (void *)usart;
	ptr_put = (int (*)(void volatile*,char))&usart_serial_putchar;
  402cd0:	4e38      	ldr	r6, [pc, #224]	; (402db4 <main+0xec>)
  board_init();
  402cd2:	4b39      	ldr	r3, [pc, #228]	; (402db8 <main+0xf0>)
	usart_settings.stop_bits= opt->stopbits;
  402cd4:	2500      	movs	r5, #0
  402cd6:	4f39      	ldr	r7, [pc, #228]	; (402dbc <main+0xf4>)
  402cd8:	4798      	blx	r3
	stdio_base = (void *)usart;
  402cda:	4c39      	ldr	r4, [pc, #228]	; (402dc0 <main+0xf8>)
	usart_settings.baudrate = opt->baudrate;
  402cdc:	f44f 33e1 	mov.w	r3, #115200	; 0x1c200
  402ce0:	4838      	ldr	r0, [pc, #224]	; (402dc4 <main+0xfc>)
	usart_settings.char_length = opt->charlength;
  402ce2:	21c0      	movs	r1, #192	; 0xc0
	ptr_put = (int (*)(void volatile*,char))&usart_serial_putchar;
  402ce4:	6037      	str	r7, [r6, #0]
	usart_settings.parity_type = opt->paritytype;
  402ce6:	f44f 6200 	mov.w	r2, #2048	; 0x800
	ptr_get = (void (*)(void volatile*,char*))&usart_serial_getchar;
  402cea:	4e37      	ldr	r6, [pc, #220]	; (402dc8 <main+0x100>)
  402cec:	4f37      	ldr	r7, [pc, #220]	; (402dcc <main+0x104>)
	stdio_base = (void *)usart;
  402cee:	6004      	str	r4, [r0, #0]
  402cf0:	200e      	movs	r0, #14
	usart_settings.baudrate = opt->baudrate;
  402cf2:	9304      	str	r3, [sp, #16]
  402cf4:	4b36      	ldr	r3, [pc, #216]	; (402dd0 <main+0x108>)
	ptr_get = (void (*)(void volatile*,char*))&usart_serial_getchar;
  402cf6:	6037      	str	r7, [r6, #0]
	usart_settings.char_length = opt->charlength;
  402cf8:	9105      	str	r1, [sp, #20]
	usart_settings.parity_type = opt->paritytype;
  402cfa:	9206      	str	r2, [sp, #24]
	usart_settings.stop_bits= opt->stopbits;
  402cfc:	9507      	str	r5, [sp, #28]
	usart_settings.channel_mode= US_MR_CHMODE_NORMAL;
  402cfe:	9508      	str	r5, [sp, #32]
  402d00:	4798      	blx	r3
		usart_init_rs232(p_usart, &usart_settings,
  402d02:	4a34      	ldr	r2, [pc, #208]	; (402dd4 <main+0x10c>)
  402d04:	a904      	add	r1, sp, #16
  402d06:	4620      	mov	r0, r4
  402d08:	4b33      	ldr	r3, [pc, #204]	; (402dd8 <main+0x110>)
  402d0a:	4798      	blx	r3
	fdevopen((int (*)(char, FILE*))(_write),(int (*)(FILE*))(_read));
#  endif
#  if UC3 || SAM
	// For AVR32 and SAM GCC
	// Specify that stdout and stdin should not be buffered.
	setbuf(stdout, NULL);
  402d0c:	4f33      	ldr	r7, [pc, #204]	; (402ddc <main+0x114>)
		usart_enable_tx(p_usart);
  402d0e:	4620      	mov	r0, r4
  402d10:	4b33      	ldr	r3, [pc, #204]	; (402de0 <main+0x118>)
  402d12:	4798      	blx	r3
		usart_enable_rx(p_usart);
  402d14:	4620      	mov	r0, r4
  402d16:	4b33      	ldr	r3, [pc, #204]	; (402de4 <main+0x11c>)
  402d18:	4798      	blx	r3
  402d1a:	683b      	ldr	r3, [r7, #0]
  402d1c:	4e32      	ldr	r6, [pc, #200]	; (402de8 <main+0x120>)
  402d1e:	4629      	mov	r1, r5
  402d20:	6898      	ldr	r0, [r3, #8]
  402d22:	47b0      	blx	r6
	setbuf(stdin, NULL);
  402d24:	683b      	ldr	r3, [r7, #0]
  402d26:	4629      	mov	r1, r5
  configure_console();
	
  printf("Sys init ok \n");
  402d28:	4c30      	ldr	r4, [pc, #192]	; (402dec <main+0x124>)
  402d2a:	6858      	ldr	r0, [r3, #4]
  402d2c:	47b0      	blx	r6
  setbuf(stdout, NULL);
  402d2e:	683b      	ldr	r3, [r7, #0]
  402d30:	4629      	mov	r1, r5


  /* cria queue com 32 "espacos" */
  /* cada espao possui o tamanho de um inteiro*/
  xQueueLedFreq = xQueueCreate(32, sizeof(uint32_t));
  402d32:	4f2f      	ldr	r7, [pc, #188]	; (402df0 <main+0x128>)
  setbuf(stdout, NULL);
  402d34:	6898      	ldr	r0, [r3, #8]
  402d36:	47b0      	blx	r6
  printf("Sys init ok \n");
  402d38:	482e      	ldr	r0, [pc, #184]	; (402df4 <main+0x12c>)
  402d3a:	47a0      	blx	r4
  xQueueLedFreq = xQueueCreate(32, sizeof(uint32_t));
  402d3c:	462a      	mov	r2, r5
  402d3e:	2104      	movs	r1, #4
  402d40:	2020      	movs	r0, #32
  402d42:	47b8      	blx	r7
  402d44:	4b2c      	ldr	r3, [pc, #176]	; (402df8 <main+0x130>)
  402d46:	6018      	str	r0, [r3, #0]
  if (xQueueLedFreq == NULL)
  402d48:	2800      	cmp	r0, #0
  402d4a:	d02d      	beq.n	402da8 <main+0xe0>
    printf("falha em criar a queue \n");

  xQueueButFreq = xQueueCreate(32, sizeof(uint32_t));
  402d4c:	2200      	movs	r2, #0
  402d4e:	2104      	movs	r1, #4
  402d50:	2020      	movs	r0, #32
  402d52:	47b8      	blx	r7
  402d54:	4b29      	ldr	r3, [pc, #164]	; (402dfc <main+0x134>)
  402d56:	6018      	str	r0, [r3, #0]
  if (xQueueButFreq == NULL)
  402d58:	b318      	cbz	r0, 402da2 <main+0xda>
    printf("falha em criar a queue \n");

  /* Create task to make led blink */
  if (xTaskCreate(task_led, "Led", TASK_LED_STACK_SIZE, NULL,
  402d5a:	2000      	movs	r0, #0
  402d5c:	f44f 6280 	mov.w	r2, #1024	; 0x400
  402d60:	4927      	ldr	r1, [pc, #156]	; (402e00 <main+0x138>)
  402d62:	4603      	mov	r3, r0
  402d64:	9003      	str	r0, [sp, #12]
  402d66:	9002      	str	r0, [sp, #8]
  402d68:	9001      	str	r0, [sp, #4]
  402d6a:	9000      	str	r0, [sp, #0]
  402d6c:	4d25      	ldr	r5, [pc, #148]	; (402e04 <main+0x13c>)
  402d6e:	4826      	ldr	r0, [pc, #152]	; (402e08 <main+0x140>)
  402d70:	47a8      	blx	r5
  402d72:	2801      	cmp	r0, #1
                  TASK_LED_STACK_PRIORITY, NULL) != pdPASS) {
    printf("Failed to create test led task\r\n");
  402d74:	bf14      	ite	ne
  402d76:	4825      	ldrne	r0, [pc, #148]	; (402e0c <main+0x144>)
  } else {
     printf("task led created \r\n");
  402d78:	4825      	ldreq	r0, [pc, #148]	; (402e10 <main+0x148>)
  402d7a:	47a0      	blx	r4
	  
  }
  /* Create task to monitor processor activity */
  if (xTaskCreate(task_but, "BUT", TASK_BUT_STACK_SIZE, NULL,
  402d7c:	2000      	movs	r0, #0
  402d7e:	f44f 6280 	mov.w	r2, #1024	; 0x400
  402d82:	4924      	ldr	r1, [pc, #144]	; (402e14 <main+0x14c>)
  402d84:	4603      	mov	r3, r0
  402d86:	9003      	str	r0, [sp, #12]
  402d88:	9002      	str	r0, [sp, #8]
  402d8a:	9001      	str	r0, [sp, #4]
  402d8c:	9000      	str	r0, [sp, #0]
  402d8e:	4822      	ldr	r0, [pc, #136]	; (402e18 <main+0x150>)
  402d90:	47a8      	blx	r5
  402d92:	2801      	cmp	r0, #1
                  TASK_BUT_STACK_PRIORITY, NULL) != pdPASS) {
    printf("Failed to create UartTx task\r\n");
  402d94:	bf14      	ite	ne
  402d96:	4821      	ldrne	r0, [pc, #132]	; (402e1c <main+0x154>)
  } else {
     printf("task led but \r\n");  
  402d98:	4821      	ldreq	r0, [pc, #132]	; (402e20 <main+0x158>)
  402d9a:	47a0      	blx	r4
  }

  /* Start the scheduler. */
  vTaskStartScheduler();
  402d9c:	4b21      	ldr	r3, [pc, #132]	; (402e24 <main+0x15c>)
  402d9e:	4798      	blx	r3
  402da0:	e7fe      	b.n	402da0 <main+0xd8>
    printf("falha em criar a queue \n");
  402da2:	4821      	ldr	r0, [pc, #132]	; (402e28 <main+0x160>)
  402da4:	47a0      	blx	r4
  402da6:	e7d8      	b.n	402d5a <main+0x92>
    printf("falha em criar a queue \n");
  402da8:	481f      	ldr	r0, [pc, #124]	; (402e28 <main+0x160>)
  402daa:	47a0      	blx	r4
  402dac:	e7ce      	b.n	402d4c <main+0x84>
  402dae:	bf00      	nop
  402db0:	004001ad 	.word	0x004001ad
  402db4:	20400bd8 	.word	0x20400bd8
  402db8:	004002ad 	.word	0x004002ad
  402dbc:	00402ae5 	.word	0x00402ae5
  402dc0:	40028000 	.word	0x40028000
  402dc4:	20400bdc 	.word	0x20400bdc
  402dc8:	20400bd4 	.word	0x20400bd4
  402dcc:	00402a09 	.word	0x00402a09
  402dd0:	0040083d 	.word	0x0040083d
  402dd4:	08f0d180 	.word	0x08f0d180
  402dd8:	00400909 	.word	0x00400909
  402ddc:	20400014 	.word	0x20400014
  402de0:	0040096d 	.word	0x0040096d
  402de4:	00400975 	.word	0x00400975
  402de8:	00403631 	.word	0x00403631
  402dec:	00402e7d 	.word	0x00402e7d
  402df0:	004012c1 	.word	0x004012c1
  402df4:	00405dfc 	.word	0x00405dfc
  402df8:	20400c24 	.word	0x20400c24
  402dfc:	20400c20 	.word	0x20400c20
  402e00:	00405e28 	.word	0x00405e28
  402e04:	00401ae5 	.word	0x00401ae5
  402e08:	00402c31 	.word	0x00402c31
  402e0c:	00405e2c 	.word	0x00405e2c
  402e10:	00405e50 	.word	0x00405e50
  402e14:	00405e64 	.word	0x00405e64
  402e18:	004028ed 	.word	0x004028ed
  402e1c:	00405e68 	.word	0x00405e68
  402e20:	00405e88 	.word	0x00405e88
  402e24:	00401b31 	.word	0x00401b31
  402e28:	00405e0c 	.word	0x00405e0c

00402e2c <__libc_init_array>:
  402e2c:	b570      	push	{r4, r5, r6, lr}
  402e2e:	4e0f      	ldr	r6, [pc, #60]	; (402e6c <__libc_init_array+0x40>)
  402e30:	4d0f      	ldr	r5, [pc, #60]	; (402e70 <__libc_init_array+0x44>)
  402e32:	1b76      	subs	r6, r6, r5
  402e34:	10b6      	asrs	r6, r6, #2
  402e36:	bf18      	it	ne
  402e38:	2400      	movne	r4, #0
  402e3a:	d005      	beq.n	402e48 <__libc_init_array+0x1c>
  402e3c:	3401      	adds	r4, #1
  402e3e:	f855 3b04 	ldr.w	r3, [r5], #4
  402e42:	4798      	blx	r3
  402e44:	42a6      	cmp	r6, r4
  402e46:	d1f9      	bne.n	402e3c <__libc_init_array+0x10>
  402e48:	4e0a      	ldr	r6, [pc, #40]	; (402e74 <__libc_init_array+0x48>)
  402e4a:	4d0b      	ldr	r5, [pc, #44]	; (402e78 <__libc_init_array+0x4c>)
  402e4c:	1b76      	subs	r6, r6, r5
  402e4e:	f003 f8fb 	bl	406048 <_init>
  402e52:	10b6      	asrs	r6, r6, #2
  402e54:	bf18      	it	ne
  402e56:	2400      	movne	r4, #0
  402e58:	d006      	beq.n	402e68 <__libc_init_array+0x3c>
  402e5a:	3401      	adds	r4, #1
  402e5c:	f855 3b04 	ldr.w	r3, [r5], #4
  402e60:	4798      	blx	r3
  402e62:	42a6      	cmp	r6, r4
  402e64:	d1f9      	bne.n	402e5a <__libc_init_array+0x2e>
  402e66:	bd70      	pop	{r4, r5, r6, pc}
  402e68:	bd70      	pop	{r4, r5, r6, pc}
  402e6a:	bf00      	nop
  402e6c:	00406054 	.word	0x00406054
  402e70:	00406054 	.word	0x00406054
  402e74:	0040605c 	.word	0x0040605c
  402e78:	00406054 	.word	0x00406054

00402e7c <iprintf>:
  402e7c:	b40f      	push	{r0, r1, r2, r3}
  402e7e:	b500      	push	{lr}
  402e80:	4907      	ldr	r1, [pc, #28]	; (402ea0 <iprintf+0x24>)
  402e82:	b083      	sub	sp, #12
  402e84:	ab04      	add	r3, sp, #16
  402e86:	6808      	ldr	r0, [r1, #0]
  402e88:	f853 2b04 	ldr.w	r2, [r3], #4
  402e8c:	6881      	ldr	r1, [r0, #8]
  402e8e:	9301      	str	r3, [sp, #4]
  402e90:	f000 fd64 	bl	40395c <_vfiprintf_r>
  402e94:	b003      	add	sp, #12
  402e96:	f85d eb04 	ldr.w	lr, [sp], #4
  402e9a:	b004      	add	sp, #16
  402e9c:	4770      	bx	lr
  402e9e:	bf00      	nop
  402ea0:	20400014 	.word	0x20400014

00402ea4 <malloc>:
  402ea4:	4b02      	ldr	r3, [pc, #8]	; (402eb0 <malloc+0xc>)
  402ea6:	4601      	mov	r1, r0
  402ea8:	6818      	ldr	r0, [r3, #0]
  402eaa:	f000 b80b 	b.w	402ec4 <_malloc_r>
  402eae:	bf00      	nop
  402eb0:	20400014 	.word	0x20400014

00402eb4 <free>:
  402eb4:	4b02      	ldr	r3, [pc, #8]	; (402ec0 <free+0xc>)
  402eb6:	4601      	mov	r1, r0
  402eb8:	6818      	ldr	r0, [r3, #0]
  402eba:	f001 be6b 	b.w	404b94 <_free_r>
  402ebe:	bf00      	nop
  402ec0:	20400014 	.word	0x20400014

00402ec4 <_malloc_r>:
  402ec4:	e92d 4ff0 	stmdb	sp!, {r4, r5, r6, r7, r8, r9, sl, fp, lr}
  402ec8:	f101 060b 	add.w	r6, r1, #11
  402ecc:	2e16      	cmp	r6, #22
  402ece:	b083      	sub	sp, #12
  402ed0:	4605      	mov	r5, r0
  402ed2:	f240 809e 	bls.w	403012 <_malloc_r+0x14e>
  402ed6:	f036 0607 	bics.w	r6, r6, #7
  402eda:	f100 80bd 	bmi.w	403058 <_malloc_r+0x194>
  402ede:	42b1      	cmp	r1, r6
  402ee0:	f200 80ba 	bhi.w	403058 <_malloc_r+0x194>
  402ee4:	f000 fb86 	bl	4035f4 <__malloc_lock>
  402ee8:	f5b6 7ffc 	cmp.w	r6, #504	; 0x1f8
  402eec:	f0c0 8293 	bcc.w	403416 <_malloc_r+0x552>
  402ef0:	0a73      	lsrs	r3, r6, #9
  402ef2:	f000 80b8 	beq.w	403066 <_malloc_r+0x1a2>
  402ef6:	2b04      	cmp	r3, #4
  402ef8:	f200 8179 	bhi.w	4031ee <_malloc_r+0x32a>
  402efc:	09b3      	lsrs	r3, r6, #6
  402efe:	f103 0039 	add.w	r0, r3, #57	; 0x39
  402f02:	f103 0e38 	add.w	lr, r3, #56	; 0x38
  402f06:	00c3      	lsls	r3, r0, #3
  402f08:	4fbf      	ldr	r7, [pc, #764]	; (403208 <_malloc_r+0x344>)
  402f0a:	443b      	add	r3, r7
  402f0c:	f1a3 0108 	sub.w	r1, r3, #8
  402f10:	685c      	ldr	r4, [r3, #4]
  402f12:	42a1      	cmp	r1, r4
  402f14:	d106      	bne.n	402f24 <_malloc_r+0x60>
  402f16:	e00c      	b.n	402f32 <_malloc_r+0x6e>
  402f18:	2a00      	cmp	r2, #0
  402f1a:	f280 80aa 	bge.w	403072 <_malloc_r+0x1ae>
  402f1e:	68e4      	ldr	r4, [r4, #12]
  402f20:	42a1      	cmp	r1, r4
  402f22:	d006      	beq.n	402f32 <_malloc_r+0x6e>
  402f24:	6863      	ldr	r3, [r4, #4]
  402f26:	f023 0303 	bic.w	r3, r3, #3
  402f2a:	1b9a      	subs	r2, r3, r6
  402f2c:	2a0f      	cmp	r2, #15
  402f2e:	ddf3      	ble.n	402f18 <_malloc_r+0x54>
  402f30:	4670      	mov	r0, lr
  402f32:	693c      	ldr	r4, [r7, #16]
  402f34:	f8df e2e4 	ldr.w	lr, [pc, #740]	; 40321c <_malloc_r+0x358>
  402f38:	4574      	cmp	r4, lr
  402f3a:	f000 81ab 	beq.w	403294 <_malloc_r+0x3d0>
  402f3e:	6863      	ldr	r3, [r4, #4]
  402f40:	f023 0303 	bic.w	r3, r3, #3
  402f44:	1b9a      	subs	r2, r3, r6
  402f46:	2a0f      	cmp	r2, #15
  402f48:	f300 8190 	bgt.w	40326c <_malloc_r+0x3a8>
  402f4c:	2a00      	cmp	r2, #0
  402f4e:	f8c7 e014 	str.w	lr, [r7, #20]
  402f52:	f8c7 e010 	str.w	lr, [r7, #16]
  402f56:	f280 809d 	bge.w	403094 <_malloc_r+0x1d0>
  402f5a:	f5b3 7f00 	cmp.w	r3, #512	; 0x200
  402f5e:	f080 8161 	bcs.w	403224 <_malloc_r+0x360>
  402f62:	08db      	lsrs	r3, r3, #3
  402f64:	f103 0c01 	add.w	ip, r3, #1
  402f68:	1099      	asrs	r1, r3, #2
  402f6a:	687a      	ldr	r2, [r7, #4]
  402f6c:	f857 803c 	ldr.w	r8, [r7, ip, lsl #3]
  402f70:	f8c4 8008 	str.w	r8, [r4, #8]
  402f74:	2301      	movs	r3, #1
  402f76:	408b      	lsls	r3, r1
  402f78:	eb07 01cc 	add.w	r1, r7, ip, lsl #3
  402f7c:	4313      	orrs	r3, r2
  402f7e:	3908      	subs	r1, #8
  402f80:	60e1      	str	r1, [r4, #12]
  402f82:	607b      	str	r3, [r7, #4]
  402f84:	f847 403c 	str.w	r4, [r7, ip, lsl #3]
  402f88:	f8c8 400c 	str.w	r4, [r8, #12]
  402f8c:	1082      	asrs	r2, r0, #2
  402f8e:	2401      	movs	r4, #1
  402f90:	4094      	lsls	r4, r2
  402f92:	429c      	cmp	r4, r3
  402f94:	f200 808b 	bhi.w	4030ae <_malloc_r+0x1ea>
  402f98:	421c      	tst	r4, r3
  402f9a:	d106      	bne.n	402faa <_malloc_r+0xe6>
  402f9c:	f020 0003 	bic.w	r0, r0, #3
  402fa0:	0064      	lsls	r4, r4, #1
  402fa2:	421c      	tst	r4, r3
  402fa4:	f100 0004 	add.w	r0, r0, #4
  402fa8:	d0fa      	beq.n	402fa0 <_malloc_r+0xdc>
  402faa:	eb07 09c0 	add.w	r9, r7, r0, lsl #3
  402fae:	46cc      	mov	ip, r9
  402fb0:	4680      	mov	r8, r0
  402fb2:	f8dc 300c 	ldr.w	r3, [ip, #12]
  402fb6:	459c      	cmp	ip, r3
  402fb8:	d107      	bne.n	402fca <_malloc_r+0x106>
  402fba:	e16d      	b.n	403298 <_malloc_r+0x3d4>
  402fbc:	2a00      	cmp	r2, #0
  402fbe:	f280 817b 	bge.w	4032b8 <_malloc_r+0x3f4>
  402fc2:	68db      	ldr	r3, [r3, #12]
  402fc4:	459c      	cmp	ip, r3
  402fc6:	f000 8167 	beq.w	403298 <_malloc_r+0x3d4>
  402fca:	6859      	ldr	r1, [r3, #4]
  402fcc:	f021 0103 	bic.w	r1, r1, #3
  402fd0:	1b8a      	subs	r2, r1, r6
  402fd2:	2a0f      	cmp	r2, #15
  402fd4:	ddf2      	ble.n	402fbc <_malloc_r+0xf8>
  402fd6:	f8d3 c00c 	ldr.w	ip, [r3, #12]
  402fda:	f8d3 8008 	ldr.w	r8, [r3, #8]
  402fde:	9300      	str	r3, [sp, #0]
  402fe0:	199c      	adds	r4, r3, r6
  402fe2:	4628      	mov	r0, r5
  402fe4:	f046 0601 	orr.w	r6, r6, #1
  402fe8:	f042 0501 	orr.w	r5, r2, #1
  402fec:	605e      	str	r6, [r3, #4]
  402fee:	f8c8 c00c 	str.w	ip, [r8, #12]
  402ff2:	f8cc 8008 	str.w	r8, [ip, #8]
  402ff6:	617c      	str	r4, [r7, #20]
  402ff8:	613c      	str	r4, [r7, #16]
  402ffa:	f8c4 e00c 	str.w	lr, [r4, #12]
  402ffe:	f8c4 e008 	str.w	lr, [r4, #8]
  403002:	6065      	str	r5, [r4, #4]
  403004:	505a      	str	r2, [r3, r1]
  403006:	f000 fafb 	bl	403600 <__malloc_unlock>
  40300a:	9b00      	ldr	r3, [sp, #0]
  40300c:	f103 0408 	add.w	r4, r3, #8
  403010:	e01e      	b.n	403050 <_malloc_r+0x18c>
  403012:	2910      	cmp	r1, #16
  403014:	d820      	bhi.n	403058 <_malloc_r+0x194>
  403016:	f000 faed 	bl	4035f4 <__malloc_lock>
  40301a:	2610      	movs	r6, #16
  40301c:	2318      	movs	r3, #24
  40301e:	2002      	movs	r0, #2
  403020:	4f79      	ldr	r7, [pc, #484]	; (403208 <_malloc_r+0x344>)
  403022:	443b      	add	r3, r7
  403024:	f1a3 0208 	sub.w	r2, r3, #8
  403028:	685c      	ldr	r4, [r3, #4]
  40302a:	4294      	cmp	r4, r2
  40302c:	f000 813d 	beq.w	4032aa <_malloc_r+0x3e6>
  403030:	6863      	ldr	r3, [r4, #4]
  403032:	68e1      	ldr	r1, [r4, #12]
  403034:	68a6      	ldr	r6, [r4, #8]
  403036:	f023 0303 	bic.w	r3, r3, #3
  40303a:	4423      	add	r3, r4
  40303c:	4628      	mov	r0, r5
  40303e:	685a      	ldr	r2, [r3, #4]
  403040:	60f1      	str	r1, [r6, #12]
  403042:	f042 0201 	orr.w	r2, r2, #1
  403046:	608e      	str	r6, [r1, #8]
  403048:	605a      	str	r2, [r3, #4]
  40304a:	f000 fad9 	bl	403600 <__malloc_unlock>
  40304e:	3408      	adds	r4, #8
  403050:	4620      	mov	r0, r4
  403052:	b003      	add	sp, #12
  403054:	e8bd 8ff0 	ldmia.w	sp!, {r4, r5, r6, r7, r8, r9, sl, fp, pc}
  403058:	2400      	movs	r4, #0
  40305a:	230c      	movs	r3, #12
  40305c:	4620      	mov	r0, r4
  40305e:	602b      	str	r3, [r5, #0]
  403060:	b003      	add	sp, #12
  403062:	e8bd 8ff0 	ldmia.w	sp!, {r4, r5, r6, r7, r8, r9, sl, fp, pc}
  403066:	2040      	movs	r0, #64	; 0x40
  403068:	f44f 7300 	mov.w	r3, #512	; 0x200
  40306c:	f04f 0e3f 	mov.w	lr, #63	; 0x3f
  403070:	e74a      	b.n	402f08 <_malloc_r+0x44>
  403072:	4423      	add	r3, r4
  403074:	68e1      	ldr	r1, [r4, #12]
  403076:	685a      	ldr	r2, [r3, #4]
  403078:	68a6      	ldr	r6, [r4, #8]
  40307a:	f042 0201 	orr.w	r2, r2, #1
  40307e:	60f1      	str	r1, [r6, #12]
  403080:	4628      	mov	r0, r5
  403082:	608e      	str	r6, [r1, #8]
  403084:	605a      	str	r2, [r3, #4]
  403086:	f000 fabb 	bl	403600 <__malloc_unlock>
  40308a:	3408      	adds	r4, #8
  40308c:	4620      	mov	r0, r4
  40308e:	b003      	add	sp, #12
  403090:	e8bd 8ff0 	ldmia.w	sp!, {r4, r5, r6, r7, r8, r9, sl, fp, pc}
  403094:	4423      	add	r3, r4
  403096:	4628      	mov	r0, r5
  403098:	685a      	ldr	r2, [r3, #4]
  40309a:	f042 0201 	orr.w	r2, r2, #1
  40309e:	605a      	str	r2, [r3, #4]
  4030a0:	f000 faae 	bl	403600 <__malloc_unlock>
  4030a4:	3408      	adds	r4, #8
  4030a6:	4620      	mov	r0, r4
  4030a8:	b003      	add	sp, #12
  4030aa:	e8bd 8ff0 	ldmia.w	sp!, {r4, r5, r6, r7, r8, r9, sl, fp, pc}
  4030ae:	68bc      	ldr	r4, [r7, #8]
  4030b0:	6863      	ldr	r3, [r4, #4]
  4030b2:	f023 0803 	bic.w	r8, r3, #3
  4030b6:	45b0      	cmp	r8, r6
  4030b8:	d304      	bcc.n	4030c4 <_malloc_r+0x200>
  4030ba:	eba8 0306 	sub.w	r3, r8, r6
  4030be:	2b0f      	cmp	r3, #15
  4030c0:	f300 8085 	bgt.w	4031ce <_malloc_r+0x30a>
  4030c4:	f8df 9158 	ldr.w	r9, [pc, #344]	; 403220 <_malloc_r+0x35c>
  4030c8:	4b50      	ldr	r3, [pc, #320]	; (40320c <_malloc_r+0x348>)
  4030ca:	f8d9 2000 	ldr.w	r2, [r9]
  4030ce:	681b      	ldr	r3, [r3, #0]
  4030d0:	3201      	adds	r2, #1
  4030d2:	4433      	add	r3, r6
  4030d4:	eb04 0a08 	add.w	sl, r4, r8
  4030d8:	f000 8155 	beq.w	403386 <_malloc_r+0x4c2>
  4030dc:	f503 5380 	add.w	r3, r3, #4096	; 0x1000
  4030e0:	330f      	adds	r3, #15
  4030e2:	f423 6b7f 	bic.w	fp, r3, #4080	; 0xff0
  4030e6:	f02b 0b0f 	bic.w	fp, fp, #15
  4030ea:	4659      	mov	r1, fp
  4030ec:	4628      	mov	r0, r5
  4030ee:	f000 fa8d 	bl	40360c <_sbrk_r>
  4030f2:	1c41      	adds	r1, r0, #1
  4030f4:	4602      	mov	r2, r0
  4030f6:	f000 80fc 	beq.w	4032f2 <_malloc_r+0x42e>
  4030fa:	4582      	cmp	sl, r0
  4030fc:	f200 80f7 	bhi.w	4032ee <_malloc_r+0x42a>
  403100:	4b43      	ldr	r3, [pc, #268]	; (403210 <_malloc_r+0x34c>)
  403102:	6819      	ldr	r1, [r3, #0]
  403104:	4459      	add	r1, fp
  403106:	6019      	str	r1, [r3, #0]
  403108:	f000 814d 	beq.w	4033a6 <_malloc_r+0x4e2>
  40310c:	f8d9 0000 	ldr.w	r0, [r9]
  403110:	3001      	adds	r0, #1
  403112:	bf1b      	ittet	ne
  403114:	eba2 0a0a 	subne.w	sl, r2, sl
  403118:	4451      	addne	r1, sl
  40311a:	f8c9 2000 	streq.w	r2, [r9]
  40311e:	6019      	strne	r1, [r3, #0]
  403120:	f012 0107 	ands.w	r1, r2, #7
  403124:	f000 8115 	beq.w	403352 <_malloc_r+0x48e>
  403128:	f1c1 0008 	rsb	r0, r1, #8
  40312c:	f5c1 5180 	rsb	r1, r1, #4096	; 0x1000
  403130:	4402      	add	r2, r0
  403132:	3108      	adds	r1, #8
  403134:	eb02 090b 	add.w	r9, r2, fp
  403138:	f3c9 090b 	ubfx	r9, r9, #0, #12
  40313c:	eba1 0909 	sub.w	r9, r1, r9
  403140:	4649      	mov	r1, r9
  403142:	4628      	mov	r0, r5
  403144:	9301      	str	r3, [sp, #4]
  403146:	9200      	str	r2, [sp, #0]
  403148:	f000 fa60 	bl	40360c <_sbrk_r>
  40314c:	1c43      	adds	r3, r0, #1
  40314e:	e89d 000c 	ldmia.w	sp, {r2, r3}
  403152:	f000 8143 	beq.w	4033dc <_malloc_r+0x518>
  403156:	1a80      	subs	r0, r0, r2
  403158:	4448      	add	r0, r9
  40315a:	f040 0001 	orr.w	r0, r0, #1
  40315e:	6819      	ldr	r1, [r3, #0]
  403160:	60ba      	str	r2, [r7, #8]
  403162:	4449      	add	r1, r9
  403164:	42bc      	cmp	r4, r7
  403166:	6050      	str	r0, [r2, #4]
  403168:	6019      	str	r1, [r3, #0]
  40316a:	d017      	beq.n	40319c <_malloc_r+0x2d8>
  40316c:	f1b8 0f0f 	cmp.w	r8, #15
  403170:	f240 80fb 	bls.w	40336a <_malloc_r+0x4a6>
  403174:	6860      	ldr	r0, [r4, #4]
  403176:	f1a8 020c 	sub.w	r2, r8, #12
  40317a:	f022 0207 	bic.w	r2, r2, #7
  40317e:	eb04 0e02 	add.w	lr, r4, r2
  403182:	f000 0001 	and.w	r0, r0, #1
  403186:	f04f 0c05 	mov.w	ip, #5
  40318a:	4310      	orrs	r0, r2
  40318c:	2a0f      	cmp	r2, #15
  40318e:	6060      	str	r0, [r4, #4]
  403190:	f8ce c004 	str.w	ip, [lr, #4]
  403194:	f8ce c008 	str.w	ip, [lr, #8]
  403198:	f200 8117 	bhi.w	4033ca <_malloc_r+0x506>
  40319c:	4b1d      	ldr	r3, [pc, #116]	; (403214 <_malloc_r+0x350>)
  40319e:	68bc      	ldr	r4, [r7, #8]
  4031a0:	681a      	ldr	r2, [r3, #0]
  4031a2:	4291      	cmp	r1, r2
  4031a4:	bf88      	it	hi
  4031a6:	6019      	strhi	r1, [r3, #0]
  4031a8:	4b1b      	ldr	r3, [pc, #108]	; (403218 <_malloc_r+0x354>)
  4031aa:	681a      	ldr	r2, [r3, #0]
  4031ac:	4291      	cmp	r1, r2
  4031ae:	6862      	ldr	r2, [r4, #4]
  4031b0:	bf88      	it	hi
  4031b2:	6019      	strhi	r1, [r3, #0]
  4031b4:	f022 0203 	bic.w	r2, r2, #3
  4031b8:	4296      	cmp	r6, r2
  4031ba:	eba2 0306 	sub.w	r3, r2, r6
  4031be:	d801      	bhi.n	4031c4 <_malloc_r+0x300>
  4031c0:	2b0f      	cmp	r3, #15
  4031c2:	dc04      	bgt.n	4031ce <_malloc_r+0x30a>
  4031c4:	4628      	mov	r0, r5
  4031c6:	f000 fa1b 	bl	403600 <__malloc_unlock>
  4031ca:	2400      	movs	r4, #0
  4031cc:	e740      	b.n	403050 <_malloc_r+0x18c>
  4031ce:	19a2      	adds	r2, r4, r6
  4031d0:	f043 0301 	orr.w	r3, r3, #1
  4031d4:	f046 0601 	orr.w	r6, r6, #1
  4031d8:	6066      	str	r6, [r4, #4]
  4031da:	4628      	mov	r0, r5
  4031dc:	60ba      	str	r2, [r7, #8]
  4031de:	6053      	str	r3, [r2, #4]
  4031e0:	f000 fa0e 	bl	403600 <__malloc_unlock>
  4031e4:	3408      	adds	r4, #8
  4031e6:	4620      	mov	r0, r4
  4031e8:	b003      	add	sp, #12
  4031ea:	e8bd 8ff0 	ldmia.w	sp!, {r4, r5, r6, r7, r8, r9, sl, fp, pc}
  4031ee:	2b14      	cmp	r3, #20
  4031f0:	d971      	bls.n	4032d6 <_malloc_r+0x412>
  4031f2:	2b54      	cmp	r3, #84	; 0x54
  4031f4:	f200 80a3 	bhi.w	40333e <_malloc_r+0x47a>
  4031f8:	0b33      	lsrs	r3, r6, #12
  4031fa:	f103 006f 	add.w	r0, r3, #111	; 0x6f
  4031fe:	f103 0e6e 	add.w	lr, r3, #110	; 0x6e
  403202:	00c3      	lsls	r3, r0, #3
  403204:	e680      	b.n	402f08 <_malloc_r+0x44>
  403206:	bf00      	nop
  403208:	20400440 	.word	0x20400440
  40320c:	20400bd0 	.word	0x20400bd0
  403210:	20400ba0 	.word	0x20400ba0
  403214:	20400bc8 	.word	0x20400bc8
  403218:	20400bcc 	.word	0x20400bcc
  40321c:	20400448 	.word	0x20400448
  403220:	20400848 	.word	0x20400848
  403224:	0a5a      	lsrs	r2, r3, #9
  403226:	2a04      	cmp	r2, #4
  403228:	d95b      	bls.n	4032e2 <_malloc_r+0x41e>
  40322a:	2a14      	cmp	r2, #20
  40322c:	f200 80ae 	bhi.w	40338c <_malloc_r+0x4c8>
  403230:	f102 015c 	add.w	r1, r2, #92	; 0x5c
  403234:	00c9      	lsls	r1, r1, #3
  403236:	325b      	adds	r2, #91	; 0x5b
  403238:	eb07 0c01 	add.w	ip, r7, r1
  40323c:	5879      	ldr	r1, [r7, r1]
  40323e:	f1ac 0c08 	sub.w	ip, ip, #8
  403242:	458c      	cmp	ip, r1
  403244:	f000 8088 	beq.w	403358 <_malloc_r+0x494>
  403248:	684a      	ldr	r2, [r1, #4]
  40324a:	f022 0203 	bic.w	r2, r2, #3
  40324e:	4293      	cmp	r3, r2
  403250:	d273      	bcs.n	40333a <_malloc_r+0x476>
  403252:	6889      	ldr	r1, [r1, #8]
  403254:	458c      	cmp	ip, r1
  403256:	d1f7      	bne.n	403248 <_malloc_r+0x384>
  403258:	f8dc 200c 	ldr.w	r2, [ip, #12]
  40325c:	687b      	ldr	r3, [r7, #4]
  40325e:	60e2      	str	r2, [r4, #12]
  403260:	f8c4 c008 	str.w	ip, [r4, #8]
  403264:	6094      	str	r4, [r2, #8]
  403266:	f8cc 400c 	str.w	r4, [ip, #12]
  40326a:	e68f      	b.n	402f8c <_malloc_r+0xc8>
  40326c:	19a1      	adds	r1, r4, r6
  40326e:	f046 0c01 	orr.w	ip, r6, #1
  403272:	f042 0601 	orr.w	r6, r2, #1
  403276:	f8c4 c004 	str.w	ip, [r4, #4]
  40327a:	4628      	mov	r0, r5
  40327c:	6179      	str	r1, [r7, #20]
  40327e:	6139      	str	r1, [r7, #16]
  403280:	f8c1 e00c 	str.w	lr, [r1, #12]
  403284:	f8c1 e008 	str.w	lr, [r1, #8]
  403288:	604e      	str	r6, [r1, #4]
  40328a:	50e2      	str	r2, [r4, r3]
  40328c:	f000 f9b8 	bl	403600 <__malloc_unlock>
  403290:	3408      	adds	r4, #8
  403292:	e6dd      	b.n	403050 <_malloc_r+0x18c>
  403294:	687b      	ldr	r3, [r7, #4]
  403296:	e679      	b.n	402f8c <_malloc_r+0xc8>
  403298:	f108 0801 	add.w	r8, r8, #1
  40329c:	f018 0f03 	tst.w	r8, #3
  4032a0:	f10c 0c08 	add.w	ip, ip, #8
  4032a4:	f47f ae85 	bne.w	402fb2 <_malloc_r+0xee>
  4032a8:	e02d      	b.n	403306 <_malloc_r+0x442>
  4032aa:	68dc      	ldr	r4, [r3, #12]
  4032ac:	42a3      	cmp	r3, r4
  4032ae:	bf08      	it	eq
  4032b0:	3002      	addeq	r0, #2
  4032b2:	f43f ae3e 	beq.w	402f32 <_malloc_r+0x6e>
  4032b6:	e6bb      	b.n	403030 <_malloc_r+0x16c>
  4032b8:	4419      	add	r1, r3
  4032ba:	461c      	mov	r4, r3
  4032bc:	684a      	ldr	r2, [r1, #4]
  4032be:	68db      	ldr	r3, [r3, #12]
  4032c0:	f854 6f08 	ldr.w	r6, [r4, #8]!
  4032c4:	f042 0201 	orr.w	r2, r2, #1
  4032c8:	604a      	str	r2, [r1, #4]
  4032ca:	4628      	mov	r0, r5
  4032cc:	60f3      	str	r3, [r6, #12]
  4032ce:	609e      	str	r6, [r3, #8]
  4032d0:	f000 f996 	bl	403600 <__malloc_unlock>
  4032d4:	e6bc      	b.n	403050 <_malloc_r+0x18c>
  4032d6:	f103 005c 	add.w	r0, r3, #92	; 0x5c
  4032da:	f103 0e5b 	add.w	lr, r3, #91	; 0x5b
  4032de:	00c3      	lsls	r3, r0, #3
  4032e0:	e612      	b.n	402f08 <_malloc_r+0x44>
  4032e2:	099a      	lsrs	r2, r3, #6
  4032e4:	f102 0139 	add.w	r1, r2, #57	; 0x39
  4032e8:	00c9      	lsls	r1, r1, #3
  4032ea:	3238      	adds	r2, #56	; 0x38
  4032ec:	e7a4      	b.n	403238 <_malloc_r+0x374>
  4032ee:	42bc      	cmp	r4, r7
  4032f0:	d054      	beq.n	40339c <_malloc_r+0x4d8>
  4032f2:	68bc      	ldr	r4, [r7, #8]
  4032f4:	6862      	ldr	r2, [r4, #4]
  4032f6:	f022 0203 	bic.w	r2, r2, #3
  4032fa:	e75d      	b.n	4031b8 <_malloc_r+0x2f4>
  4032fc:	f859 3908 	ldr.w	r3, [r9], #-8
  403300:	4599      	cmp	r9, r3
  403302:	f040 8086 	bne.w	403412 <_malloc_r+0x54e>
  403306:	f010 0f03 	tst.w	r0, #3
  40330a:	f100 30ff 	add.w	r0, r0, #4294967295
  40330e:	d1f5      	bne.n	4032fc <_malloc_r+0x438>
  403310:	687b      	ldr	r3, [r7, #4]
  403312:	ea23 0304 	bic.w	r3, r3, r4
  403316:	607b      	str	r3, [r7, #4]
  403318:	0064      	lsls	r4, r4, #1
  40331a:	429c      	cmp	r4, r3
  40331c:	f63f aec7 	bhi.w	4030ae <_malloc_r+0x1ea>
  403320:	2c00      	cmp	r4, #0
  403322:	f43f aec4 	beq.w	4030ae <_malloc_r+0x1ea>
  403326:	421c      	tst	r4, r3
  403328:	4640      	mov	r0, r8
  40332a:	f47f ae3e 	bne.w	402faa <_malloc_r+0xe6>
  40332e:	0064      	lsls	r4, r4, #1
  403330:	421c      	tst	r4, r3
  403332:	f100 0004 	add.w	r0, r0, #4
  403336:	d0fa      	beq.n	40332e <_malloc_r+0x46a>
  403338:	e637      	b.n	402faa <_malloc_r+0xe6>
  40333a:	468c      	mov	ip, r1
  40333c:	e78c      	b.n	403258 <_malloc_r+0x394>
  40333e:	f5b3 7faa 	cmp.w	r3, #340	; 0x154
  403342:	d815      	bhi.n	403370 <_malloc_r+0x4ac>
  403344:	0bf3      	lsrs	r3, r6, #15
  403346:	f103 0078 	add.w	r0, r3, #120	; 0x78
  40334a:	f103 0e77 	add.w	lr, r3, #119	; 0x77
  40334e:	00c3      	lsls	r3, r0, #3
  403350:	e5da      	b.n	402f08 <_malloc_r+0x44>
  403352:	f44f 5180 	mov.w	r1, #4096	; 0x1000
  403356:	e6ed      	b.n	403134 <_malloc_r+0x270>
  403358:	687b      	ldr	r3, [r7, #4]
  40335a:	1092      	asrs	r2, r2, #2
  40335c:	2101      	movs	r1, #1
  40335e:	fa01 f202 	lsl.w	r2, r1, r2
  403362:	4313      	orrs	r3, r2
  403364:	607b      	str	r3, [r7, #4]
  403366:	4662      	mov	r2, ip
  403368:	e779      	b.n	40325e <_malloc_r+0x39a>
  40336a:	2301      	movs	r3, #1
  40336c:	6053      	str	r3, [r2, #4]
  40336e:	e729      	b.n	4031c4 <_malloc_r+0x300>
  403370:	f240 5254 	movw	r2, #1364	; 0x554
  403374:	4293      	cmp	r3, r2
  403376:	d822      	bhi.n	4033be <_malloc_r+0x4fa>
  403378:	0cb3      	lsrs	r3, r6, #18
  40337a:	f103 007d 	add.w	r0, r3, #125	; 0x7d
  40337e:	f103 0e7c 	add.w	lr, r3, #124	; 0x7c
  403382:	00c3      	lsls	r3, r0, #3
  403384:	e5c0      	b.n	402f08 <_malloc_r+0x44>
  403386:	f103 0b10 	add.w	fp, r3, #16
  40338a:	e6ae      	b.n	4030ea <_malloc_r+0x226>
  40338c:	2a54      	cmp	r2, #84	; 0x54
  40338e:	d829      	bhi.n	4033e4 <_malloc_r+0x520>
  403390:	0b1a      	lsrs	r2, r3, #12
  403392:	f102 016f 	add.w	r1, r2, #111	; 0x6f
  403396:	00c9      	lsls	r1, r1, #3
  403398:	326e      	adds	r2, #110	; 0x6e
  40339a:	e74d      	b.n	403238 <_malloc_r+0x374>
  40339c:	4b20      	ldr	r3, [pc, #128]	; (403420 <_malloc_r+0x55c>)
  40339e:	6819      	ldr	r1, [r3, #0]
  4033a0:	4459      	add	r1, fp
  4033a2:	6019      	str	r1, [r3, #0]
  4033a4:	e6b2      	b.n	40310c <_malloc_r+0x248>
  4033a6:	f3ca 000b 	ubfx	r0, sl, #0, #12
  4033aa:	2800      	cmp	r0, #0
  4033ac:	f47f aeae 	bne.w	40310c <_malloc_r+0x248>
  4033b0:	eb08 030b 	add.w	r3, r8, fp
  4033b4:	68ba      	ldr	r2, [r7, #8]
  4033b6:	f043 0301 	orr.w	r3, r3, #1
  4033ba:	6053      	str	r3, [r2, #4]
  4033bc:	e6ee      	b.n	40319c <_malloc_r+0x2d8>
  4033be:	207f      	movs	r0, #127	; 0x7f
  4033c0:	f44f 737e 	mov.w	r3, #1016	; 0x3f8
  4033c4:	f04f 0e7e 	mov.w	lr, #126	; 0x7e
  4033c8:	e59e      	b.n	402f08 <_malloc_r+0x44>
  4033ca:	f104 0108 	add.w	r1, r4, #8
  4033ce:	4628      	mov	r0, r5
  4033d0:	9300      	str	r3, [sp, #0]
  4033d2:	f001 fbdf 	bl	404b94 <_free_r>
  4033d6:	9b00      	ldr	r3, [sp, #0]
  4033d8:	6819      	ldr	r1, [r3, #0]
  4033da:	e6df      	b.n	40319c <_malloc_r+0x2d8>
  4033dc:	2001      	movs	r0, #1
  4033de:	f04f 0900 	mov.w	r9, #0
  4033e2:	e6bc      	b.n	40315e <_malloc_r+0x29a>
  4033e4:	f5b2 7faa 	cmp.w	r2, #340	; 0x154
  4033e8:	d805      	bhi.n	4033f6 <_malloc_r+0x532>
  4033ea:	0bda      	lsrs	r2, r3, #15
  4033ec:	f102 0178 	add.w	r1, r2, #120	; 0x78
  4033f0:	00c9      	lsls	r1, r1, #3
  4033f2:	3277      	adds	r2, #119	; 0x77
  4033f4:	e720      	b.n	403238 <_malloc_r+0x374>
  4033f6:	f240 5154 	movw	r1, #1364	; 0x554
  4033fa:	428a      	cmp	r2, r1
  4033fc:	d805      	bhi.n	40340a <_malloc_r+0x546>
  4033fe:	0c9a      	lsrs	r2, r3, #18
  403400:	f102 017d 	add.w	r1, r2, #125	; 0x7d
  403404:	00c9      	lsls	r1, r1, #3
  403406:	327c      	adds	r2, #124	; 0x7c
  403408:	e716      	b.n	403238 <_malloc_r+0x374>
  40340a:	f44f 717e 	mov.w	r1, #1016	; 0x3f8
  40340e:	227e      	movs	r2, #126	; 0x7e
  403410:	e712      	b.n	403238 <_malloc_r+0x374>
  403412:	687b      	ldr	r3, [r7, #4]
  403414:	e780      	b.n	403318 <_malloc_r+0x454>
  403416:	08f0      	lsrs	r0, r6, #3
  403418:	f106 0308 	add.w	r3, r6, #8
  40341c:	e600      	b.n	403020 <_malloc_r+0x15c>
  40341e:	bf00      	nop
  403420:	20400ba0 	.word	0x20400ba0

00403424 <memcpy>:
  403424:	4684      	mov	ip, r0
  403426:	ea41 0300 	orr.w	r3, r1, r0
  40342a:	f013 0303 	ands.w	r3, r3, #3
  40342e:	d16d      	bne.n	40350c <memcpy+0xe8>
  403430:	3a40      	subs	r2, #64	; 0x40
  403432:	d341      	bcc.n	4034b8 <memcpy+0x94>
  403434:	f851 3b04 	ldr.w	r3, [r1], #4
  403438:	f840 3b04 	str.w	r3, [r0], #4
  40343c:	f851 3b04 	ldr.w	r3, [r1], #4
  403440:	f840 3b04 	str.w	r3, [r0], #4
  403444:	f851 3b04 	ldr.w	r3, [r1], #4
  403448:	f840 3b04 	str.w	r3, [r0], #4
  40344c:	f851 3b04 	ldr.w	r3, [r1], #4
  403450:	f840 3b04 	str.w	r3, [r0], #4
  403454:	f851 3b04 	ldr.w	r3, [r1], #4
  403458:	f840 3b04 	str.w	r3, [r0], #4
  40345c:	f851 3b04 	ldr.w	r3, [r1], #4
  403460:	f840 3b04 	str.w	r3, [r0], #4
  403464:	f851 3b04 	ldr.w	r3, [r1], #4
  403468:	f840 3b04 	str.w	r3, [r0], #4
  40346c:	f851 3b04 	ldr.w	r3, [r1], #4
  403470:	f840 3b04 	str.w	r3, [r0], #4
  403474:	f851 3b04 	ldr.w	r3, [r1], #4
  403478:	f840 3b04 	str.w	r3, [r0], #4
  40347c:	f851 3b04 	ldr.w	r3, [r1], #4
  403480:	f840 3b04 	str.w	r3, [r0], #4
  403484:	f851 3b04 	ldr.w	r3, [r1], #4
  403488:	f840 3b04 	str.w	r3, [r0], #4
  40348c:	f851 3b04 	ldr.w	r3, [r1], #4
  403490:	f840 3b04 	str.w	r3, [r0], #4
  403494:	f851 3b04 	ldr.w	r3, [r1], #4
  403498:	f840 3b04 	str.w	r3, [r0], #4
  40349c:	f851 3b04 	ldr.w	r3, [r1], #4
  4034a0:	f840 3b04 	str.w	r3, [r0], #4
  4034a4:	f851 3b04 	ldr.w	r3, [r1], #4
  4034a8:	f840 3b04 	str.w	r3, [r0], #4
  4034ac:	f851 3b04 	ldr.w	r3, [r1], #4
  4034b0:	f840 3b04 	str.w	r3, [r0], #4
  4034b4:	3a40      	subs	r2, #64	; 0x40
  4034b6:	d2bd      	bcs.n	403434 <memcpy+0x10>
  4034b8:	3230      	adds	r2, #48	; 0x30
  4034ba:	d311      	bcc.n	4034e0 <memcpy+0xbc>
  4034bc:	f851 3b04 	ldr.w	r3, [r1], #4
  4034c0:	f840 3b04 	str.w	r3, [r0], #4
  4034c4:	f851 3b04 	ldr.w	r3, [r1], #4
  4034c8:	f840 3b04 	str.w	r3, [r0], #4
  4034cc:	f851 3b04 	ldr.w	r3, [r1], #4
  4034d0:	f840 3b04 	str.w	r3, [r0], #4
  4034d4:	f851 3b04 	ldr.w	r3, [r1], #4
  4034d8:	f840 3b04 	str.w	r3, [r0], #4
  4034dc:	3a10      	subs	r2, #16
  4034de:	d2ed      	bcs.n	4034bc <memcpy+0x98>
  4034e0:	320c      	adds	r2, #12
  4034e2:	d305      	bcc.n	4034f0 <memcpy+0xcc>
  4034e4:	f851 3b04 	ldr.w	r3, [r1], #4
  4034e8:	f840 3b04 	str.w	r3, [r0], #4
  4034ec:	3a04      	subs	r2, #4
  4034ee:	d2f9      	bcs.n	4034e4 <memcpy+0xc0>
  4034f0:	3204      	adds	r2, #4
  4034f2:	d008      	beq.n	403506 <memcpy+0xe2>
  4034f4:	07d2      	lsls	r2, r2, #31
  4034f6:	bf1c      	itt	ne
  4034f8:	f811 3b01 	ldrbne.w	r3, [r1], #1
  4034fc:	f800 3b01 	strbne.w	r3, [r0], #1
  403500:	d301      	bcc.n	403506 <memcpy+0xe2>
  403502:	880b      	ldrh	r3, [r1, #0]
  403504:	8003      	strh	r3, [r0, #0]
  403506:	4660      	mov	r0, ip
  403508:	4770      	bx	lr
  40350a:	bf00      	nop
  40350c:	2a08      	cmp	r2, #8
  40350e:	d313      	bcc.n	403538 <memcpy+0x114>
  403510:	078b      	lsls	r3, r1, #30
  403512:	d08d      	beq.n	403430 <memcpy+0xc>
  403514:	f010 0303 	ands.w	r3, r0, #3
  403518:	d08a      	beq.n	403430 <memcpy+0xc>
  40351a:	f1c3 0304 	rsb	r3, r3, #4
  40351e:	1ad2      	subs	r2, r2, r3
  403520:	07db      	lsls	r3, r3, #31
  403522:	bf1c      	itt	ne
  403524:	f811 3b01 	ldrbne.w	r3, [r1], #1
  403528:	f800 3b01 	strbne.w	r3, [r0], #1
  40352c:	d380      	bcc.n	403430 <memcpy+0xc>
  40352e:	f831 3b02 	ldrh.w	r3, [r1], #2
  403532:	f820 3b02 	strh.w	r3, [r0], #2
  403536:	e77b      	b.n	403430 <memcpy+0xc>
  403538:	3a04      	subs	r2, #4
  40353a:	d3d9      	bcc.n	4034f0 <memcpy+0xcc>
  40353c:	3a01      	subs	r2, #1
  40353e:	f811 3b01 	ldrb.w	r3, [r1], #1
  403542:	f800 3b01 	strb.w	r3, [r0], #1
  403546:	d2f9      	bcs.n	40353c <memcpy+0x118>
  403548:	780b      	ldrb	r3, [r1, #0]
  40354a:	7003      	strb	r3, [r0, #0]
  40354c:	784b      	ldrb	r3, [r1, #1]
  40354e:	7043      	strb	r3, [r0, #1]
  403550:	788b      	ldrb	r3, [r1, #2]
  403552:	7083      	strb	r3, [r0, #2]
  403554:	4660      	mov	r0, ip
  403556:	4770      	bx	lr

00403558 <memset>:
  403558:	b470      	push	{r4, r5, r6}
  40355a:	0786      	lsls	r6, r0, #30
  40355c:	d046      	beq.n	4035ec <memset+0x94>
  40355e:	1e54      	subs	r4, r2, #1
  403560:	2a00      	cmp	r2, #0
  403562:	d041      	beq.n	4035e8 <memset+0x90>
  403564:	b2ca      	uxtb	r2, r1
  403566:	4603      	mov	r3, r0
  403568:	e002      	b.n	403570 <memset+0x18>
  40356a:	f114 34ff 	adds.w	r4, r4, #4294967295
  40356e:	d33b      	bcc.n	4035e8 <memset+0x90>
  403570:	f803 2b01 	strb.w	r2, [r3], #1
  403574:	079d      	lsls	r5, r3, #30
  403576:	d1f8      	bne.n	40356a <memset+0x12>
  403578:	2c03      	cmp	r4, #3
  40357a:	d92e      	bls.n	4035da <memset+0x82>
  40357c:	b2cd      	uxtb	r5, r1
  40357e:	ea45 2505 	orr.w	r5, r5, r5, lsl #8
  403582:	2c0f      	cmp	r4, #15
  403584:	ea45 4505 	orr.w	r5, r5, r5, lsl #16
  403588:	d919      	bls.n	4035be <memset+0x66>
  40358a:	f103 0210 	add.w	r2, r3, #16
  40358e:	4626      	mov	r6, r4
  403590:	3e10      	subs	r6, #16
  403592:	2e0f      	cmp	r6, #15
  403594:	f842 5c10 	str.w	r5, [r2, #-16]
  403598:	f842 5c0c 	str.w	r5, [r2, #-12]
  40359c:	f842 5c08 	str.w	r5, [r2, #-8]
  4035a0:	f842 5c04 	str.w	r5, [r2, #-4]
  4035a4:	f102 0210 	add.w	r2, r2, #16
  4035a8:	d8f2      	bhi.n	403590 <memset+0x38>
  4035aa:	f1a4 0210 	sub.w	r2, r4, #16
  4035ae:	f022 020f 	bic.w	r2, r2, #15
  4035b2:	f004 040f 	and.w	r4, r4, #15
  4035b6:	3210      	adds	r2, #16
  4035b8:	2c03      	cmp	r4, #3
  4035ba:	4413      	add	r3, r2
  4035bc:	d90d      	bls.n	4035da <memset+0x82>
  4035be:	461e      	mov	r6, r3
  4035c0:	4622      	mov	r2, r4
  4035c2:	3a04      	subs	r2, #4
  4035c4:	2a03      	cmp	r2, #3
  4035c6:	f846 5b04 	str.w	r5, [r6], #4
  4035ca:	d8fa      	bhi.n	4035c2 <memset+0x6a>
  4035cc:	1f22      	subs	r2, r4, #4
  4035ce:	f022 0203 	bic.w	r2, r2, #3
  4035d2:	3204      	adds	r2, #4
  4035d4:	4413      	add	r3, r2
  4035d6:	f004 0403 	and.w	r4, r4, #3
  4035da:	b12c      	cbz	r4, 4035e8 <memset+0x90>
  4035dc:	b2c9      	uxtb	r1, r1
  4035de:	441c      	add	r4, r3
  4035e0:	f803 1b01 	strb.w	r1, [r3], #1
  4035e4:	429c      	cmp	r4, r3
  4035e6:	d1fb      	bne.n	4035e0 <memset+0x88>
  4035e8:	bc70      	pop	{r4, r5, r6}
  4035ea:	4770      	bx	lr
  4035ec:	4614      	mov	r4, r2
  4035ee:	4603      	mov	r3, r0
  4035f0:	e7c2      	b.n	403578 <memset+0x20>
  4035f2:	bf00      	nop

004035f4 <__malloc_lock>:
  4035f4:	4801      	ldr	r0, [pc, #4]	; (4035fc <__malloc_lock+0x8>)
  4035f6:	f001 bd67 	b.w	4050c8 <__retarget_lock_acquire_recursive>
  4035fa:	bf00      	nop
  4035fc:	20400c38 	.word	0x20400c38

00403600 <__malloc_unlock>:
  403600:	4801      	ldr	r0, [pc, #4]	; (403608 <__malloc_unlock+0x8>)
  403602:	f001 bd63 	b.w	4050cc <__retarget_lock_release_recursive>
  403606:	bf00      	nop
  403608:	20400c38 	.word	0x20400c38

0040360c <_sbrk_r>:
  40360c:	b538      	push	{r3, r4, r5, lr}
  40360e:	4c07      	ldr	r4, [pc, #28]	; (40362c <_sbrk_r+0x20>)
  403610:	2300      	movs	r3, #0
  403612:	4605      	mov	r5, r0
  403614:	4608      	mov	r0, r1
  403616:	6023      	str	r3, [r4, #0]
  403618:	f7fd fae2 	bl	400be0 <_sbrk>
  40361c:	1c43      	adds	r3, r0, #1
  40361e:	d000      	beq.n	403622 <_sbrk_r+0x16>
  403620:	bd38      	pop	{r3, r4, r5, pc}
  403622:	6823      	ldr	r3, [r4, #0]
  403624:	2b00      	cmp	r3, #0
  403626:	d0fb      	beq.n	403620 <_sbrk_r+0x14>
  403628:	602b      	str	r3, [r5, #0]
  40362a:	bd38      	pop	{r3, r4, r5, pc}
  40362c:	20400c4c 	.word	0x20400c4c

00403630 <setbuf>:
  403630:	2900      	cmp	r1, #0
  403632:	bf0c      	ite	eq
  403634:	2202      	moveq	r2, #2
  403636:	2200      	movne	r2, #0
  403638:	f44f 6380 	mov.w	r3, #1024	; 0x400
  40363c:	f000 b800 	b.w	403640 <setvbuf>

00403640 <setvbuf>:
  403640:	e92d 43f0 	stmdb	sp!, {r4, r5, r6, r7, r8, r9, lr}
  403644:	4c61      	ldr	r4, [pc, #388]	; (4037cc <setvbuf+0x18c>)
  403646:	6825      	ldr	r5, [r4, #0]
  403648:	b083      	sub	sp, #12
  40364a:	4604      	mov	r4, r0
  40364c:	460f      	mov	r7, r1
  40364e:	4690      	mov	r8, r2
  403650:	461e      	mov	r6, r3
  403652:	b115      	cbz	r5, 40365a <setvbuf+0x1a>
  403654:	6bab      	ldr	r3, [r5, #56]	; 0x38
  403656:	2b00      	cmp	r3, #0
  403658:	d064      	beq.n	403724 <setvbuf+0xe4>
  40365a:	f1b8 0f02 	cmp.w	r8, #2
  40365e:	d006      	beq.n	40366e <setvbuf+0x2e>
  403660:	f1b8 0f01 	cmp.w	r8, #1
  403664:	f200 809f 	bhi.w	4037a6 <setvbuf+0x166>
  403668:	2e00      	cmp	r6, #0
  40366a:	f2c0 809c 	blt.w	4037a6 <setvbuf+0x166>
  40366e:	6e63      	ldr	r3, [r4, #100]	; 0x64
  403670:	07d8      	lsls	r0, r3, #31
  403672:	d534      	bpl.n	4036de <setvbuf+0x9e>
  403674:	4621      	mov	r1, r4
  403676:	4628      	mov	r0, r5
  403678:	f001 f90e 	bl	404898 <_fflush_r>
  40367c:	6b21      	ldr	r1, [r4, #48]	; 0x30
  40367e:	b141      	cbz	r1, 403692 <setvbuf+0x52>
  403680:	f104 0340 	add.w	r3, r4, #64	; 0x40
  403684:	4299      	cmp	r1, r3
  403686:	d002      	beq.n	40368e <setvbuf+0x4e>
  403688:	4628      	mov	r0, r5
  40368a:	f001 fa83 	bl	404b94 <_free_r>
  40368e:	2300      	movs	r3, #0
  403690:	6323      	str	r3, [r4, #48]	; 0x30
  403692:	f9b4 300c 	ldrsh.w	r3, [r4, #12]
  403696:	2200      	movs	r2, #0
  403698:	61a2      	str	r2, [r4, #24]
  40369a:	6062      	str	r2, [r4, #4]
  40369c:	061a      	lsls	r2, r3, #24
  40369e:	d43a      	bmi.n	403716 <setvbuf+0xd6>
  4036a0:	f423 634a 	bic.w	r3, r3, #3232	; 0xca0
  4036a4:	f023 0303 	bic.w	r3, r3, #3
  4036a8:	f1b8 0f02 	cmp.w	r8, #2
  4036ac:	81a3      	strh	r3, [r4, #12]
  4036ae:	d01d      	beq.n	4036ec <setvbuf+0xac>
  4036b0:	ab01      	add	r3, sp, #4
  4036b2:	466a      	mov	r2, sp
  4036b4:	4621      	mov	r1, r4
  4036b6:	4628      	mov	r0, r5
  4036b8:	f001 fd0a 	bl	4050d0 <__swhatbuf_r>
  4036bc:	89a3      	ldrh	r3, [r4, #12]
  4036be:	4318      	orrs	r0, r3
  4036c0:	81a0      	strh	r0, [r4, #12]
  4036c2:	2e00      	cmp	r6, #0
  4036c4:	d132      	bne.n	40372c <setvbuf+0xec>
  4036c6:	9e00      	ldr	r6, [sp, #0]
  4036c8:	4630      	mov	r0, r6
  4036ca:	f7ff fbeb 	bl	402ea4 <malloc>
  4036ce:	4607      	mov	r7, r0
  4036d0:	2800      	cmp	r0, #0
  4036d2:	d06b      	beq.n	4037ac <setvbuf+0x16c>
  4036d4:	89a3      	ldrh	r3, [r4, #12]
  4036d6:	f043 0380 	orr.w	r3, r3, #128	; 0x80
  4036da:	81a3      	strh	r3, [r4, #12]
  4036dc:	e028      	b.n	403730 <setvbuf+0xf0>
  4036de:	89a3      	ldrh	r3, [r4, #12]
  4036e0:	0599      	lsls	r1, r3, #22
  4036e2:	d4c7      	bmi.n	403674 <setvbuf+0x34>
  4036e4:	6da0      	ldr	r0, [r4, #88]	; 0x58
  4036e6:	f001 fcef 	bl	4050c8 <__retarget_lock_acquire_recursive>
  4036ea:	e7c3      	b.n	403674 <setvbuf+0x34>
  4036ec:	2500      	movs	r5, #0
  4036ee:	6e61      	ldr	r1, [r4, #100]	; 0x64
  4036f0:	2600      	movs	r6, #0
  4036f2:	f104 0243 	add.w	r2, r4, #67	; 0x43
  4036f6:	f043 0302 	orr.w	r3, r3, #2
  4036fa:	2001      	movs	r0, #1
  4036fc:	60a6      	str	r6, [r4, #8]
  4036fe:	07ce      	lsls	r6, r1, #31
  403700:	81a3      	strh	r3, [r4, #12]
  403702:	6022      	str	r2, [r4, #0]
  403704:	6122      	str	r2, [r4, #16]
  403706:	6160      	str	r0, [r4, #20]
  403708:	d401      	bmi.n	40370e <setvbuf+0xce>
  40370a:	0598      	lsls	r0, r3, #22
  40370c:	d53e      	bpl.n	40378c <setvbuf+0x14c>
  40370e:	4628      	mov	r0, r5
  403710:	b003      	add	sp, #12
  403712:	e8bd 83f0 	ldmia.w	sp!, {r4, r5, r6, r7, r8, r9, pc}
  403716:	6921      	ldr	r1, [r4, #16]
  403718:	4628      	mov	r0, r5
  40371a:	f001 fa3b 	bl	404b94 <_free_r>
  40371e:	f9b4 300c 	ldrsh.w	r3, [r4, #12]
  403722:	e7bd      	b.n	4036a0 <setvbuf+0x60>
  403724:	4628      	mov	r0, r5
  403726:	f001 f90f 	bl	404948 <__sinit>
  40372a:	e796      	b.n	40365a <setvbuf+0x1a>
  40372c:	2f00      	cmp	r7, #0
  40372e:	d0cb      	beq.n	4036c8 <setvbuf+0x88>
  403730:	6bab      	ldr	r3, [r5, #56]	; 0x38
  403732:	2b00      	cmp	r3, #0
  403734:	d033      	beq.n	40379e <setvbuf+0x15e>
  403736:	9b00      	ldr	r3, [sp, #0]
  403738:	f9b4 200c 	ldrsh.w	r2, [r4, #12]
  40373c:	6027      	str	r7, [r4, #0]
  40373e:	429e      	cmp	r6, r3
  403740:	bf1c      	itt	ne
  403742:	f442 6200 	orrne.w	r2, r2, #2048	; 0x800
  403746:	81a2      	strhne	r2, [r4, #12]
  403748:	f1b8 0f01 	cmp.w	r8, #1
  40374c:	bf04      	itt	eq
  40374e:	f042 0201 	orreq.w	r2, r2, #1
  403752:	81a2      	strheq	r2, [r4, #12]
  403754:	b292      	uxth	r2, r2
  403756:	f012 0308 	ands.w	r3, r2, #8
  40375a:	6127      	str	r7, [r4, #16]
  40375c:	6166      	str	r6, [r4, #20]
  40375e:	d00e      	beq.n	40377e <setvbuf+0x13e>
  403760:	07d1      	lsls	r1, r2, #31
  403762:	d51a      	bpl.n	40379a <setvbuf+0x15a>
  403764:	6e65      	ldr	r5, [r4, #100]	; 0x64
  403766:	4276      	negs	r6, r6
  403768:	2300      	movs	r3, #0
  40376a:	f015 0501 	ands.w	r5, r5, #1
  40376e:	61a6      	str	r6, [r4, #24]
  403770:	60a3      	str	r3, [r4, #8]
  403772:	d009      	beq.n	403788 <setvbuf+0x148>
  403774:	2500      	movs	r5, #0
  403776:	4628      	mov	r0, r5
  403778:	b003      	add	sp, #12
  40377a:	e8bd 83f0 	ldmia.w	sp!, {r4, r5, r6, r7, r8, r9, pc}
  40377e:	60a3      	str	r3, [r4, #8]
  403780:	6e65      	ldr	r5, [r4, #100]	; 0x64
  403782:	f015 0501 	ands.w	r5, r5, #1
  403786:	d1f5      	bne.n	403774 <setvbuf+0x134>
  403788:	0593      	lsls	r3, r2, #22
  40378a:	d4c0      	bmi.n	40370e <setvbuf+0xce>
  40378c:	6da0      	ldr	r0, [r4, #88]	; 0x58
  40378e:	f001 fc9d 	bl	4050cc <__retarget_lock_release_recursive>
  403792:	4628      	mov	r0, r5
  403794:	b003      	add	sp, #12
  403796:	e8bd 83f0 	ldmia.w	sp!, {r4, r5, r6, r7, r8, r9, pc}
  40379a:	60a6      	str	r6, [r4, #8]
  40379c:	e7f0      	b.n	403780 <setvbuf+0x140>
  40379e:	4628      	mov	r0, r5
  4037a0:	f001 f8d2 	bl	404948 <__sinit>
  4037a4:	e7c7      	b.n	403736 <setvbuf+0xf6>
  4037a6:	f04f 35ff 	mov.w	r5, #4294967295
  4037aa:	e7b0      	b.n	40370e <setvbuf+0xce>
  4037ac:	f8dd 9000 	ldr.w	r9, [sp]
  4037b0:	45b1      	cmp	r9, r6
  4037b2:	d004      	beq.n	4037be <setvbuf+0x17e>
  4037b4:	4648      	mov	r0, r9
  4037b6:	f7ff fb75 	bl	402ea4 <malloc>
  4037ba:	4607      	mov	r7, r0
  4037bc:	b920      	cbnz	r0, 4037c8 <setvbuf+0x188>
  4037be:	f9b4 300c 	ldrsh.w	r3, [r4, #12]
  4037c2:	f04f 35ff 	mov.w	r5, #4294967295
  4037c6:	e792      	b.n	4036ee <setvbuf+0xae>
  4037c8:	464e      	mov	r6, r9
  4037ca:	e783      	b.n	4036d4 <setvbuf+0x94>
  4037cc:	20400014 	.word	0x20400014
	...

00403800 <strlen>:
  403800:	f890 f000 	pld	[r0]
  403804:	e96d 4502 	strd	r4, r5, [sp, #-8]!
  403808:	f020 0107 	bic.w	r1, r0, #7
  40380c:	f06f 0c00 	mvn.w	ip, #0
  403810:	f010 0407 	ands.w	r4, r0, #7
  403814:	f891 f020 	pld	[r1, #32]
  403818:	f040 8049 	bne.w	4038ae <strlen+0xae>
  40381c:	f04f 0400 	mov.w	r4, #0
  403820:	f06f 0007 	mvn.w	r0, #7
  403824:	e9d1 2300 	ldrd	r2, r3, [r1]
  403828:	f891 f040 	pld	[r1, #64]	; 0x40
  40382c:	f100 0008 	add.w	r0, r0, #8
  403830:	fa82 f24c 	uadd8	r2, r2, ip
  403834:	faa4 f28c 	sel	r2, r4, ip
  403838:	fa83 f34c 	uadd8	r3, r3, ip
  40383c:	faa2 f38c 	sel	r3, r2, ip
  403840:	bb4b      	cbnz	r3, 403896 <strlen+0x96>
  403842:	e9d1 2302 	ldrd	r2, r3, [r1, #8]
  403846:	fa82 f24c 	uadd8	r2, r2, ip
  40384a:	f100 0008 	add.w	r0, r0, #8
  40384e:	faa4 f28c 	sel	r2, r4, ip
  403852:	fa83 f34c 	uadd8	r3, r3, ip
  403856:	faa2 f38c 	sel	r3, r2, ip
  40385a:	b9e3      	cbnz	r3, 403896 <strlen+0x96>
  40385c:	e9d1 2304 	ldrd	r2, r3, [r1, #16]
  403860:	fa82 f24c 	uadd8	r2, r2, ip
  403864:	f100 0008 	add.w	r0, r0, #8
  403868:	faa4 f28c 	sel	r2, r4, ip
  40386c:	fa83 f34c 	uadd8	r3, r3, ip
  403870:	faa2 f38c 	sel	r3, r2, ip
  403874:	b97b      	cbnz	r3, 403896 <strlen+0x96>
  403876:	e9d1 2306 	ldrd	r2, r3, [r1, #24]
  40387a:	f101 0120 	add.w	r1, r1, #32
  40387e:	fa82 f24c 	uadd8	r2, r2, ip
  403882:	f100 0008 	add.w	r0, r0, #8
  403886:	faa4 f28c 	sel	r2, r4, ip
  40388a:	fa83 f34c 	uadd8	r3, r3, ip
  40388e:	faa2 f38c 	sel	r3, r2, ip
  403892:	2b00      	cmp	r3, #0
  403894:	d0c6      	beq.n	403824 <strlen+0x24>
  403896:	2a00      	cmp	r2, #0
  403898:	bf04      	itt	eq
  40389a:	3004      	addeq	r0, #4
  40389c:	461a      	moveq	r2, r3
  40389e:	ba12      	rev	r2, r2
  4038a0:	fab2 f282 	clz	r2, r2
  4038a4:	e8fd 4502 	ldrd	r4, r5, [sp], #8
  4038a8:	eb00 00d2 	add.w	r0, r0, r2, lsr #3
  4038ac:	4770      	bx	lr
  4038ae:	e9d1 2300 	ldrd	r2, r3, [r1]
  4038b2:	f004 0503 	and.w	r5, r4, #3
  4038b6:	f1c4 0000 	rsb	r0, r4, #0
  4038ba:	ea4f 05c5 	mov.w	r5, r5, lsl #3
  4038be:	f014 0f04 	tst.w	r4, #4
  4038c2:	f891 f040 	pld	[r1, #64]	; 0x40
  4038c6:	fa0c f505 	lsl.w	r5, ip, r5
  4038ca:	ea62 0205 	orn	r2, r2, r5
  4038ce:	bf1c      	itt	ne
  4038d0:	ea63 0305 	ornne	r3, r3, r5
  4038d4:	4662      	movne	r2, ip
  4038d6:	f04f 0400 	mov.w	r4, #0
  4038da:	e7a9      	b.n	403830 <strlen+0x30>

004038dc <__sprint_r.part.0>:
  4038dc:	e92d 4ff8 	stmdb	sp!, {r3, r4, r5, r6, r7, r8, r9, sl, fp, lr}
  4038e0:	6e4b      	ldr	r3, [r1, #100]	; 0x64
  4038e2:	049c      	lsls	r4, r3, #18
  4038e4:	4693      	mov	fp, r2
  4038e6:	d52f      	bpl.n	403948 <__sprint_r.part.0+0x6c>
  4038e8:	6893      	ldr	r3, [r2, #8]
  4038ea:	6812      	ldr	r2, [r2, #0]
  4038ec:	b353      	cbz	r3, 403944 <__sprint_r.part.0+0x68>
  4038ee:	460e      	mov	r6, r1
  4038f0:	4607      	mov	r7, r0
  4038f2:	f102 0908 	add.w	r9, r2, #8
  4038f6:	e919 0420 	ldmdb	r9, {r5, sl}
  4038fa:	ea5f 089a 	movs.w	r8, sl, lsr #2
  4038fe:	d017      	beq.n	403930 <__sprint_r.part.0+0x54>
  403900:	3d04      	subs	r5, #4
  403902:	2400      	movs	r4, #0
  403904:	e001      	b.n	40390a <__sprint_r.part.0+0x2e>
  403906:	45a0      	cmp	r8, r4
  403908:	d010      	beq.n	40392c <__sprint_r.part.0+0x50>
  40390a:	4632      	mov	r2, r6
  40390c:	f855 1f04 	ldr.w	r1, [r5, #4]!
  403910:	4638      	mov	r0, r7
  403912:	f001 f8bb 	bl	404a8c <_fputwc_r>
  403916:	1c43      	adds	r3, r0, #1
  403918:	f104 0401 	add.w	r4, r4, #1
  40391c:	d1f3      	bne.n	403906 <__sprint_r.part.0+0x2a>
  40391e:	2300      	movs	r3, #0
  403920:	f8cb 3008 	str.w	r3, [fp, #8]
  403924:	f8cb 3004 	str.w	r3, [fp, #4]
  403928:	e8bd 8ff8 	ldmia.w	sp!, {r3, r4, r5, r6, r7, r8, r9, sl, fp, pc}
  40392c:	f8db 3008 	ldr.w	r3, [fp, #8]
  403930:	f02a 0a03 	bic.w	sl, sl, #3
  403934:	eba3 030a 	sub.w	r3, r3, sl
  403938:	f8cb 3008 	str.w	r3, [fp, #8]
  40393c:	f109 0908 	add.w	r9, r9, #8
  403940:	2b00      	cmp	r3, #0
  403942:	d1d8      	bne.n	4038f6 <__sprint_r.part.0+0x1a>
  403944:	2000      	movs	r0, #0
  403946:	e7ea      	b.n	40391e <__sprint_r.part.0+0x42>
  403948:	f001 fa0a 	bl	404d60 <__sfvwrite_r>
  40394c:	2300      	movs	r3, #0
  40394e:	f8cb 3008 	str.w	r3, [fp, #8]
  403952:	f8cb 3004 	str.w	r3, [fp, #4]
  403956:	e8bd 8ff8 	ldmia.w	sp!, {r3, r4, r5, r6, r7, r8, r9, sl, fp, pc}
  40395a:	bf00      	nop

0040395c <_vfiprintf_r>:
  40395c:	e92d 4ff0 	stmdb	sp!, {r4, r5, r6, r7, r8, r9, sl, fp, lr}
  403960:	b0ad      	sub	sp, #180	; 0xb4
  403962:	461d      	mov	r5, r3
  403964:	468b      	mov	fp, r1
  403966:	4690      	mov	r8, r2
  403968:	9307      	str	r3, [sp, #28]
  40396a:	9006      	str	r0, [sp, #24]
  40396c:	b118      	cbz	r0, 403976 <_vfiprintf_r+0x1a>
  40396e:	6b83      	ldr	r3, [r0, #56]	; 0x38
  403970:	2b00      	cmp	r3, #0
  403972:	f000 80f3 	beq.w	403b5c <_vfiprintf_r+0x200>
  403976:	f8db 3064 	ldr.w	r3, [fp, #100]	; 0x64
  40397a:	f9bb 000c 	ldrsh.w	r0, [fp, #12]
  40397e:	07df      	lsls	r7, r3, #31
  403980:	b281      	uxth	r1, r0
  403982:	d402      	bmi.n	40398a <_vfiprintf_r+0x2e>
  403984:	058e      	lsls	r6, r1, #22
  403986:	f140 80fc 	bpl.w	403b82 <_vfiprintf_r+0x226>
  40398a:	048c      	lsls	r4, r1, #18
  40398c:	d40a      	bmi.n	4039a4 <_vfiprintf_r+0x48>
  40398e:	f8db 3064 	ldr.w	r3, [fp, #100]	; 0x64
  403992:	f440 5100 	orr.w	r1, r0, #8192	; 0x2000
  403996:	f423 5300 	bic.w	r3, r3, #8192	; 0x2000
  40399a:	f8ab 100c 	strh.w	r1, [fp, #12]
  40399e:	f8cb 3064 	str.w	r3, [fp, #100]	; 0x64
  4039a2:	b289      	uxth	r1, r1
  4039a4:	0708      	lsls	r0, r1, #28
  4039a6:	f140 80b3 	bpl.w	403b10 <_vfiprintf_r+0x1b4>
  4039aa:	f8db 3010 	ldr.w	r3, [fp, #16]
  4039ae:	2b00      	cmp	r3, #0
  4039b0:	f000 80ae 	beq.w	403b10 <_vfiprintf_r+0x1b4>
  4039b4:	f001 031a 	and.w	r3, r1, #26
  4039b8:	2b0a      	cmp	r3, #10
  4039ba:	f000 80b5 	beq.w	403b28 <_vfiprintf_r+0x1cc>
  4039be:	2300      	movs	r3, #0
  4039c0:	f10d 0970 	add.w	r9, sp, #112	; 0x70
  4039c4:	930b      	str	r3, [sp, #44]	; 0x2c
  4039c6:	9311      	str	r3, [sp, #68]	; 0x44
  4039c8:	9310      	str	r3, [sp, #64]	; 0x40
  4039ca:	9303      	str	r3, [sp, #12]
  4039cc:	f8cd 903c 	str.w	r9, [sp, #60]	; 0x3c
  4039d0:	46ca      	mov	sl, r9
  4039d2:	f8cd b010 	str.w	fp, [sp, #16]
  4039d6:	f898 3000 	ldrb.w	r3, [r8]
  4039da:	4644      	mov	r4, r8
  4039dc:	b1fb      	cbz	r3, 403a1e <_vfiprintf_r+0xc2>
  4039de:	2b25      	cmp	r3, #37	; 0x25
  4039e0:	d102      	bne.n	4039e8 <_vfiprintf_r+0x8c>
  4039e2:	e01c      	b.n	403a1e <_vfiprintf_r+0xc2>
  4039e4:	2b25      	cmp	r3, #37	; 0x25
  4039e6:	d003      	beq.n	4039f0 <_vfiprintf_r+0x94>
  4039e8:	f814 3f01 	ldrb.w	r3, [r4, #1]!
  4039ec:	2b00      	cmp	r3, #0
  4039ee:	d1f9      	bne.n	4039e4 <_vfiprintf_r+0x88>
  4039f0:	eba4 0508 	sub.w	r5, r4, r8
  4039f4:	b19d      	cbz	r5, 403a1e <_vfiprintf_r+0xc2>
  4039f6:	9b10      	ldr	r3, [sp, #64]	; 0x40
  4039f8:	9a11      	ldr	r2, [sp, #68]	; 0x44
  4039fa:	f8ca 8000 	str.w	r8, [sl]
  4039fe:	3301      	adds	r3, #1
  403a00:	442a      	add	r2, r5
  403a02:	2b07      	cmp	r3, #7
  403a04:	f8ca 5004 	str.w	r5, [sl, #4]
  403a08:	9211      	str	r2, [sp, #68]	; 0x44
  403a0a:	9310      	str	r3, [sp, #64]	; 0x40
  403a0c:	dd7a      	ble.n	403b04 <_vfiprintf_r+0x1a8>
  403a0e:	2a00      	cmp	r2, #0
  403a10:	f040 84b0 	bne.w	404374 <_vfiprintf_r+0xa18>
  403a14:	9b03      	ldr	r3, [sp, #12]
  403a16:	9210      	str	r2, [sp, #64]	; 0x40
  403a18:	442b      	add	r3, r5
  403a1a:	46ca      	mov	sl, r9
  403a1c:	9303      	str	r3, [sp, #12]
  403a1e:	7823      	ldrb	r3, [r4, #0]
  403a20:	2b00      	cmp	r3, #0
  403a22:	f000 83e0 	beq.w	4041e6 <_vfiprintf_r+0x88a>
  403a26:	2000      	movs	r0, #0
  403a28:	f04f 0300 	mov.w	r3, #0
  403a2c:	f88d 3037 	strb.w	r3, [sp, #55]	; 0x37
  403a30:	f104 0801 	add.w	r8, r4, #1
  403a34:	7862      	ldrb	r2, [r4, #1]
  403a36:	4605      	mov	r5, r0
  403a38:	4606      	mov	r6, r0
  403a3a:	4603      	mov	r3, r0
  403a3c:	f04f 34ff 	mov.w	r4, #4294967295
  403a40:	f108 0801 	add.w	r8, r8, #1
  403a44:	f1a2 0120 	sub.w	r1, r2, #32
  403a48:	2958      	cmp	r1, #88	; 0x58
  403a4a:	f200 82de 	bhi.w	40400a <_vfiprintf_r+0x6ae>
  403a4e:	e8df f011 	tbh	[pc, r1, lsl #1]
  403a52:	0221      	.short	0x0221
  403a54:	02dc02dc 	.word	0x02dc02dc
  403a58:	02dc0229 	.word	0x02dc0229
  403a5c:	02dc02dc 	.word	0x02dc02dc
  403a60:	02dc02dc 	.word	0x02dc02dc
  403a64:	028902dc 	.word	0x028902dc
  403a68:	02dc0295 	.word	0x02dc0295
  403a6c:	02bd00a2 	.word	0x02bd00a2
  403a70:	019f02dc 	.word	0x019f02dc
  403a74:	01a401a4 	.word	0x01a401a4
  403a78:	01a401a4 	.word	0x01a401a4
  403a7c:	01a401a4 	.word	0x01a401a4
  403a80:	01a401a4 	.word	0x01a401a4
  403a84:	02dc01a4 	.word	0x02dc01a4
  403a88:	02dc02dc 	.word	0x02dc02dc
  403a8c:	02dc02dc 	.word	0x02dc02dc
  403a90:	02dc02dc 	.word	0x02dc02dc
  403a94:	02dc02dc 	.word	0x02dc02dc
  403a98:	01b202dc 	.word	0x01b202dc
  403a9c:	02dc02dc 	.word	0x02dc02dc
  403aa0:	02dc02dc 	.word	0x02dc02dc
  403aa4:	02dc02dc 	.word	0x02dc02dc
  403aa8:	02dc02dc 	.word	0x02dc02dc
  403aac:	02dc02dc 	.word	0x02dc02dc
  403ab0:	02dc0197 	.word	0x02dc0197
  403ab4:	02dc02dc 	.word	0x02dc02dc
  403ab8:	02dc02dc 	.word	0x02dc02dc
  403abc:	02dc019b 	.word	0x02dc019b
  403ac0:	025302dc 	.word	0x025302dc
  403ac4:	02dc02dc 	.word	0x02dc02dc
  403ac8:	02dc02dc 	.word	0x02dc02dc
  403acc:	02dc02dc 	.word	0x02dc02dc
  403ad0:	02dc02dc 	.word	0x02dc02dc
  403ad4:	02dc02dc 	.word	0x02dc02dc
  403ad8:	021b025a 	.word	0x021b025a
  403adc:	02dc02dc 	.word	0x02dc02dc
  403ae0:	026e02dc 	.word	0x026e02dc
  403ae4:	02dc021b 	.word	0x02dc021b
  403ae8:	027302dc 	.word	0x027302dc
  403aec:	01f502dc 	.word	0x01f502dc
  403af0:	02090182 	.word	0x02090182
  403af4:	02dc02d7 	.word	0x02dc02d7
  403af8:	02dc029a 	.word	0x02dc029a
  403afc:	02dc00a7 	.word	0x02dc00a7
  403b00:	022e02dc 	.word	0x022e02dc
  403b04:	f10a 0a08 	add.w	sl, sl, #8
  403b08:	9b03      	ldr	r3, [sp, #12]
  403b0a:	442b      	add	r3, r5
  403b0c:	9303      	str	r3, [sp, #12]
  403b0e:	e786      	b.n	403a1e <_vfiprintf_r+0xc2>
  403b10:	4659      	mov	r1, fp
  403b12:	9806      	ldr	r0, [sp, #24]
  403b14:	f000 fdac 	bl	404670 <__swsetup_r>
  403b18:	bb18      	cbnz	r0, 403b62 <_vfiprintf_r+0x206>
  403b1a:	f8bb 100c 	ldrh.w	r1, [fp, #12]
  403b1e:	f001 031a 	and.w	r3, r1, #26
  403b22:	2b0a      	cmp	r3, #10
  403b24:	f47f af4b 	bne.w	4039be <_vfiprintf_r+0x62>
  403b28:	f9bb 300e 	ldrsh.w	r3, [fp, #14]
  403b2c:	2b00      	cmp	r3, #0
  403b2e:	f6ff af46 	blt.w	4039be <_vfiprintf_r+0x62>
  403b32:	f8db 3064 	ldr.w	r3, [fp, #100]	; 0x64
  403b36:	07db      	lsls	r3, r3, #31
  403b38:	d405      	bmi.n	403b46 <_vfiprintf_r+0x1ea>
  403b3a:	058f      	lsls	r7, r1, #22
  403b3c:	d403      	bmi.n	403b46 <_vfiprintf_r+0x1ea>
  403b3e:	f8db 0058 	ldr.w	r0, [fp, #88]	; 0x58
  403b42:	f001 fac3 	bl	4050cc <__retarget_lock_release_recursive>
  403b46:	462b      	mov	r3, r5
  403b48:	4642      	mov	r2, r8
  403b4a:	4659      	mov	r1, fp
  403b4c:	9806      	ldr	r0, [sp, #24]
  403b4e:	f000 fd4d 	bl	4045ec <__sbprintf>
  403b52:	9003      	str	r0, [sp, #12]
  403b54:	9803      	ldr	r0, [sp, #12]
  403b56:	b02d      	add	sp, #180	; 0xb4
  403b58:	e8bd 8ff0 	ldmia.w	sp!, {r4, r5, r6, r7, r8, r9, sl, fp, pc}
  403b5c:	f000 fef4 	bl	404948 <__sinit>
  403b60:	e709      	b.n	403976 <_vfiprintf_r+0x1a>
  403b62:	f8db 3064 	ldr.w	r3, [fp, #100]	; 0x64
  403b66:	07d9      	lsls	r1, r3, #31
  403b68:	d404      	bmi.n	403b74 <_vfiprintf_r+0x218>
  403b6a:	f8bb 300c 	ldrh.w	r3, [fp, #12]
  403b6e:	059a      	lsls	r2, r3, #22
  403b70:	f140 84aa 	bpl.w	4044c8 <_vfiprintf_r+0xb6c>
  403b74:	f04f 33ff 	mov.w	r3, #4294967295
  403b78:	9303      	str	r3, [sp, #12]
  403b7a:	9803      	ldr	r0, [sp, #12]
  403b7c:	b02d      	add	sp, #180	; 0xb4
  403b7e:	e8bd 8ff0 	ldmia.w	sp!, {r4, r5, r6, r7, r8, r9, sl, fp, pc}
  403b82:	f8db 0058 	ldr.w	r0, [fp, #88]	; 0x58
  403b86:	f001 fa9f 	bl	4050c8 <__retarget_lock_acquire_recursive>
  403b8a:	f9bb 000c 	ldrsh.w	r0, [fp, #12]
  403b8e:	b281      	uxth	r1, r0
  403b90:	e6fb      	b.n	40398a <_vfiprintf_r+0x2e>
  403b92:	4276      	negs	r6, r6
  403b94:	9207      	str	r2, [sp, #28]
  403b96:	f043 0304 	orr.w	r3, r3, #4
  403b9a:	f898 2000 	ldrb.w	r2, [r8]
  403b9e:	e74f      	b.n	403a40 <_vfiprintf_r+0xe4>
  403ba0:	9608      	str	r6, [sp, #32]
  403ba2:	069e      	lsls	r6, r3, #26
  403ba4:	f100 8450 	bmi.w	404448 <_vfiprintf_r+0xaec>
  403ba8:	9907      	ldr	r1, [sp, #28]
  403baa:	06dd      	lsls	r5, r3, #27
  403bac:	460a      	mov	r2, r1
  403bae:	f100 83ef 	bmi.w	404390 <_vfiprintf_r+0xa34>
  403bb2:	0658      	lsls	r0, r3, #25
  403bb4:	f140 83ec 	bpl.w	404390 <_vfiprintf_r+0xa34>
  403bb8:	880e      	ldrh	r6, [r1, #0]
  403bba:	3104      	adds	r1, #4
  403bbc:	2700      	movs	r7, #0
  403bbe:	2201      	movs	r2, #1
  403bc0:	9107      	str	r1, [sp, #28]
  403bc2:	f04f 0100 	mov.w	r1, #0
  403bc6:	f88d 1037 	strb.w	r1, [sp, #55]	; 0x37
  403bca:	2500      	movs	r5, #0
  403bcc:	1c61      	adds	r1, r4, #1
  403bce:	f000 8116 	beq.w	403dfe <_vfiprintf_r+0x4a2>
  403bd2:	f023 0180 	bic.w	r1, r3, #128	; 0x80
  403bd6:	9102      	str	r1, [sp, #8]
  403bd8:	ea56 0107 	orrs.w	r1, r6, r7
  403bdc:	f040 8114 	bne.w	403e08 <_vfiprintf_r+0x4ac>
  403be0:	2c00      	cmp	r4, #0
  403be2:	f040 835c 	bne.w	40429e <_vfiprintf_r+0x942>
  403be6:	2a00      	cmp	r2, #0
  403be8:	f040 83b7 	bne.w	40435a <_vfiprintf_r+0x9fe>
  403bec:	f013 0301 	ands.w	r3, r3, #1
  403bf0:	9305      	str	r3, [sp, #20]
  403bf2:	f000 8457 	beq.w	4044a4 <_vfiprintf_r+0xb48>
  403bf6:	f10d 0bb0 	add.w	fp, sp, #176	; 0xb0
  403bfa:	2330      	movs	r3, #48	; 0x30
  403bfc:	f80b 3d41 	strb.w	r3, [fp, #-65]!
  403c00:	9b05      	ldr	r3, [sp, #20]
  403c02:	42a3      	cmp	r3, r4
  403c04:	bfb8      	it	lt
  403c06:	4623      	movlt	r3, r4
  403c08:	9301      	str	r3, [sp, #4]
  403c0a:	b10d      	cbz	r5, 403c10 <_vfiprintf_r+0x2b4>
  403c0c:	3301      	adds	r3, #1
  403c0e:	9301      	str	r3, [sp, #4]
  403c10:	9b02      	ldr	r3, [sp, #8]
  403c12:	f013 0302 	ands.w	r3, r3, #2
  403c16:	9309      	str	r3, [sp, #36]	; 0x24
  403c18:	d002      	beq.n	403c20 <_vfiprintf_r+0x2c4>
  403c1a:	9b01      	ldr	r3, [sp, #4]
  403c1c:	3302      	adds	r3, #2
  403c1e:	9301      	str	r3, [sp, #4]
  403c20:	9b02      	ldr	r3, [sp, #8]
  403c22:	f013 0384 	ands.w	r3, r3, #132	; 0x84
  403c26:	930a      	str	r3, [sp, #40]	; 0x28
  403c28:	f040 8217 	bne.w	40405a <_vfiprintf_r+0x6fe>
  403c2c:	9b08      	ldr	r3, [sp, #32]
  403c2e:	9a01      	ldr	r2, [sp, #4]
  403c30:	1a9d      	subs	r5, r3, r2
  403c32:	2d00      	cmp	r5, #0
  403c34:	f340 8211 	ble.w	40405a <_vfiprintf_r+0x6fe>
  403c38:	2d10      	cmp	r5, #16
  403c3a:	f340 8490 	ble.w	40455e <_vfiprintf_r+0xc02>
  403c3e:	9b10      	ldr	r3, [sp, #64]	; 0x40
  403c40:	9a11      	ldr	r2, [sp, #68]	; 0x44
  403c42:	4ec4      	ldr	r6, [pc, #784]	; (403f54 <_vfiprintf_r+0x5f8>)
  403c44:	46d6      	mov	lr, sl
  403c46:	2710      	movs	r7, #16
  403c48:	46a2      	mov	sl, r4
  403c4a:	4619      	mov	r1, r3
  403c4c:	9c06      	ldr	r4, [sp, #24]
  403c4e:	e007      	b.n	403c60 <_vfiprintf_r+0x304>
  403c50:	f101 0c02 	add.w	ip, r1, #2
  403c54:	f10e 0e08 	add.w	lr, lr, #8
  403c58:	4601      	mov	r1, r0
  403c5a:	3d10      	subs	r5, #16
  403c5c:	2d10      	cmp	r5, #16
  403c5e:	dd11      	ble.n	403c84 <_vfiprintf_r+0x328>
  403c60:	1c48      	adds	r0, r1, #1
  403c62:	3210      	adds	r2, #16
  403c64:	2807      	cmp	r0, #7
  403c66:	9211      	str	r2, [sp, #68]	; 0x44
  403c68:	e88e 00c0 	stmia.w	lr, {r6, r7}
  403c6c:	9010      	str	r0, [sp, #64]	; 0x40
  403c6e:	ddef      	ble.n	403c50 <_vfiprintf_r+0x2f4>
  403c70:	2a00      	cmp	r2, #0
  403c72:	f040 81e4 	bne.w	40403e <_vfiprintf_r+0x6e2>
  403c76:	3d10      	subs	r5, #16
  403c78:	2d10      	cmp	r5, #16
  403c7a:	4611      	mov	r1, r2
  403c7c:	f04f 0c01 	mov.w	ip, #1
  403c80:	46ce      	mov	lr, r9
  403c82:	dced      	bgt.n	403c60 <_vfiprintf_r+0x304>
  403c84:	4654      	mov	r4, sl
  403c86:	4661      	mov	r1, ip
  403c88:	46f2      	mov	sl, lr
  403c8a:	442a      	add	r2, r5
  403c8c:	2907      	cmp	r1, #7
  403c8e:	9211      	str	r2, [sp, #68]	; 0x44
  403c90:	f8ca 6000 	str.w	r6, [sl]
  403c94:	f8ca 5004 	str.w	r5, [sl, #4]
  403c98:	9110      	str	r1, [sp, #64]	; 0x40
  403c9a:	f300 82ec 	bgt.w	404276 <_vfiprintf_r+0x91a>
  403c9e:	f89d 5037 	ldrb.w	r5, [sp, #55]	; 0x37
  403ca2:	f10a 0a08 	add.w	sl, sl, #8
  403ca6:	1c48      	adds	r0, r1, #1
  403ca8:	2d00      	cmp	r5, #0
  403caa:	f040 81de 	bne.w	40406a <_vfiprintf_r+0x70e>
  403cae:	9b09      	ldr	r3, [sp, #36]	; 0x24
  403cb0:	2b00      	cmp	r3, #0
  403cb2:	f000 81f8 	beq.w	4040a6 <_vfiprintf_r+0x74a>
  403cb6:	3202      	adds	r2, #2
  403cb8:	a90e      	add	r1, sp, #56	; 0x38
  403cba:	2302      	movs	r3, #2
  403cbc:	2807      	cmp	r0, #7
  403cbe:	9211      	str	r2, [sp, #68]	; 0x44
  403cc0:	9010      	str	r0, [sp, #64]	; 0x40
  403cc2:	e88a 000a 	stmia.w	sl, {r1, r3}
  403cc6:	f340 81ea 	ble.w	40409e <_vfiprintf_r+0x742>
  403cca:	2a00      	cmp	r2, #0
  403ccc:	f040 838c 	bne.w	4043e8 <_vfiprintf_r+0xa8c>
  403cd0:	9b0a      	ldr	r3, [sp, #40]	; 0x28
  403cd2:	2b80      	cmp	r3, #128	; 0x80
  403cd4:	f04f 0001 	mov.w	r0, #1
  403cd8:	4611      	mov	r1, r2
  403cda:	46ca      	mov	sl, r9
  403cdc:	f040 81e7 	bne.w	4040ae <_vfiprintf_r+0x752>
  403ce0:	9b08      	ldr	r3, [sp, #32]
  403ce2:	9d01      	ldr	r5, [sp, #4]
  403ce4:	1b5e      	subs	r6, r3, r5
  403ce6:	2e00      	cmp	r6, #0
  403ce8:	f340 81e1 	ble.w	4040ae <_vfiprintf_r+0x752>
  403cec:	2e10      	cmp	r6, #16
  403cee:	4d9a      	ldr	r5, [pc, #616]	; (403f58 <_vfiprintf_r+0x5fc>)
  403cf0:	f340 8450 	ble.w	404594 <_vfiprintf_r+0xc38>
  403cf4:	46d4      	mov	ip, sl
  403cf6:	2710      	movs	r7, #16
  403cf8:	46a2      	mov	sl, r4
  403cfa:	9c06      	ldr	r4, [sp, #24]
  403cfc:	e007      	b.n	403d0e <_vfiprintf_r+0x3b2>
  403cfe:	f101 0e02 	add.w	lr, r1, #2
  403d02:	f10c 0c08 	add.w	ip, ip, #8
  403d06:	4601      	mov	r1, r0
  403d08:	3e10      	subs	r6, #16
  403d0a:	2e10      	cmp	r6, #16
  403d0c:	dd11      	ble.n	403d32 <_vfiprintf_r+0x3d6>
  403d0e:	1c48      	adds	r0, r1, #1
  403d10:	3210      	adds	r2, #16
  403d12:	2807      	cmp	r0, #7
  403d14:	9211      	str	r2, [sp, #68]	; 0x44
  403d16:	e88c 00a0 	stmia.w	ip, {r5, r7}
  403d1a:	9010      	str	r0, [sp, #64]	; 0x40
  403d1c:	ddef      	ble.n	403cfe <_vfiprintf_r+0x3a2>
  403d1e:	2a00      	cmp	r2, #0
  403d20:	f040 829d 	bne.w	40425e <_vfiprintf_r+0x902>
  403d24:	3e10      	subs	r6, #16
  403d26:	2e10      	cmp	r6, #16
  403d28:	f04f 0e01 	mov.w	lr, #1
  403d2c:	4611      	mov	r1, r2
  403d2e:	46cc      	mov	ip, r9
  403d30:	dced      	bgt.n	403d0e <_vfiprintf_r+0x3b2>
  403d32:	4654      	mov	r4, sl
  403d34:	46e2      	mov	sl, ip
  403d36:	4432      	add	r2, r6
  403d38:	f1be 0f07 	cmp.w	lr, #7
  403d3c:	9211      	str	r2, [sp, #68]	; 0x44
  403d3e:	e88a 0060 	stmia.w	sl, {r5, r6}
  403d42:	f8cd e040 	str.w	lr, [sp, #64]	; 0x40
  403d46:	f300 8369 	bgt.w	40441c <_vfiprintf_r+0xac0>
  403d4a:	f10a 0a08 	add.w	sl, sl, #8
  403d4e:	f10e 0001 	add.w	r0, lr, #1
  403d52:	4671      	mov	r1, lr
  403d54:	e1ab      	b.n	4040ae <_vfiprintf_r+0x752>
  403d56:	9608      	str	r6, [sp, #32]
  403d58:	f013 0220 	ands.w	r2, r3, #32
  403d5c:	f040 838c 	bne.w	404478 <_vfiprintf_r+0xb1c>
  403d60:	f013 0110 	ands.w	r1, r3, #16
  403d64:	f040 831a 	bne.w	40439c <_vfiprintf_r+0xa40>
  403d68:	f013 0240 	ands.w	r2, r3, #64	; 0x40
  403d6c:	f000 8316 	beq.w	40439c <_vfiprintf_r+0xa40>
  403d70:	9807      	ldr	r0, [sp, #28]
  403d72:	460a      	mov	r2, r1
  403d74:	4601      	mov	r1, r0
  403d76:	3104      	adds	r1, #4
  403d78:	8806      	ldrh	r6, [r0, #0]
  403d7a:	9107      	str	r1, [sp, #28]
  403d7c:	2700      	movs	r7, #0
  403d7e:	e720      	b.n	403bc2 <_vfiprintf_r+0x266>
  403d80:	9608      	str	r6, [sp, #32]
  403d82:	f043 0310 	orr.w	r3, r3, #16
  403d86:	e7e7      	b.n	403d58 <_vfiprintf_r+0x3fc>
  403d88:	9608      	str	r6, [sp, #32]
  403d8a:	f043 0310 	orr.w	r3, r3, #16
  403d8e:	e708      	b.n	403ba2 <_vfiprintf_r+0x246>
  403d90:	f043 0380 	orr.w	r3, r3, #128	; 0x80
  403d94:	f898 2000 	ldrb.w	r2, [r8]
  403d98:	e652      	b.n	403a40 <_vfiprintf_r+0xe4>
  403d9a:	f1a2 0130 	sub.w	r1, r2, #48	; 0x30
  403d9e:	2600      	movs	r6, #0
  403da0:	f818 2b01 	ldrb.w	r2, [r8], #1
  403da4:	eb06 0686 	add.w	r6, r6, r6, lsl #2
  403da8:	eb01 0646 	add.w	r6, r1, r6, lsl #1
  403dac:	f1a2 0130 	sub.w	r1, r2, #48	; 0x30
  403db0:	2909      	cmp	r1, #9
  403db2:	d9f5      	bls.n	403da0 <_vfiprintf_r+0x444>
  403db4:	e646      	b.n	403a44 <_vfiprintf_r+0xe8>
  403db6:	9608      	str	r6, [sp, #32]
  403db8:	2800      	cmp	r0, #0
  403dba:	f040 8408 	bne.w	4045ce <_vfiprintf_r+0xc72>
  403dbe:	f043 0310 	orr.w	r3, r3, #16
  403dc2:	069e      	lsls	r6, r3, #26
  403dc4:	f100 834c 	bmi.w	404460 <_vfiprintf_r+0xb04>
  403dc8:	06dd      	lsls	r5, r3, #27
  403dca:	f100 82f3 	bmi.w	4043b4 <_vfiprintf_r+0xa58>
  403dce:	0658      	lsls	r0, r3, #25
  403dd0:	f140 82f0 	bpl.w	4043b4 <_vfiprintf_r+0xa58>
  403dd4:	9d07      	ldr	r5, [sp, #28]
  403dd6:	f9b5 6000 	ldrsh.w	r6, [r5]
  403dda:	462a      	mov	r2, r5
  403ddc:	17f7      	asrs	r7, r6, #31
  403dde:	3204      	adds	r2, #4
  403de0:	4630      	mov	r0, r6
  403de2:	4639      	mov	r1, r7
  403de4:	9207      	str	r2, [sp, #28]
  403de6:	2800      	cmp	r0, #0
  403de8:	f171 0200 	sbcs.w	r2, r1, #0
  403dec:	f2c0 835d 	blt.w	4044aa <_vfiprintf_r+0xb4e>
  403df0:	1c61      	adds	r1, r4, #1
  403df2:	f89d 5037 	ldrb.w	r5, [sp, #55]	; 0x37
  403df6:	f04f 0201 	mov.w	r2, #1
  403dfa:	f47f aeea 	bne.w	403bd2 <_vfiprintf_r+0x276>
  403dfe:	ea56 0107 	orrs.w	r1, r6, r7
  403e02:	f000 824d 	beq.w	4042a0 <_vfiprintf_r+0x944>
  403e06:	9302      	str	r3, [sp, #8]
  403e08:	2a01      	cmp	r2, #1
  403e0a:	f000 828c 	beq.w	404326 <_vfiprintf_r+0x9ca>
  403e0e:	2a02      	cmp	r2, #2
  403e10:	f040 825c 	bne.w	4042cc <_vfiprintf_r+0x970>
  403e14:	980b      	ldr	r0, [sp, #44]	; 0x2c
  403e16:	46cb      	mov	fp, r9
  403e18:	0933      	lsrs	r3, r6, #4
  403e1a:	f006 010f 	and.w	r1, r6, #15
  403e1e:	ea43 7307 	orr.w	r3, r3, r7, lsl #28
  403e22:	093a      	lsrs	r2, r7, #4
  403e24:	461e      	mov	r6, r3
  403e26:	4617      	mov	r7, r2
  403e28:	5c43      	ldrb	r3, [r0, r1]
  403e2a:	f80b 3d01 	strb.w	r3, [fp, #-1]!
  403e2e:	ea56 0307 	orrs.w	r3, r6, r7
  403e32:	d1f1      	bne.n	403e18 <_vfiprintf_r+0x4bc>
  403e34:	eba9 030b 	sub.w	r3, r9, fp
  403e38:	9305      	str	r3, [sp, #20]
  403e3a:	e6e1      	b.n	403c00 <_vfiprintf_r+0x2a4>
  403e3c:	2800      	cmp	r0, #0
  403e3e:	f040 83c0 	bne.w	4045c2 <_vfiprintf_r+0xc66>
  403e42:	0699      	lsls	r1, r3, #26
  403e44:	f100 8367 	bmi.w	404516 <_vfiprintf_r+0xbba>
  403e48:	06da      	lsls	r2, r3, #27
  403e4a:	f100 80f1 	bmi.w	404030 <_vfiprintf_r+0x6d4>
  403e4e:	065b      	lsls	r3, r3, #25
  403e50:	f140 80ee 	bpl.w	404030 <_vfiprintf_r+0x6d4>
  403e54:	9a07      	ldr	r2, [sp, #28]
  403e56:	6813      	ldr	r3, [r2, #0]
  403e58:	3204      	adds	r2, #4
  403e5a:	9207      	str	r2, [sp, #28]
  403e5c:	f8bd 200c 	ldrh.w	r2, [sp, #12]
  403e60:	801a      	strh	r2, [r3, #0]
  403e62:	e5b8      	b.n	4039d6 <_vfiprintf_r+0x7a>
  403e64:	9807      	ldr	r0, [sp, #28]
  403e66:	4a3d      	ldr	r2, [pc, #244]	; (403f5c <_vfiprintf_r+0x600>)
  403e68:	9608      	str	r6, [sp, #32]
  403e6a:	920b      	str	r2, [sp, #44]	; 0x2c
  403e6c:	6806      	ldr	r6, [r0, #0]
  403e6e:	2278      	movs	r2, #120	; 0x78
  403e70:	2130      	movs	r1, #48	; 0x30
  403e72:	3004      	adds	r0, #4
  403e74:	f88d 2039 	strb.w	r2, [sp, #57]	; 0x39
  403e78:	f043 0302 	orr.w	r3, r3, #2
  403e7c:	9007      	str	r0, [sp, #28]
  403e7e:	2700      	movs	r7, #0
  403e80:	f88d 1038 	strb.w	r1, [sp, #56]	; 0x38
  403e84:	2202      	movs	r2, #2
  403e86:	e69c      	b.n	403bc2 <_vfiprintf_r+0x266>
  403e88:	9608      	str	r6, [sp, #32]
  403e8a:	2800      	cmp	r0, #0
  403e8c:	d099      	beq.n	403dc2 <_vfiprintf_r+0x466>
  403e8e:	f88d 5037 	strb.w	r5, [sp, #55]	; 0x37
  403e92:	e796      	b.n	403dc2 <_vfiprintf_r+0x466>
  403e94:	f898 2000 	ldrb.w	r2, [r8]
  403e98:	2d00      	cmp	r5, #0
  403e9a:	f47f add1 	bne.w	403a40 <_vfiprintf_r+0xe4>
  403e9e:	2001      	movs	r0, #1
  403ea0:	2520      	movs	r5, #32
  403ea2:	e5cd      	b.n	403a40 <_vfiprintf_r+0xe4>
  403ea4:	f043 0301 	orr.w	r3, r3, #1
  403ea8:	f898 2000 	ldrb.w	r2, [r8]
  403eac:	e5c8      	b.n	403a40 <_vfiprintf_r+0xe4>
  403eae:	9608      	str	r6, [sp, #32]
  403eb0:	2800      	cmp	r0, #0
  403eb2:	f040 8393 	bne.w	4045dc <_vfiprintf_r+0xc80>
  403eb6:	4929      	ldr	r1, [pc, #164]	; (403f5c <_vfiprintf_r+0x600>)
  403eb8:	910b      	str	r1, [sp, #44]	; 0x2c
  403eba:	069f      	lsls	r7, r3, #26
  403ebc:	f100 82e8 	bmi.w	404490 <_vfiprintf_r+0xb34>
  403ec0:	9807      	ldr	r0, [sp, #28]
  403ec2:	06de      	lsls	r6, r3, #27
  403ec4:	4601      	mov	r1, r0
  403ec6:	f100 8270 	bmi.w	4043aa <_vfiprintf_r+0xa4e>
  403eca:	065d      	lsls	r5, r3, #25
  403ecc:	f140 826d 	bpl.w	4043aa <_vfiprintf_r+0xa4e>
  403ed0:	3104      	adds	r1, #4
  403ed2:	8806      	ldrh	r6, [r0, #0]
  403ed4:	9107      	str	r1, [sp, #28]
  403ed6:	2700      	movs	r7, #0
  403ed8:	07d8      	lsls	r0, r3, #31
  403eda:	f140 8222 	bpl.w	404322 <_vfiprintf_r+0x9c6>
  403ede:	ea56 0107 	orrs.w	r1, r6, r7
  403ee2:	f000 821e 	beq.w	404322 <_vfiprintf_r+0x9c6>
  403ee6:	2130      	movs	r1, #48	; 0x30
  403ee8:	f88d 2039 	strb.w	r2, [sp, #57]	; 0x39
  403eec:	f043 0302 	orr.w	r3, r3, #2
  403ef0:	f88d 1038 	strb.w	r1, [sp, #56]	; 0x38
  403ef4:	2202      	movs	r2, #2
  403ef6:	e664      	b.n	403bc2 <_vfiprintf_r+0x266>
  403ef8:	9608      	str	r6, [sp, #32]
  403efa:	2800      	cmp	r0, #0
  403efc:	f040 836b 	bne.w	4045d6 <_vfiprintf_r+0xc7a>
  403f00:	4917      	ldr	r1, [pc, #92]	; (403f60 <_vfiprintf_r+0x604>)
  403f02:	910b      	str	r1, [sp, #44]	; 0x2c
  403f04:	e7d9      	b.n	403eba <_vfiprintf_r+0x55e>
  403f06:	9907      	ldr	r1, [sp, #28]
  403f08:	9608      	str	r6, [sp, #32]
  403f0a:	680a      	ldr	r2, [r1, #0]
  403f0c:	f88d 2048 	strb.w	r2, [sp, #72]	; 0x48
  403f10:	f04f 0000 	mov.w	r0, #0
  403f14:	460a      	mov	r2, r1
  403f16:	f88d 0037 	strb.w	r0, [sp, #55]	; 0x37
  403f1a:	3204      	adds	r2, #4
  403f1c:	2001      	movs	r0, #1
  403f1e:	9001      	str	r0, [sp, #4]
  403f20:	9207      	str	r2, [sp, #28]
  403f22:	9005      	str	r0, [sp, #20]
  403f24:	f10d 0b48 	add.w	fp, sp, #72	; 0x48
  403f28:	9302      	str	r3, [sp, #8]
  403f2a:	2400      	movs	r4, #0
  403f2c:	e670      	b.n	403c10 <_vfiprintf_r+0x2b4>
  403f2e:	f043 0340 	orr.w	r3, r3, #64	; 0x40
  403f32:	f898 2000 	ldrb.w	r2, [r8]
  403f36:	e583      	b.n	403a40 <_vfiprintf_r+0xe4>
  403f38:	f898 2000 	ldrb.w	r2, [r8]
  403f3c:	2a6c      	cmp	r2, #108	; 0x6c
  403f3e:	bf03      	ittte	eq
  403f40:	f898 2001 	ldrbeq.w	r2, [r8, #1]
  403f44:	f043 0320 	orreq.w	r3, r3, #32
  403f48:	f108 0801 	addeq.w	r8, r8, #1
  403f4c:	f043 0310 	orrne.w	r3, r3, #16
  403f50:	e576      	b.n	403a40 <_vfiprintf_r+0xe4>
  403f52:	bf00      	nop
  403f54:	00405f14 	.word	0x00405f14
  403f58:	00405f24 	.word	0x00405f24
  403f5c:	00405ef8 	.word	0x00405ef8
  403f60:	00405ee4 	.word	0x00405ee4
  403f64:	9907      	ldr	r1, [sp, #28]
  403f66:	680e      	ldr	r6, [r1, #0]
  403f68:	460a      	mov	r2, r1
  403f6a:	2e00      	cmp	r6, #0
  403f6c:	f102 0204 	add.w	r2, r2, #4
  403f70:	f6ff ae0f 	blt.w	403b92 <_vfiprintf_r+0x236>
  403f74:	9207      	str	r2, [sp, #28]
  403f76:	f898 2000 	ldrb.w	r2, [r8]
  403f7a:	e561      	b.n	403a40 <_vfiprintf_r+0xe4>
  403f7c:	f898 2000 	ldrb.w	r2, [r8]
  403f80:	2001      	movs	r0, #1
  403f82:	252b      	movs	r5, #43	; 0x2b
  403f84:	e55c      	b.n	403a40 <_vfiprintf_r+0xe4>
  403f86:	9907      	ldr	r1, [sp, #28]
  403f88:	9608      	str	r6, [sp, #32]
  403f8a:	f8d1 b000 	ldr.w	fp, [r1]
  403f8e:	f04f 0200 	mov.w	r2, #0
  403f92:	f88d 2037 	strb.w	r2, [sp, #55]	; 0x37
  403f96:	1d0e      	adds	r6, r1, #4
  403f98:	f1bb 0f00 	cmp.w	fp, #0
  403f9c:	f000 82e5 	beq.w	40456a <_vfiprintf_r+0xc0e>
  403fa0:	1c67      	adds	r7, r4, #1
  403fa2:	f000 82c4 	beq.w	40452e <_vfiprintf_r+0xbd2>
  403fa6:	4622      	mov	r2, r4
  403fa8:	2100      	movs	r1, #0
  403faa:	4658      	mov	r0, fp
  403fac:	9301      	str	r3, [sp, #4]
  403fae:	f001 f91f 	bl	4051f0 <memchr>
  403fb2:	9b01      	ldr	r3, [sp, #4]
  403fb4:	2800      	cmp	r0, #0
  403fb6:	f000 82e5 	beq.w	404584 <_vfiprintf_r+0xc28>
  403fba:	eba0 020b 	sub.w	r2, r0, fp
  403fbe:	9205      	str	r2, [sp, #20]
  403fc0:	9607      	str	r6, [sp, #28]
  403fc2:	9302      	str	r3, [sp, #8]
  403fc4:	f89d 5037 	ldrb.w	r5, [sp, #55]	; 0x37
  403fc8:	2400      	movs	r4, #0
  403fca:	e619      	b.n	403c00 <_vfiprintf_r+0x2a4>
  403fcc:	f898 2000 	ldrb.w	r2, [r8]
  403fd0:	2a2a      	cmp	r2, #42	; 0x2a
  403fd2:	f108 0701 	add.w	r7, r8, #1
  403fd6:	f000 82e9 	beq.w	4045ac <_vfiprintf_r+0xc50>
  403fda:	f1a2 0130 	sub.w	r1, r2, #48	; 0x30
  403fde:	2909      	cmp	r1, #9
  403fe0:	46b8      	mov	r8, r7
  403fe2:	f04f 0400 	mov.w	r4, #0
  403fe6:	f63f ad2d 	bhi.w	403a44 <_vfiprintf_r+0xe8>
  403fea:	f818 2b01 	ldrb.w	r2, [r8], #1
  403fee:	eb04 0484 	add.w	r4, r4, r4, lsl #2
  403ff2:	eb01 0444 	add.w	r4, r1, r4, lsl #1
  403ff6:	f1a2 0130 	sub.w	r1, r2, #48	; 0x30
  403ffa:	2909      	cmp	r1, #9
  403ffc:	d9f5      	bls.n	403fea <_vfiprintf_r+0x68e>
  403ffe:	e521      	b.n	403a44 <_vfiprintf_r+0xe8>
  404000:	f043 0320 	orr.w	r3, r3, #32
  404004:	f898 2000 	ldrb.w	r2, [r8]
  404008:	e51a      	b.n	403a40 <_vfiprintf_r+0xe4>
  40400a:	9608      	str	r6, [sp, #32]
  40400c:	2800      	cmp	r0, #0
  40400e:	f040 82db 	bne.w	4045c8 <_vfiprintf_r+0xc6c>
  404012:	2a00      	cmp	r2, #0
  404014:	f000 80e7 	beq.w	4041e6 <_vfiprintf_r+0x88a>
  404018:	2101      	movs	r1, #1
  40401a:	f88d 2048 	strb.w	r2, [sp, #72]	; 0x48
  40401e:	f04f 0200 	mov.w	r2, #0
  404022:	9101      	str	r1, [sp, #4]
  404024:	f88d 2037 	strb.w	r2, [sp, #55]	; 0x37
  404028:	9105      	str	r1, [sp, #20]
  40402a:	f10d 0b48 	add.w	fp, sp, #72	; 0x48
  40402e:	e77b      	b.n	403f28 <_vfiprintf_r+0x5cc>
  404030:	9a07      	ldr	r2, [sp, #28]
  404032:	6813      	ldr	r3, [r2, #0]
  404034:	3204      	adds	r2, #4
  404036:	9207      	str	r2, [sp, #28]
  404038:	9a03      	ldr	r2, [sp, #12]
  40403a:	601a      	str	r2, [r3, #0]
  40403c:	e4cb      	b.n	4039d6 <_vfiprintf_r+0x7a>
  40403e:	aa0f      	add	r2, sp, #60	; 0x3c
  404040:	9904      	ldr	r1, [sp, #16]
  404042:	4620      	mov	r0, r4
  404044:	f7ff fc4a 	bl	4038dc <__sprint_r.part.0>
  404048:	2800      	cmp	r0, #0
  40404a:	f040 8139 	bne.w	4042c0 <_vfiprintf_r+0x964>
  40404e:	9910      	ldr	r1, [sp, #64]	; 0x40
  404050:	9a11      	ldr	r2, [sp, #68]	; 0x44
  404052:	f101 0c01 	add.w	ip, r1, #1
  404056:	46ce      	mov	lr, r9
  404058:	e5ff      	b.n	403c5a <_vfiprintf_r+0x2fe>
  40405a:	9910      	ldr	r1, [sp, #64]	; 0x40
  40405c:	9a11      	ldr	r2, [sp, #68]	; 0x44
  40405e:	1c48      	adds	r0, r1, #1
  404060:	f89d 5037 	ldrb.w	r5, [sp, #55]	; 0x37
  404064:	2d00      	cmp	r5, #0
  404066:	f43f ae22 	beq.w	403cae <_vfiprintf_r+0x352>
  40406a:	3201      	adds	r2, #1
  40406c:	f10d 0537 	add.w	r5, sp, #55	; 0x37
  404070:	2101      	movs	r1, #1
  404072:	2807      	cmp	r0, #7
  404074:	9211      	str	r2, [sp, #68]	; 0x44
  404076:	9010      	str	r0, [sp, #64]	; 0x40
  404078:	f8ca 5000 	str.w	r5, [sl]
  40407c:	f8ca 1004 	str.w	r1, [sl, #4]
  404080:	f340 8108 	ble.w	404294 <_vfiprintf_r+0x938>
  404084:	2a00      	cmp	r2, #0
  404086:	f040 81bc 	bne.w	404402 <_vfiprintf_r+0xaa6>
  40408a:	9b09      	ldr	r3, [sp, #36]	; 0x24
  40408c:	2b00      	cmp	r3, #0
  40408e:	f43f ae1f 	beq.w	403cd0 <_vfiprintf_r+0x374>
  404092:	ab0e      	add	r3, sp, #56	; 0x38
  404094:	2202      	movs	r2, #2
  404096:	4608      	mov	r0, r1
  404098:	931c      	str	r3, [sp, #112]	; 0x70
  40409a:	921d      	str	r2, [sp, #116]	; 0x74
  40409c:	46ca      	mov	sl, r9
  40409e:	4601      	mov	r1, r0
  4040a0:	f10a 0a08 	add.w	sl, sl, #8
  4040a4:	3001      	adds	r0, #1
  4040a6:	9b0a      	ldr	r3, [sp, #40]	; 0x28
  4040a8:	2b80      	cmp	r3, #128	; 0x80
  4040aa:	f43f ae19 	beq.w	403ce0 <_vfiprintf_r+0x384>
  4040ae:	9b05      	ldr	r3, [sp, #20]
  4040b0:	1ae4      	subs	r4, r4, r3
  4040b2:	2c00      	cmp	r4, #0
  4040b4:	dd2e      	ble.n	404114 <_vfiprintf_r+0x7b8>
  4040b6:	2c10      	cmp	r4, #16
  4040b8:	4db3      	ldr	r5, [pc, #716]	; (404388 <_vfiprintf_r+0xa2c>)
  4040ba:	dd1e      	ble.n	4040fa <_vfiprintf_r+0x79e>
  4040bc:	46d6      	mov	lr, sl
  4040be:	2610      	movs	r6, #16
  4040c0:	9f06      	ldr	r7, [sp, #24]
  4040c2:	f8dd a010 	ldr.w	sl, [sp, #16]
  4040c6:	e006      	b.n	4040d6 <_vfiprintf_r+0x77a>
  4040c8:	1c88      	adds	r0, r1, #2
  4040ca:	f10e 0e08 	add.w	lr, lr, #8
  4040ce:	4619      	mov	r1, r3
  4040d0:	3c10      	subs	r4, #16
  4040d2:	2c10      	cmp	r4, #16
  4040d4:	dd10      	ble.n	4040f8 <_vfiprintf_r+0x79c>
  4040d6:	1c4b      	adds	r3, r1, #1
  4040d8:	3210      	adds	r2, #16
  4040da:	2b07      	cmp	r3, #7
  4040dc:	9211      	str	r2, [sp, #68]	; 0x44
  4040de:	e88e 0060 	stmia.w	lr, {r5, r6}
  4040e2:	9310      	str	r3, [sp, #64]	; 0x40
  4040e4:	ddf0      	ble.n	4040c8 <_vfiprintf_r+0x76c>
  4040e6:	2a00      	cmp	r2, #0
  4040e8:	d165      	bne.n	4041b6 <_vfiprintf_r+0x85a>
  4040ea:	3c10      	subs	r4, #16
  4040ec:	2c10      	cmp	r4, #16
  4040ee:	f04f 0001 	mov.w	r0, #1
  4040f2:	4611      	mov	r1, r2
  4040f4:	46ce      	mov	lr, r9
  4040f6:	dcee      	bgt.n	4040d6 <_vfiprintf_r+0x77a>
  4040f8:	46f2      	mov	sl, lr
  4040fa:	4422      	add	r2, r4
  4040fc:	2807      	cmp	r0, #7
  4040fe:	9211      	str	r2, [sp, #68]	; 0x44
  404100:	f8ca 5000 	str.w	r5, [sl]
  404104:	f8ca 4004 	str.w	r4, [sl, #4]
  404108:	9010      	str	r0, [sp, #64]	; 0x40
  40410a:	f300 8085 	bgt.w	404218 <_vfiprintf_r+0x8bc>
  40410e:	f10a 0a08 	add.w	sl, sl, #8
  404112:	3001      	adds	r0, #1
  404114:	9905      	ldr	r1, [sp, #20]
  404116:	f8ca b000 	str.w	fp, [sl]
  40411a:	440a      	add	r2, r1
  40411c:	2807      	cmp	r0, #7
  40411e:	9211      	str	r2, [sp, #68]	; 0x44
  404120:	f8ca 1004 	str.w	r1, [sl, #4]
  404124:	9010      	str	r0, [sp, #64]	; 0x40
  404126:	f340 8082 	ble.w	40422e <_vfiprintf_r+0x8d2>
  40412a:	2a00      	cmp	r2, #0
  40412c:	f040 8118 	bne.w	404360 <_vfiprintf_r+0xa04>
  404130:	9b02      	ldr	r3, [sp, #8]
  404132:	9210      	str	r2, [sp, #64]	; 0x40
  404134:	0758      	lsls	r0, r3, #29
  404136:	d535      	bpl.n	4041a4 <_vfiprintf_r+0x848>
  404138:	9b08      	ldr	r3, [sp, #32]
  40413a:	9901      	ldr	r1, [sp, #4]
  40413c:	1a5c      	subs	r4, r3, r1
  40413e:	2c00      	cmp	r4, #0
  404140:	f340 80e7 	ble.w	404312 <_vfiprintf_r+0x9b6>
  404144:	46ca      	mov	sl, r9
  404146:	2c10      	cmp	r4, #16
  404148:	f340 8218 	ble.w	40457c <_vfiprintf_r+0xc20>
  40414c:	9910      	ldr	r1, [sp, #64]	; 0x40
  40414e:	4e8f      	ldr	r6, [pc, #572]	; (40438c <_vfiprintf_r+0xa30>)
  404150:	9f06      	ldr	r7, [sp, #24]
  404152:	f8dd b010 	ldr.w	fp, [sp, #16]
  404156:	2510      	movs	r5, #16
  404158:	e006      	b.n	404168 <_vfiprintf_r+0x80c>
  40415a:	1c88      	adds	r0, r1, #2
  40415c:	f10a 0a08 	add.w	sl, sl, #8
  404160:	4619      	mov	r1, r3
  404162:	3c10      	subs	r4, #16
  404164:	2c10      	cmp	r4, #16
  404166:	dd11      	ble.n	40418c <_vfiprintf_r+0x830>
  404168:	1c4b      	adds	r3, r1, #1
  40416a:	3210      	adds	r2, #16
  40416c:	2b07      	cmp	r3, #7
  40416e:	9211      	str	r2, [sp, #68]	; 0x44
  404170:	f8ca 6000 	str.w	r6, [sl]
  404174:	f8ca 5004 	str.w	r5, [sl, #4]
  404178:	9310      	str	r3, [sp, #64]	; 0x40
  40417a:	ddee      	ble.n	40415a <_vfiprintf_r+0x7fe>
  40417c:	bb42      	cbnz	r2, 4041d0 <_vfiprintf_r+0x874>
  40417e:	3c10      	subs	r4, #16
  404180:	2c10      	cmp	r4, #16
  404182:	f04f 0001 	mov.w	r0, #1
  404186:	4611      	mov	r1, r2
  404188:	46ca      	mov	sl, r9
  40418a:	dced      	bgt.n	404168 <_vfiprintf_r+0x80c>
  40418c:	4422      	add	r2, r4
  40418e:	2807      	cmp	r0, #7
  404190:	9211      	str	r2, [sp, #68]	; 0x44
  404192:	f8ca 6000 	str.w	r6, [sl]
  404196:	f8ca 4004 	str.w	r4, [sl, #4]
  40419a:	9010      	str	r0, [sp, #64]	; 0x40
  40419c:	dd51      	ble.n	404242 <_vfiprintf_r+0x8e6>
  40419e:	2a00      	cmp	r2, #0
  4041a0:	f040 819b 	bne.w	4044da <_vfiprintf_r+0xb7e>
  4041a4:	9b03      	ldr	r3, [sp, #12]
  4041a6:	9a08      	ldr	r2, [sp, #32]
  4041a8:	9901      	ldr	r1, [sp, #4]
  4041aa:	428a      	cmp	r2, r1
  4041ac:	bfac      	ite	ge
  4041ae:	189b      	addge	r3, r3, r2
  4041b0:	185b      	addlt	r3, r3, r1
  4041b2:	9303      	str	r3, [sp, #12]
  4041b4:	e04e      	b.n	404254 <_vfiprintf_r+0x8f8>
  4041b6:	aa0f      	add	r2, sp, #60	; 0x3c
  4041b8:	4651      	mov	r1, sl
  4041ba:	4638      	mov	r0, r7
  4041bc:	f7ff fb8e 	bl	4038dc <__sprint_r.part.0>
  4041c0:	2800      	cmp	r0, #0
  4041c2:	f040 813f 	bne.w	404444 <_vfiprintf_r+0xae8>
  4041c6:	9910      	ldr	r1, [sp, #64]	; 0x40
  4041c8:	9a11      	ldr	r2, [sp, #68]	; 0x44
  4041ca:	1c48      	adds	r0, r1, #1
  4041cc:	46ce      	mov	lr, r9
  4041ce:	e77f      	b.n	4040d0 <_vfiprintf_r+0x774>
  4041d0:	aa0f      	add	r2, sp, #60	; 0x3c
  4041d2:	4659      	mov	r1, fp
  4041d4:	4638      	mov	r0, r7
  4041d6:	f7ff fb81 	bl	4038dc <__sprint_r.part.0>
  4041da:	b960      	cbnz	r0, 4041f6 <_vfiprintf_r+0x89a>
  4041dc:	9910      	ldr	r1, [sp, #64]	; 0x40
  4041de:	9a11      	ldr	r2, [sp, #68]	; 0x44
  4041e0:	1c48      	adds	r0, r1, #1
  4041e2:	46ca      	mov	sl, r9
  4041e4:	e7bd      	b.n	404162 <_vfiprintf_r+0x806>
  4041e6:	9b11      	ldr	r3, [sp, #68]	; 0x44
  4041e8:	f8dd b010 	ldr.w	fp, [sp, #16]
  4041ec:	2b00      	cmp	r3, #0
  4041ee:	f040 81d4 	bne.w	40459a <_vfiprintf_r+0xc3e>
  4041f2:	2300      	movs	r3, #0
  4041f4:	9310      	str	r3, [sp, #64]	; 0x40
  4041f6:	f8db 3064 	ldr.w	r3, [fp, #100]	; 0x64
  4041fa:	f013 0f01 	tst.w	r3, #1
  4041fe:	f8bb 300c 	ldrh.w	r3, [fp, #12]
  404202:	d102      	bne.n	40420a <_vfiprintf_r+0x8ae>
  404204:	059a      	lsls	r2, r3, #22
  404206:	f140 80de 	bpl.w	4043c6 <_vfiprintf_r+0xa6a>
  40420a:	065b      	lsls	r3, r3, #25
  40420c:	f53f acb2 	bmi.w	403b74 <_vfiprintf_r+0x218>
  404210:	9803      	ldr	r0, [sp, #12]
  404212:	b02d      	add	sp, #180	; 0xb4
  404214:	e8bd 8ff0 	ldmia.w	sp!, {r4, r5, r6, r7, r8, r9, sl, fp, pc}
  404218:	2a00      	cmp	r2, #0
  40421a:	f040 8106 	bne.w	40442a <_vfiprintf_r+0xace>
  40421e:	9a05      	ldr	r2, [sp, #20]
  404220:	921d      	str	r2, [sp, #116]	; 0x74
  404222:	2301      	movs	r3, #1
  404224:	9211      	str	r2, [sp, #68]	; 0x44
  404226:	f8cd b070 	str.w	fp, [sp, #112]	; 0x70
  40422a:	9310      	str	r3, [sp, #64]	; 0x40
  40422c:	46ca      	mov	sl, r9
  40422e:	f10a 0a08 	add.w	sl, sl, #8
  404232:	9b02      	ldr	r3, [sp, #8]
  404234:	0759      	lsls	r1, r3, #29
  404236:	d504      	bpl.n	404242 <_vfiprintf_r+0x8e6>
  404238:	9b08      	ldr	r3, [sp, #32]
  40423a:	9901      	ldr	r1, [sp, #4]
  40423c:	1a5c      	subs	r4, r3, r1
  40423e:	2c00      	cmp	r4, #0
  404240:	dc81      	bgt.n	404146 <_vfiprintf_r+0x7ea>
  404242:	9b03      	ldr	r3, [sp, #12]
  404244:	9908      	ldr	r1, [sp, #32]
  404246:	9801      	ldr	r0, [sp, #4]
  404248:	4281      	cmp	r1, r0
  40424a:	bfac      	ite	ge
  40424c:	185b      	addge	r3, r3, r1
  40424e:	181b      	addlt	r3, r3, r0
  404250:	9303      	str	r3, [sp, #12]
  404252:	bb72      	cbnz	r2, 4042b2 <_vfiprintf_r+0x956>
  404254:	2300      	movs	r3, #0
  404256:	9310      	str	r3, [sp, #64]	; 0x40
  404258:	46ca      	mov	sl, r9
  40425a:	f7ff bbbc 	b.w	4039d6 <_vfiprintf_r+0x7a>
  40425e:	aa0f      	add	r2, sp, #60	; 0x3c
  404260:	9904      	ldr	r1, [sp, #16]
  404262:	4620      	mov	r0, r4
  404264:	f7ff fb3a 	bl	4038dc <__sprint_r.part.0>
  404268:	bb50      	cbnz	r0, 4042c0 <_vfiprintf_r+0x964>
  40426a:	9910      	ldr	r1, [sp, #64]	; 0x40
  40426c:	9a11      	ldr	r2, [sp, #68]	; 0x44
  40426e:	f101 0e01 	add.w	lr, r1, #1
  404272:	46cc      	mov	ip, r9
  404274:	e548      	b.n	403d08 <_vfiprintf_r+0x3ac>
  404276:	2a00      	cmp	r2, #0
  404278:	f040 8140 	bne.w	4044fc <_vfiprintf_r+0xba0>
  40427c:	f89d 1037 	ldrb.w	r1, [sp, #55]	; 0x37
  404280:	2900      	cmp	r1, #0
  404282:	f000 811b 	beq.w	4044bc <_vfiprintf_r+0xb60>
  404286:	2201      	movs	r2, #1
  404288:	f10d 0137 	add.w	r1, sp, #55	; 0x37
  40428c:	4610      	mov	r0, r2
  40428e:	921d      	str	r2, [sp, #116]	; 0x74
  404290:	911c      	str	r1, [sp, #112]	; 0x70
  404292:	46ca      	mov	sl, r9
  404294:	4601      	mov	r1, r0
  404296:	f10a 0a08 	add.w	sl, sl, #8
  40429a:	3001      	adds	r0, #1
  40429c:	e507      	b.n	403cae <_vfiprintf_r+0x352>
  40429e:	9b02      	ldr	r3, [sp, #8]
  4042a0:	2a01      	cmp	r2, #1
  4042a2:	f000 8098 	beq.w	4043d6 <_vfiprintf_r+0xa7a>
  4042a6:	2a02      	cmp	r2, #2
  4042a8:	d10d      	bne.n	4042c6 <_vfiprintf_r+0x96a>
  4042aa:	9302      	str	r3, [sp, #8]
  4042ac:	2600      	movs	r6, #0
  4042ae:	2700      	movs	r7, #0
  4042b0:	e5b0      	b.n	403e14 <_vfiprintf_r+0x4b8>
  4042b2:	aa0f      	add	r2, sp, #60	; 0x3c
  4042b4:	9904      	ldr	r1, [sp, #16]
  4042b6:	9806      	ldr	r0, [sp, #24]
  4042b8:	f7ff fb10 	bl	4038dc <__sprint_r.part.0>
  4042bc:	2800      	cmp	r0, #0
  4042be:	d0c9      	beq.n	404254 <_vfiprintf_r+0x8f8>
  4042c0:	f8dd b010 	ldr.w	fp, [sp, #16]
  4042c4:	e797      	b.n	4041f6 <_vfiprintf_r+0x89a>
  4042c6:	9302      	str	r3, [sp, #8]
  4042c8:	2600      	movs	r6, #0
  4042ca:	2700      	movs	r7, #0
  4042cc:	4649      	mov	r1, r9
  4042ce:	e000      	b.n	4042d2 <_vfiprintf_r+0x976>
  4042d0:	4659      	mov	r1, fp
  4042d2:	08f2      	lsrs	r2, r6, #3
  4042d4:	ea42 7247 	orr.w	r2, r2, r7, lsl #29
  4042d8:	08f8      	lsrs	r0, r7, #3
  4042da:	f006 0307 	and.w	r3, r6, #7
  4042de:	4607      	mov	r7, r0
  4042e0:	4616      	mov	r6, r2
  4042e2:	3330      	adds	r3, #48	; 0x30
  4042e4:	ea56 0207 	orrs.w	r2, r6, r7
  4042e8:	f801 3c01 	strb.w	r3, [r1, #-1]
  4042ec:	f101 3bff 	add.w	fp, r1, #4294967295
  4042f0:	d1ee      	bne.n	4042d0 <_vfiprintf_r+0x974>
  4042f2:	9a02      	ldr	r2, [sp, #8]
  4042f4:	07d6      	lsls	r6, r2, #31
  4042f6:	f57f ad9d 	bpl.w	403e34 <_vfiprintf_r+0x4d8>
  4042fa:	2b30      	cmp	r3, #48	; 0x30
  4042fc:	f43f ad9a 	beq.w	403e34 <_vfiprintf_r+0x4d8>
  404300:	3902      	subs	r1, #2
  404302:	2330      	movs	r3, #48	; 0x30
  404304:	f80b 3c01 	strb.w	r3, [fp, #-1]
  404308:	eba9 0301 	sub.w	r3, r9, r1
  40430c:	9305      	str	r3, [sp, #20]
  40430e:	468b      	mov	fp, r1
  404310:	e476      	b.n	403c00 <_vfiprintf_r+0x2a4>
  404312:	9b03      	ldr	r3, [sp, #12]
  404314:	9a08      	ldr	r2, [sp, #32]
  404316:	428a      	cmp	r2, r1
  404318:	bfac      	ite	ge
  40431a:	189b      	addge	r3, r3, r2
  40431c:	185b      	addlt	r3, r3, r1
  40431e:	9303      	str	r3, [sp, #12]
  404320:	e798      	b.n	404254 <_vfiprintf_r+0x8f8>
  404322:	2202      	movs	r2, #2
  404324:	e44d      	b.n	403bc2 <_vfiprintf_r+0x266>
  404326:	2f00      	cmp	r7, #0
  404328:	bf08      	it	eq
  40432a:	2e0a      	cmpeq	r6, #10
  40432c:	d352      	bcc.n	4043d4 <_vfiprintf_r+0xa78>
  40432e:	46cb      	mov	fp, r9
  404330:	4630      	mov	r0, r6
  404332:	4639      	mov	r1, r7
  404334:	220a      	movs	r2, #10
  404336:	2300      	movs	r3, #0
  404338:	f001 fbc6 	bl	405ac8 <__aeabi_uldivmod>
  40433c:	3230      	adds	r2, #48	; 0x30
  40433e:	f80b 2d01 	strb.w	r2, [fp, #-1]!
  404342:	4630      	mov	r0, r6
  404344:	4639      	mov	r1, r7
  404346:	2300      	movs	r3, #0
  404348:	220a      	movs	r2, #10
  40434a:	f001 fbbd 	bl	405ac8 <__aeabi_uldivmod>
  40434e:	4606      	mov	r6, r0
  404350:	460f      	mov	r7, r1
  404352:	ea56 0307 	orrs.w	r3, r6, r7
  404356:	d1eb      	bne.n	404330 <_vfiprintf_r+0x9d4>
  404358:	e56c      	b.n	403e34 <_vfiprintf_r+0x4d8>
  40435a:	9405      	str	r4, [sp, #20]
  40435c:	46cb      	mov	fp, r9
  40435e:	e44f      	b.n	403c00 <_vfiprintf_r+0x2a4>
  404360:	aa0f      	add	r2, sp, #60	; 0x3c
  404362:	9904      	ldr	r1, [sp, #16]
  404364:	9806      	ldr	r0, [sp, #24]
  404366:	f7ff fab9 	bl	4038dc <__sprint_r.part.0>
  40436a:	2800      	cmp	r0, #0
  40436c:	d1a8      	bne.n	4042c0 <_vfiprintf_r+0x964>
  40436e:	9a11      	ldr	r2, [sp, #68]	; 0x44
  404370:	46ca      	mov	sl, r9
  404372:	e75e      	b.n	404232 <_vfiprintf_r+0x8d6>
  404374:	aa0f      	add	r2, sp, #60	; 0x3c
  404376:	9904      	ldr	r1, [sp, #16]
  404378:	9806      	ldr	r0, [sp, #24]
  40437a:	f7ff faaf 	bl	4038dc <__sprint_r.part.0>
  40437e:	2800      	cmp	r0, #0
  404380:	d19e      	bne.n	4042c0 <_vfiprintf_r+0x964>
  404382:	46ca      	mov	sl, r9
  404384:	f7ff bbc0 	b.w	403b08 <_vfiprintf_r+0x1ac>
  404388:	00405f24 	.word	0x00405f24
  40438c:	00405f14 	.word	0x00405f14
  404390:	3104      	adds	r1, #4
  404392:	6816      	ldr	r6, [r2, #0]
  404394:	9107      	str	r1, [sp, #28]
  404396:	2201      	movs	r2, #1
  404398:	2700      	movs	r7, #0
  40439a:	e412      	b.n	403bc2 <_vfiprintf_r+0x266>
  40439c:	9807      	ldr	r0, [sp, #28]
  40439e:	4601      	mov	r1, r0
  4043a0:	3104      	adds	r1, #4
  4043a2:	6806      	ldr	r6, [r0, #0]
  4043a4:	9107      	str	r1, [sp, #28]
  4043a6:	2700      	movs	r7, #0
  4043a8:	e40b      	b.n	403bc2 <_vfiprintf_r+0x266>
  4043aa:	680e      	ldr	r6, [r1, #0]
  4043ac:	3104      	adds	r1, #4
  4043ae:	9107      	str	r1, [sp, #28]
  4043b0:	2700      	movs	r7, #0
  4043b2:	e591      	b.n	403ed8 <_vfiprintf_r+0x57c>
  4043b4:	9907      	ldr	r1, [sp, #28]
  4043b6:	680e      	ldr	r6, [r1, #0]
  4043b8:	460a      	mov	r2, r1
  4043ba:	17f7      	asrs	r7, r6, #31
  4043bc:	3204      	adds	r2, #4
  4043be:	9207      	str	r2, [sp, #28]
  4043c0:	4630      	mov	r0, r6
  4043c2:	4639      	mov	r1, r7
  4043c4:	e50f      	b.n	403de6 <_vfiprintf_r+0x48a>
  4043c6:	f8db 0058 	ldr.w	r0, [fp, #88]	; 0x58
  4043ca:	f000 fe7f 	bl	4050cc <__retarget_lock_release_recursive>
  4043ce:	f8bb 300c 	ldrh.w	r3, [fp, #12]
  4043d2:	e71a      	b.n	40420a <_vfiprintf_r+0x8ae>
  4043d4:	9b02      	ldr	r3, [sp, #8]
  4043d6:	9302      	str	r3, [sp, #8]
  4043d8:	f10d 0bb0 	add.w	fp, sp, #176	; 0xb0
  4043dc:	3630      	adds	r6, #48	; 0x30
  4043de:	2301      	movs	r3, #1
  4043e0:	f80b 6d41 	strb.w	r6, [fp, #-65]!
  4043e4:	9305      	str	r3, [sp, #20]
  4043e6:	e40b      	b.n	403c00 <_vfiprintf_r+0x2a4>
  4043e8:	aa0f      	add	r2, sp, #60	; 0x3c
  4043ea:	9904      	ldr	r1, [sp, #16]
  4043ec:	9806      	ldr	r0, [sp, #24]
  4043ee:	f7ff fa75 	bl	4038dc <__sprint_r.part.0>
  4043f2:	2800      	cmp	r0, #0
  4043f4:	f47f af64 	bne.w	4042c0 <_vfiprintf_r+0x964>
  4043f8:	9910      	ldr	r1, [sp, #64]	; 0x40
  4043fa:	9a11      	ldr	r2, [sp, #68]	; 0x44
  4043fc:	1c48      	adds	r0, r1, #1
  4043fe:	46ca      	mov	sl, r9
  404400:	e651      	b.n	4040a6 <_vfiprintf_r+0x74a>
  404402:	aa0f      	add	r2, sp, #60	; 0x3c
  404404:	9904      	ldr	r1, [sp, #16]
  404406:	9806      	ldr	r0, [sp, #24]
  404408:	f7ff fa68 	bl	4038dc <__sprint_r.part.0>
  40440c:	2800      	cmp	r0, #0
  40440e:	f47f af57 	bne.w	4042c0 <_vfiprintf_r+0x964>
  404412:	9910      	ldr	r1, [sp, #64]	; 0x40
  404414:	9a11      	ldr	r2, [sp, #68]	; 0x44
  404416:	1c48      	adds	r0, r1, #1
  404418:	46ca      	mov	sl, r9
  40441a:	e448      	b.n	403cae <_vfiprintf_r+0x352>
  40441c:	2a00      	cmp	r2, #0
  40441e:	f040 8091 	bne.w	404544 <_vfiprintf_r+0xbe8>
  404422:	2001      	movs	r0, #1
  404424:	4611      	mov	r1, r2
  404426:	46ca      	mov	sl, r9
  404428:	e641      	b.n	4040ae <_vfiprintf_r+0x752>
  40442a:	aa0f      	add	r2, sp, #60	; 0x3c
  40442c:	9904      	ldr	r1, [sp, #16]
  40442e:	9806      	ldr	r0, [sp, #24]
  404430:	f7ff fa54 	bl	4038dc <__sprint_r.part.0>
  404434:	2800      	cmp	r0, #0
  404436:	f47f af43 	bne.w	4042c0 <_vfiprintf_r+0x964>
  40443a:	9810      	ldr	r0, [sp, #64]	; 0x40
  40443c:	9a11      	ldr	r2, [sp, #68]	; 0x44
  40443e:	3001      	adds	r0, #1
  404440:	46ca      	mov	sl, r9
  404442:	e667      	b.n	404114 <_vfiprintf_r+0x7b8>
  404444:	46d3      	mov	fp, sl
  404446:	e6d6      	b.n	4041f6 <_vfiprintf_r+0x89a>
  404448:	9e07      	ldr	r6, [sp, #28]
  40444a:	3607      	adds	r6, #7
  40444c:	f026 0207 	bic.w	r2, r6, #7
  404450:	f102 0108 	add.w	r1, r2, #8
  404454:	e9d2 6700 	ldrd	r6, r7, [r2]
  404458:	9107      	str	r1, [sp, #28]
  40445a:	2201      	movs	r2, #1
  40445c:	f7ff bbb1 	b.w	403bc2 <_vfiprintf_r+0x266>
  404460:	9e07      	ldr	r6, [sp, #28]
  404462:	3607      	adds	r6, #7
  404464:	f026 0607 	bic.w	r6, r6, #7
  404468:	e9d6 0100 	ldrd	r0, r1, [r6]
  40446c:	f106 0208 	add.w	r2, r6, #8
  404470:	9207      	str	r2, [sp, #28]
  404472:	4606      	mov	r6, r0
  404474:	460f      	mov	r7, r1
  404476:	e4b6      	b.n	403de6 <_vfiprintf_r+0x48a>
  404478:	9e07      	ldr	r6, [sp, #28]
  40447a:	3607      	adds	r6, #7
  40447c:	f026 0207 	bic.w	r2, r6, #7
  404480:	f102 0108 	add.w	r1, r2, #8
  404484:	e9d2 6700 	ldrd	r6, r7, [r2]
  404488:	9107      	str	r1, [sp, #28]
  40448a:	2200      	movs	r2, #0
  40448c:	f7ff bb99 	b.w	403bc2 <_vfiprintf_r+0x266>
  404490:	9e07      	ldr	r6, [sp, #28]
  404492:	3607      	adds	r6, #7
  404494:	f026 0107 	bic.w	r1, r6, #7
  404498:	f101 0008 	add.w	r0, r1, #8
  40449c:	9007      	str	r0, [sp, #28]
  40449e:	e9d1 6700 	ldrd	r6, r7, [r1]
  4044a2:	e519      	b.n	403ed8 <_vfiprintf_r+0x57c>
  4044a4:	46cb      	mov	fp, r9
  4044a6:	f7ff bbab 	b.w	403c00 <_vfiprintf_r+0x2a4>
  4044aa:	252d      	movs	r5, #45	; 0x2d
  4044ac:	4276      	negs	r6, r6
  4044ae:	eb67 0747 	sbc.w	r7, r7, r7, lsl #1
  4044b2:	f88d 5037 	strb.w	r5, [sp, #55]	; 0x37
  4044b6:	2201      	movs	r2, #1
  4044b8:	f7ff bb88 	b.w	403bcc <_vfiprintf_r+0x270>
  4044bc:	9b09      	ldr	r3, [sp, #36]	; 0x24
  4044be:	b9b3      	cbnz	r3, 4044ee <_vfiprintf_r+0xb92>
  4044c0:	4611      	mov	r1, r2
  4044c2:	2001      	movs	r0, #1
  4044c4:	46ca      	mov	sl, r9
  4044c6:	e5f2      	b.n	4040ae <_vfiprintf_r+0x752>
  4044c8:	f8db 0058 	ldr.w	r0, [fp, #88]	; 0x58
  4044cc:	f000 fdfe 	bl	4050cc <__retarget_lock_release_recursive>
  4044d0:	f04f 33ff 	mov.w	r3, #4294967295
  4044d4:	9303      	str	r3, [sp, #12]
  4044d6:	f7ff bb50 	b.w	403b7a <_vfiprintf_r+0x21e>
  4044da:	aa0f      	add	r2, sp, #60	; 0x3c
  4044dc:	9904      	ldr	r1, [sp, #16]
  4044de:	9806      	ldr	r0, [sp, #24]
  4044e0:	f7ff f9fc 	bl	4038dc <__sprint_r.part.0>
  4044e4:	2800      	cmp	r0, #0
  4044e6:	f47f aeeb 	bne.w	4042c0 <_vfiprintf_r+0x964>
  4044ea:	9a11      	ldr	r2, [sp, #68]	; 0x44
  4044ec:	e6a9      	b.n	404242 <_vfiprintf_r+0x8e6>
  4044ee:	ab0e      	add	r3, sp, #56	; 0x38
  4044f0:	2202      	movs	r2, #2
  4044f2:	931c      	str	r3, [sp, #112]	; 0x70
  4044f4:	921d      	str	r2, [sp, #116]	; 0x74
  4044f6:	2001      	movs	r0, #1
  4044f8:	46ca      	mov	sl, r9
  4044fa:	e5d0      	b.n	40409e <_vfiprintf_r+0x742>
  4044fc:	aa0f      	add	r2, sp, #60	; 0x3c
  4044fe:	9904      	ldr	r1, [sp, #16]
  404500:	9806      	ldr	r0, [sp, #24]
  404502:	f7ff f9eb 	bl	4038dc <__sprint_r.part.0>
  404506:	2800      	cmp	r0, #0
  404508:	f47f aeda 	bne.w	4042c0 <_vfiprintf_r+0x964>
  40450c:	9910      	ldr	r1, [sp, #64]	; 0x40
  40450e:	9a11      	ldr	r2, [sp, #68]	; 0x44
  404510:	1c48      	adds	r0, r1, #1
  404512:	46ca      	mov	sl, r9
  404514:	e5a4      	b.n	404060 <_vfiprintf_r+0x704>
  404516:	9a07      	ldr	r2, [sp, #28]
  404518:	9903      	ldr	r1, [sp, #12]
  40451a:	6813      	ldr	r3, [r2, #0]
  40451c:	17cd      	asrs	r5, r1, #31
  40451e:	4608      	mov	r0, r1
  404520:	3204      	adds	r2, #4
  404522:	4629      	mov	r1, r5
  404524:	9207      	str	r2, [sp, #28]
  404526:	e9c3 0100 	strd	r0, r1, [r3]
  40452a:	f7ff ba54 	b.w	4039d6 <_vfiprintf_r+0x7a>
  40452e:	4658      	mov	r0, fp
  404530:	9607      	str	r6, [sp, #28]
  404532:	9302      	str	r3, [sp, #8]
  404534:	f7ff f964 	bl	403800 <strlen>
  404538:	2400      	movs	r4, #0
  40453a:	9005      	str	r0, [sp, #20]
  40453c:	f89d 5037 	ldrb.w	r5, [sp, #55]	; 0x37
  404540:	f7ff bb5e 	b.w	403c00 <_vfiprintf_r+0x2a4>
  404544:	aa0f      	add	r2, sp, #60	; 0x3c
  404546:	9904      	ldr	r1, [sp, #16]
  404548:	9806      	ldr	r0, [sp, #24]
  40454a:	f7ff f9c7 	bl	4038dc <__sprint_r.part.0>
  40454e:	2800      	cmp	r0, #0
  404550:	f47f aeb6 	bne.w	4042c0 <_vfiprintf_r+0x964>
  404554:	9910      	ldr	r1, [sp, #64]	; 0x40
  404556:	9a11      	ldr	r2, [sp, #68]	; 0x44
  404558:	1c48      	adds	r0, r1, #1
  40455a:	46ca      	mov	sl, r9
  40455c:	e5a7      	b.n	4040ae <_vfiprintf_r+0x752>
  40455e:	9910      	ldr	r1, [sp, #64]	; 0x40
  404560:	9a11      	ldr	r2, [sp, #68]	; 0x44
  404562:	4e20      	ldr	r6, [pc, #128]	; (4045e4 <_vfiprintf_r+0xc88>)
  404564:	3101      	adds	r1, #1
  404566:	f7ff bb90 	b.w	403c8a <_vfiprintf_r+0x32e>
  40456a:	2c06      	cmp	r4, #6
  40456c:	bf28      	it	cs
  40456e:	2406      	movcs	r4, #6
  404570:	9405      	str	r4, [sp, #20]
  404572:	9607      	str	r6, [sp, #28]
  404574:	9401      	str	r4, [sp, #4]
  404576:	f8df b070 	ldr.w	fp, [pc, #112]	; 4045e8 <_vfiprintf_r+0xc8c>
  40457a:	e4d5      	b.n	403f28 <_vfiprintf_r+0x5cc>
  40457c:	9810      	ldr	r0, [sp, #64]	; 0x40
  40457e:	4e19      	ldr	r6, [pc, #100]	; (4045e4 <_vfiprintf_r+0xc88>)
  404580:	3001      	adds	r0, #1
  404582:	e603      	b.n	40418c <_vfiprintf_r+0x830>
  404584:	9405      	str	r4, [sp, #20]
  404586:	f89d 5037 	ldrb.w	r5, [sp, #55]	; 0x37
  40458a:	9607      	str	r6, [sp, #28]
  40458c:	9302      	str	r3, [sp, #8]
  40458e:	4604      	mov	r4, r0
  404590:	f7ff bb36 	b.w	403c00 <_vfiprintf_r+0x2a4>
  404594:	4686      	mov	lr, r0
  404596:	f7ff bbce 	b.w	403d36 <_vfiprintf_r+0x3da>
  40459a:	9806      	ldr	r0, [sp, #24]
  40459c:	aa0f      	add	r2, sp, #60	; 0x3c
  40459e:	4659      	mov	r1, fp
  4045a0:	f7ff f99c 	bl	4038dc <__sprint_r.part.0>
  4045a4:	2800      	cmp	r0, #0
  4045a6:	f43f ae24 	beq.w	4041f2 <_vfiprintf_r+0x896>
  4045aa:	e624      	b.n	4041f6 <_vfiprintf_r+0x89a>
  4045ac:	9907      	ldr	r1, [sp, #28]
  4045ae:	f898 2001 	ldrb.w	r2, [r8, #1]
  4045b2:	680c      	ldr	r4, [r1, #0]
  4045b4:	3104      	adds	r1, #4
  4045b6:	ea44 74e4 	orr.w	r4, r4, r4, asr #31
  4045ba:	46b8      	mov	r8, r7
  4045bc:	9107      	str	r1, [sp, #28]
  4045be:	f7ff ba3f 	b.w	403a40 <_vfiprintf_r+0xe4>
  4045c2:	f88d 5037 	strb.w	r5, [sp, #55]	; 0x37
  4045c6:	e43c      	b.n	403e42 <_vfiprintf_r+0x4e6>
  4045c8:	f88d 5037 	strb.w	r5, [sp, #55]	; 0x37
  4045cc:	e521      	b.n	404012 <_vfiprintf_r+0x6b6>
  4045ce:	f88d 5037 	strb.w	r5, [sp, #55]	; 0x37
  4045d2:	f7ff bbf4 	b.w	403dbe <_vfiprintf_r+0x462>
  4045d6:	f88d 5037 	strb.w	r5, [sp, #55]	; 0x37
  4045da:	e491      	b.n	403f00 <_vfiprintf_r+0x5a4>
  4045dc:	f88d 5037 	strb.w	r5, [sp, #55]	; 0x37
  4045e0:	e469      	b.n	403eb6 <_vfiprintf_r+0x55a>
  4045e2:	bf00      	nop
  4045e4:	00405f14 	.word	0x00405f14
  4045e8:	00405f0c 	.word	0x00405f0c

004045ec <__sbprintf>:
  4045ec:	e92d 41f0 	stmdb	sp!, {r4, r5, r6, r7, r8, lr}
  4045f0:	460c      	mov	r4, r1
  4045f2:	f5ad 6d8d 	sub.w	sp, sp, #1128	; 0x468
  4045f6:	8989      	ldrh	r1, [r1, #12]
  4045f8:	6e66      	ldr	r6, [r4, #100]	; 0x64
  4045fa:	89e5      	ldrh	r5, [r4, #14]
  4045fc:	9619      	str	r6, [sp, #100]	; 0x64
  4045fe:	f021 0102 	bic.w	r1, r1, #2
  404602:	4606      	mov	r6, r0
  404604:	69e0      	ldr	r0, [r4, #28]
  404606:	f8ad 100c 	strh.w	r1, [sp, #12]
  40460a:	4617      	mov	r7, r2
  40460c:	f44f 6180 	mov.w	r1, #1024	; 0x400
  404610:	6a62      	ldr	r2, [r4, #36]	; 0x24
  404612:	f8ad 500e 	strh.w	r5, [sp, #14]
  404616:	4698      	mov	r8, r3
  404618:	ad1a      	add	r5, sp, #104	; 0x68
  40461a:	2300      	movs	r3, #0
  40461c:	9007      	str	r0, [sp, #28]
  40461e:	a816      	add	r0, sp, #88	; 0x58
  404620:	9209      	str	r2, [sp, #36]	; 0x24
  404622:	9306      	str	r3, [sp, #24]
  404624:	9500      	str	r5, [sp, #0]
  404626:	9504      	str	r5, [sp, #16]
  404628:	9102      	str	r1, [sp, #8]
  40462a:	9105      	str	r1, [sp, #20]
  40462c:	f000 fd48 	bl	4050c0 <__retarget_lock_init_recursive>
  404630:	4643      	mov	r3, r8
  404632:	463a      	mov	r2, r7
  404634:	4669      	mov	r1, sp
  404636:	4630      	mov	r0, r6
  404638:	f7ff f990 	bl	40395c <_vfiprintf_r>
  40463c:	1e05      	subs	r5, r0, #0
  40463e:	db07      	blt.n	404650 <__sbprintf+0x64>
  404640:	4630      	mov	r0, r6
  404642:	4669      	mov	r1, sp
  404644:	f000 f928 	bl	404898 <_fflush_r>
  404648:	2800      	cmp	r0, #0
  40464a:	bf18      	it	ne
  40464c:	f04f 35ff 	movne.w	r5, #4294967295
  404650:	f8bd 300c 	ldrh.w	r3, [sp, #12]
  404654:	065b      	lsls	r3, r3, #25
  404656:	d503      	bpl.n	404660 <__sbprintf+0x74>
  404658:	89a3      	ldrh	r3, [r4, #12]
  40465a:	f043 0340 	orr.w	r3, r3, #64	; 0x40
  40465e:	81a3      	strh	r3, [r4, #12]
  404660:	9816      	ldr	r0, [sp, #88]	; 0x58
  404662:	f000 fd2f 	bl	4050c4 <__retarget_lock_close_recursive>
  404666:	4628      	mov	r0, r5
  404668:	f50d 6d8d 	add.w	sp, sp, #1128	; 0x468
  40466c:	e8bd 81f0 	ldmia.w	sp!, {r4, r5, r6, r7, r8, pc}

00404670 <__swsetup_r>:
  404670:	b538      	push	{r3, r4, r5, lr}
  404672:	4b30      	ldr	r3, [pc, #192]	; (404734 <__swsetup_r+0xc4>)
  404674:	681b      	ldr	r3, [r3, #0]
  404676:	4605      	mov	r5, r0
  404678:	460c      	mov	r4, r1
  40467a:	b113      	cbz	r3, 404682 <__swsetup_r+0x12>
  40467c:	6b9a      	ldr	r2, [r3, #56]	; 0x38
  40467e:	2a00      	cmp	r2, #0
  404680:	d038      	beq.n	4046f4 <__swsetup_r+0x84>
  404682:	f9b4 200c 	ldrsh.w	r2, [r4, #12]
  404686:	b293      	uxth	r3, r2
  404688:	0718      	lsls	r0, r3, #28
  40468a:	d50c      	bpl.n	4046a6 <__swsetup_r+0x36>
  40468c:	6920      	ldr	r0, [r4, #16]
  40468e:	b1a8      	cbz	r0, 4046bc <__swsetup_r+0x4c>
  404690:	f013 0201 	ands.w	r2, r3, #1
  404694:	d01e      	beq.n	4046d4 <__swsetup_r+0x64>
  404696:	6963      	ldr	r3, [r4, #20]
  404698:	2200      	movs	r2, #0
  40469a:	425b      	negs	r3, r3
  40469c:	61a3      	str	r3, [r4, #24]
  40469e:	60a2      	str	r2, [r4, #8]
  4046a0:	b1f0      	cbz	r0, 4046e0 <__swsetup_r+0x70>
  4046a2:	2000      	movs	r0, #0
  4046a4:	bd38      	pop	{r3, r4, r5, pc}
  4046a6:	06d9      	lsls	r1, r3, #27
  4046a8:	d53c      	bpl.n	404724 <__swsetup_r+0xb4>
  4046aa:	0758      	lsls	r0, r3, #29
  4046ac:	d426      	bmi.n	4046fc <__swsetup_r+0x8c>
  4046ae:	6920      	ldr	r0, [r4, #16]
  4046b0:	f042 0308 	orr.w	r3, r2, #8
  4046b4:	81a3      	strh	r3, [r4, #12]
  4046b6:	b29b      	uxth	r3, r3
  4046b8:	2800      	cmp	r0, #0
  4046ba:	d1e9      	bne.n	404690 <__swsetup_r+0x20>
  4046bc:	f403 7220 	and.w	r2, r3, #640	; 0x280
  4046c0:	f5b2 7f00 	cmp.w	r2, #512	; 0x200
  4046c4:	d0e4      	beq.n	404690 <__swsetup_r+0x20>
  4046c6:	4628      	mov	r0, r5
  4046c8:	4621      	mov	r1, r4
  4046ca:	f000 fd2f 	bl	40512c <__smakebuf_r>
  4046ce:	89a3      	ldrh	r3, [r4, #12]
  4046d0:	6920      	ldr	r0, [r4, #16]
  4046d2:	e7dd      	b.n	404690 <__swsetup_r+0x20>
  4046d4:	0799      	lsls	r1, r3, #30
  4046d6:	bf58      	it	pl
  4046d8:	6962      	ldrpl	r2, [r4, #20]
  4046da:	60a2      	str	r2, [r4, #8]
  4046dc:	2800      	cmp	r0, #0
  4046de:	d1e0      	bne.n	4046a2 <__swsetup_r+0x32>
  4046e0:	f9b4 300c 	ldrsh.w	r3, [r4, #12]
  4046e4:	061a      	lsls	r2, r3, #24
  4046e6:	d5dd      	bpl.n	4046a4 <__swsetup_r+0x34>
  4046e8:	f043 0340 	orr.w	r3, r3, #64	; 0x40
  4046ec:	81a3      	strh	r3, [r4, #12]
  4046ee:	f04f 30ff 	mov.w	r0, #4294967295
  4046f2:	bd38      	pop	{r3, r4, r5, pc}
  4046f4:	4618      	mov	r0, r3
  4046f6:	f000 f927 	bl	404948 <__sinit>
  4046fa:	e7c2      	b.n	404682 <__swsetup_r+0x12>
  4046fc:	6b21      	ldr	r1, [r4, #48]	; 0x30
  4046fe:	b151      	cbz	r1, 404716 <__swsetup_r+0xa6>
  404700:	f104 0340 	add.w	r3, r4, #64	; 0x40
  404704:	4299      	cmp	r1, r3
  404706:	d004      	beq.n	404712 <__swsetup_r+0xa2>
  404708:	4628      	mov	r0, r5
  40470a:	f000 fa43 	bl	404b94 <_free_r>
  40470e:	f9b4 200c 	ldrsh.w	r2, [r4, #12]
  404712:	2300      	movs	r3, #0
  404714:	6323      	str	r3, [r4, #48]	; 0x30
  404716:	2300      	movs	r3, #0
  404718:	6920      	ldr	r0, [r4, #16]
  40471a:	6063      	str	r3, [r4, #4]
  40471c:	f022 0224 	bic.w	r2, r2, #36	; 0x24
  404720:	6020      	str	r0, [r4, #0]
  404722:	e7c5      	b.n	4046b0 <__swsetup_r+0x40>
  404724:	f042 0240 	orr.w	r2, r2, #64	; 0x40
  404728:	2309      	movs	r3, #9
  40472a:	602b      	str	r3, [r5, #0]
  40472c:	f04f 30ff 	mov.w	r0, #4294967295
  404730:	81a2      	strh	r2, [r4, #12]
  404732:	bd38      	pop	{r3, r4, r5, pc}
  404734:	20400014 	.word	0x20400014

00404738 <register_fini>:
  404738:	4b02      	ldr	r3, [pc, #8]	; (404744 <register_fini+0xc>)
  40473a:	b113      	cbz	r3, 404742 <register_fini+0xa>
  40473c:	4802      	ldr	r0, [pc, #8]	; (404748 <register_fini+0x10>)
  40473e:	f000 b805 	b.w	40474c <atexit>
  404742:	4770      	bx	lr
  404744:	00000000 	.word	0x00000000
  404748:	004049b9 	.word	0x004049b9

0040474c <atexit>:
  40474c:	2300      	movs	r3, #0
  40474e:	4601      	mov	r1, r0
  404750:	461a      	mov	r2, r3
  404752:	4618      	mov	r0, r3
  404754:	f001 b890 	b.w	405878 <__register_exitproc>

00404758 <__sflush_r>:
  404758:	f9b1 300c 	ldrsh.w	r3, [r1, #12]
  40475c:	b29a      	uxth	r2, r3
  40475e:	e92d 41f0 	stmdb	sp!, {r4, r5, r6, r7, r8, lr}
  404762:	460d      	mov	r5, r1
  404764:	0711      	lsls	r1, r2, #28
  404766:	4680      	mov	r8, r0
  404768:	d43a      	bmi.n	4047e0 <__sflush_r+0x88>
  40476a:	686a      	ldr	r2, [r5, #4]
  40476c:	f443 6300 	orr.w	r3, r3, #2048	; 0x800
  404770:	2a00      	cmp	r2, #0
  404772:	81ab      	strh	r3, [r5, #12]
  404774:	dd6f      	ble.n	404856 <__sflush_r+0xfe>
  404776:	6aac      	ldr	r4, [r5, #40]	; 0x28
  404778:	2c00      	cmp	r4, #0
  40477a:	d049      	beq.n	404810 <__sflush_r+0xb8>
  40477c:	2200      	movs	r2, #0
  40477e:	b29b      	uxth	r3, r3
  404780:	f8d8 6000 	ldr.w	r6, [r8]
  404784:	f8c8 2000 	str.w	r2, [r8]
  404788:	f413 5280 	ands.w	r2, r3, #4096	; 0x1000
  40478c:	d067      	beq.n	40485e <__sflush_r+0x106>
  40478e:	6d2a      	ldr	r2, [r5, #80]	; 0x50
  404790:	075f      	lsls	r7, r3, #29
  404792:	d505      	bpl.n	4047a0 <__sflush_r+0x48>
  404794:	6869      	ldr	r1, [r5, #4]
  404796:	6b2b      	ldr	r3, [r5, #48]	; 0x30
  404798:	1a52      	subs	r2, r2, r1
  40479a:	b10b      	cbz	r3, 4047a0 <__sflush_r+0x48>
  40479c:	6beb      	ldr	r3, [r5, #60]	; 0x3c
  40479e:	1ad2      	subs	r2, r2, r3
  4047a0:	2300      	movs	r3, #0
  4047a2:	69e9      	ldr	r1, [r5, #28]
  4047a4:	4640      	mov	r0, r8
  4047a6:	47a0      	blx	r4
  4047a8:	1c44      	adds	r4, r0, #1
  4047aa:	d03c      	beq.n	404826 <__sflush_r+0xce>
  4047ac:	f9b5 300c 	ldrsh.w	r3, [r5, #12]
  4047b0:	692a      	ldr	r2, [r5, #16]
  4047b2:	602a      	str	r2, [r5, #0]
  4047b4:	f423 6300 	bic.w	r3, r3, #2048	; 0x800
  4047b8:	2200      	movs	r2, #0
  4047ba:	81ab      	strh	r3, [r5, #12]
  4047bc:	04db      	lsls	r3, r3, #19
  4047be:	606a      	str	r2, [r5, #4]
  4047c0:	d447      	bmi.n	404852 <__sflush_r+0xfa>
  4047c2:	6b29      	ldr	r1, [r5, #48]	; 0x30
  4047c4:	f8c8 6000 	str.w	r6, [r8]
  4047c8:	b311      	cbz	r1, 404810 <__sflush_r+0xb8>
  4047ca:	f105 0340 	add.w	r3, r5, #64	; 0x40
  4047ce:	4299      	cmp	r1, r3
  4047d0:	d002      	beq.n	4047d8 <__sflush_r+0x80>
  4047d2:	4640      	mov	r0, r8
  4047d4:	f000 f9de 	bl	404b94 <_free_r>
  4047d8:	2000      	movs	r0, #0
  4047da:	6328      	str	r0, [r5, #48]	; 0x30
  4047dc:	e8bd 81f0 	ldmia.w	sp!, {r4, r5, r6, r7, r8, pc}
  4047e0:	692e      	ldr	r6, [r5, #16]
  4047e2:	b1ae      	cbz	r6, 404810 <__sflush_r+0xb8>
  4047e4:	682c      	ldr	r4, [r5, #0]
  4047e6:	602e      	str	r6, [r5, #0]
  4047e8:	0791      	lsls	r1, r2, #30
  4047ea:	bf0c      	ite	eq
  4047ec:	696b      	ldreq	r3, [r5, #20]
  4047ee:	2300      	movne	r3, #0
  4047f0:	1ba4      	subs	r4, r4, r6
  4047f2:	60ab      	str	r3, [r5, #8]
  4047f4:	e00a      	b.n	40480c <__sflush_r+0xb4>
  4047f6:	4623      	mov	r3, r4
  4047f8:	4632      	mov	r2, r6
  4047fa:	6a6f      	ldr	r7, [r5, #36]	; 0x24
  4047fc:	69e9      	ldr	r1, [r5, #28]
  4047fe:	4640      	mov	r0, r8
  404800:	47b8      	blx	r7
  404802:	2800      	cmp	r0, #0
  404804:	eba4 0400 	sub.w	r4, r4, r0
  404808:	4406      	add	r6, r0
  40480a:	dd04      	ble.n	404816 <__sflush_r+0xbe>
  40480c:	2c00      	cmp	r4, #0
  40480e:	dcf2      	bgt.n	4047f6 <__sflush_r+0x9e>
  404810:	2000      	movs	r0, #0
  404812:	e8bd 81f0 	ldmia.w	sp!, {r4, r5, r6, r7, r8, pc}
  404816:	89ab      	ldrh	r3, [r5, #12]
  404818:	f043 0340 	orr.w	r3, r3, #64	; 0x40
  40481c:	81ab      	strh	r3, [r5, #12]
  40481e:	f04f 30ff 	mov.w	r0, #4294967295
  404822:	e8bd 81f0 	ldmia.w	sp!, {r4, r5, r6, r7, r8, pc}
  404826:	f8d8 4000 	ldr.w	r4, [r8]
  40482a:	2c1d      	cmp	r4, #29
  40482c:	d8f3      	bhi.n	404816 <__sflush_r+0xbe>
  40482e:	4b19      	ldr	r3, [pc, #100]	; (404894 <__sflush_r+0x13c>)
  404830:	40e3      	lsrs	r3, r4
  404832:	43db      	mvns	r3, r3
  404834:	f013 0301 	ands.w	r3, r3, #1
  404838:	d1ed      	bne.n	404816 <__sflush_r+0xbe>
  40483a:	f9b5 200c 	ldrsh.w	r2, [r5, #12]
  40483e:	606b      	str	r3, [r5, #4]
  404840:	f422 6300 	bic.w	r3, r2, #2048	; 0x800
  404844:	6929      	ldr	r1, [r5, #16]
  404846:	81ab      	strh	r3, [r5, #12]
  404848:	04da      	lsls	r2, r3, #19
  40484a:	6029      	str	r1, [r5, #0]
  40484c:	d5b9      	bpl.n	4047c2 <__sflush_r+0x6a>
  40484e:	2c00      	cmp	r4, #0
  404850:	d1b7      	bne.n	4047c2 <__sflush_r+0x6a>
  404852:	6528      	str	r0, [r5, #80]	; 0x50
  404854:	e7b5      	b.n	4047c2 <__sflush_r+0x6a>
  404856:	6bea      	ldr	r2, [r5, #60]	; 0x3c
  404858:	2a00      	cmp	r2, #0
  40485a:	dc8c      	bgt.n	404776 <__sflush_r+0x1e>
  40485c:	e7d8      	b.n	404810 <__sflush_r+0xb8>
  40485e:	2301      	movs	r3, #1
  404860:	69e9      	ldr	r1, [r5, #28]
  404862:	4640      	mov	r0, r8
  404864:	47a0      	blx	r4
  404866:	1c43      	adds	r3, r0, #1
  404868:	4602      	mov	r2, r0
  40486a:	d002      	beq.n	404872 <__sflush_r+0x11a>
  40486c:	89ab      	ldrh	r3, [r5, #12]
  40486e:	6aac      	ldr	r4, [r5, #40]	; 0x28
  404870:	e78e      	b.n	404790 <__sflush_r+0x38>
  404872:	f8d8 3000 	ldr.w	r3, [r8]
  404876:	2b00      	cmp	r3, #0
  404878:	d0f8      	beq.n	40486c <__sflush_r+0x114>
  40487a:	2b1d      	cmp	r3, #29
  40487c:	d001      	beq.n	404882 <__sflush_r+0x12a>
  40487e:	2b16      	cmp	r3, #22
  404880:	d102      	bne.n	404888 <__sflush_r+0x130>
  404882:	f8c8 6000 	str.w	r6, [r8]
  404886:	e7c3      	b.n	404810 <__sflush_r+0xb8>
  404888:	89ab      	ldrh	r3, [r5, #12]
  40488a:	f043 0340 	orr.w	r3, r3, #64	; 0x40
  40488e:	81ab      	strh	r3, [r5, #12]
  404890:	e8bd 81f0 	ldmia.w	sp!, {r4, r5, r6, r7, r8, pc}
  404894:	20400001 	.word	0x20400001

00404898 <_fflush_r>:
  404898:	b538      	push	{r3, r4, r5, lr}
  40489a:	460d      	mov	r5, r1
  40489c:	4604      	mov	r4, r0
  40489e:	b108      	cbz	r0, 4048a4 <_fflush_r+0xc>
  4048a0:	6b83      	ldr	r3, [r0, #56]	; 0x38
  4048a2:	b1bb      	cbz	r3, 4048d4 <_fflush_r+0x3c>
  4048a4:	f9b5 000c 	ldrsh.w	r0, [r5, #12]
  4048a8:	b188      	cbz	r0, 4048ce <_fflush_r+0x36>
  4048aa:	6e6b      	ldr	r3, [r5, #100]	; 0x64
  4048ac:	07db      	lsls	r3, r3, #31
  4048ae:	d401      	bmi.n	4048b4 <_fflush_r+0x1c>
  4048b0:	0581      	lsls	r1, r0, #22
  4048b2:	d517      	bpl.n	4048e4 <_fflush_r+0x4c>
  4048b4:	4620      	mov	r0, r4
  4048b6:	4629      	mov	r1, r5
  4048b8:	f7ff ff4e 	bl	404758 <__sflush_r>
  4048bc:	6e6b      	ldr	r3, [r5, #100]	; 0x64
  4048be:	07da      	lsls	r2, r3, #31
  4048c0:	4604      	mov	r4, r0
  4048c2:	d402      	bmi.n	4048ca <_fflush_r+0x32>
  4048c4:	89ab      	ldrh	r3, [r5, #12]
  4048c6:	059b      	lsls	r3, r3, #22
  4048c8:	d507      	bpl.n	4048da <_fflush_r+0x42>
  4048ca:	4620      	mov	r0, r4
  4048cc:	bd38      	pop	{r3, r4, r5, pc}
  4048ce:	4604      	mov	r4, r0
  4048d0:	4620      	mov	r0, r4
  4048d2:	bd38      	pop	{r3, r4, r5, pc}
  4048d4:	f000 f838 	bl	404948 <__sinit>
  4048d8:	e7e4      	b.n	4048a4 <_fflush_r+0xc>
  4048da:	6da8      	ldr	r0, [r5, #88]	; 0x58
  4048dc:	f000 fbf6 	bl	4050cc <__retarget_lock_release_recursive>
  4048e0:	4620      	mov	r0, r4
  4048e2:	bd38      	pop	{r3, r4, r5, pc}
  4048e4:	6da8      	ldr	r0, [r5, #88]	; 0x58
  4048e6:	f000 fbef 	bl	4050c8 <__retarget_lock_acquire_recursive>
  4048ea:	e7e3      	b.n	4048b4 <_fflush_r+0x1c>

004048ec <_cleanup_r>:
  4048ec:	4901      	ldr	r1, [pc, #4]	; (4048f4 <_cleanup_r+0x8>)
  4048ee:	f000 bbaf 	b.w	405050 <_fwalk_reent>
  4048f2:	bf00      	nop
  4048f4:	00405961 	.word	0x00405961

004048f8 <std.isra.0>:
  4048f8:	b510      	push	{r4, lr}
  4048fa:	2300      	movs	r3, #0
  4048fc:	4604      	mov	r4, r0
  4048fe:	8181      	strh	r1, [r0, #12]
  404900:	81c2      	strh	r2, [r0, #14]
  404902:	6003      	str	r3, [r0, #0]
  404904:	6043      	str	r3, [r0, #4]
  404906:	6083      	str	r3, [r0, #8]
  404908:	6643      	str	r3, [r0, #100]	; 0x64
  40490a:	6103      	str	r3, [r0, #16]
  40490c:	6143      	str	r3, [r0, #20]
  40490e:	6183      	str	r3, [r0, #24]
  404910:	4619      	mov	r1, r3
  404912:	2208      	movs	r2, #8
  404914:	305c      	adds	r0, #92	; 0x5c
  404916:	f7fe fe1f 	bl	403558 <memset>
  40491a:	4807      	ldr	r0, [pc, #28]	; (404938 <std.isra.0+0x40>)
  40491c:	4907      	ldr	r1, [pc, #28]	; (40493c <std.isra.0+0x44>)
  40491e:	4a08      	ldr	r2, [pc, #32]	; (404940 <std.isra.0+0x48>)
  404920:	4b08      	ldr	r3, [pc, #32]	; (404944 <std.isra.0+0x4c>)
  404922:	6220      	str	r0, [r4, #32]
  404924:	61e4      	str	r4, [r4, #28]
  404926:	6261      	str	r1, [r4, #36]	; 0x24
  404928:	62a2      	str	r2, [r4, #40]	; 0x28
  40492a:	62e3      	str	r3, [r4, #44]	; 0x2c
  40492c:	f104 0058 	add.w	r0, r4, #88	; 0x58
  404930:	e8bd 4010 	ldmia.w	sp!, {r4, lr}
  404934:	f000 bbc4 	b.w	4050c0 <__retarget_lock_init_recursive>
  404938:	004056a5 	.word	0x004056a5
  40493c:	004056c9 	.word	0x004056c9
  404940:	00405705 	.word	0x00405705
  404944:	00405725 	.word	0x00405725

00404948 <__sinit>:
  404948:	b510      	push	{r4, lr}
  40494a:	4604      	mov	r4, r0
  40494c:	4812      	ldr	r0, [pc, #72]	; (404998 <__sinit+0x50>)
  40494e:	f000 fbbb 	bl	4050c8 <__retarget_lock_acquire_recursive>
  404952:	6ba2      	ldr	r2, [r4, #56]	; 0x38
  404954:	b9d2      	cbnz	r2, 40498c <__sinit+0x44>
  404956:	f504 733b 	add.w	r3, r4, #748	; 0x2ec
  40495a:	4810      	ldr	r0, [pc, #64]	; (40499c <__sinit+0x54>)
  40495c:	f8c4 32e8 	str.w	r3, [r4, #744]	; 0x2e8
  404960:	2103      	movs	r1, #3
  404962:	f8c4 22e0 	str.w	r2, [r4, #736]	; 0x2e0
  404966:	63e0      	str	r0, [r4, #60]	; 0x3c
  404968:	f8c4 12e4 	str.w	r1, [r4, #740]	; 0x2e4
  40496c:	6860      	ldr	r0, [r4, #4]
  40496e:	2104      	movs	r1, #4
  404970:	f7ff ffc2 	bl	4048f8 <std.isra.0>
  404974:	2201      	movs	r2, #1
  404976:	2109      	movs	r1, #9
  404978:	68a0      	ldr	r0, [r4, #8]
  40497a:	f7ff ffbd 	bl	4048f8 <std.isra.0>
  40497e:	2202      	movs	r2, #2
  404980:	2112      	movs	r1, #18
  404982:	68e0      	ldr	r0, [r4, #12]
  404984:	f7ff ffb8 	bl	4048f8 <std.isra.0>
  404988:	2301      	movs	r3, #1
  40498a:	63a3      	str	r3, [r4, #56]	; 0x38
  40498c:	4802      	ldr	r0, [pc, #8]	; (404998 <__sinit+0x50>)
  40498e:	e8bd 4010 	ldmia.w	sp!, {r4, lr}
  404992:	f000 bb9b 	b.w	4050cc <__retarget_lock_release_recursive>
  404996:	bf00      	nop
  404998:	20400c34 	.word	0x20400c34
  40499c:	004048ed 	.word	0x004048ed

004049a0 <__sfp_lock_acquire>:
  4049a0:	4801      	ldr	r0, [pc, #4]	; (4049a8 <__sfp_lock_acquire+0x8>)
  4049a2:	f000 bb91 	b.w	4050c8 <__retarget_lock_acquire_recursive>
  4049a6:	bf00      	nop
  4049a8:	20400c48 	.word	0x20400c48

004049ac <__sfp_lock_release>:
  4049ac:	4801      	ldr	r0, [pc, #4]	; (4049b4 <__sfp_lock_release+0x8>)
  4049ae:	f000 bb8d 	b.w	4050cc <__retarget_lock_release_recursive>
  4049b2:	bf00      	nop
  4049b4:	20400c48 	.word	0x20400c48

004049b8 <__libc_fini_array>:
  4049b8:	b538      	push	{r3, r4, r5, lr}
  4049ba:	4c0a      	ldr	r4, [pc, #40]	; (4049e4 <__libc_fini_array+0x2c>)
  4049bc:	4d0a      	ldr	r5, [pc, #40]	; (4049e8 <__libc_fini_array+0x30>)
  4049be:	1b64      	subs	r4, r4, r5
  4049c0:	10a4      	asrs	r4, r4, #2
  4049c2:	d00a      	beq.n	4049da <__libc_fini_array+0x22>
  4049c4:	f104 4380 	add.w	r3, r4, #1073741824	; 0x40000000
  4049c8:	3b01      	subs	r3, #1
  4049ca:	eb05 0583 	add.w	r5, r5, r3, lsl #2
  4049ce:	3c01      	subs	r4, #1
  4049d0:	f855 3904 	ldr.w	r3, [r5], #-4
  4049d4:	4798      	blx	r3
  4049d6:	2c00      	cmp	r4, #0
  4049d8:	d1f9      	bne.n	4049ce <__libc_fini_array+0x16>
  4049da:	e8bd 4038 	ldmia.w	sp!, {r3, r4, r5, lr}
  4049de:	f001 bb3d 	b.w	40605c <_fini>
  4049e2:	bf00      	nop
  4049e4:	0040606c 	.word	0x0040606c
  4049e8:	00406068 	.word	0x00406068

004049ec <__fputwc>:
  4049ec:	e92d 47f0 	stmdb	sp!, {r4, r5, r6, r7, r8, r9, sl, lr}
  4049f0:	b082      	sub	sp, #8
  4049f2:	4680      	mov	r8, r0
  4049f4:	4689      	mov	r9, r1
  4049f6:	4614      	mov	r4, r2
  4049f8:	f000 fb54 	bl	4050a4 <__locale_mb_cur_max>
  4049fc:	2801      	cmp	r0, #1
  4049fe:	d036      	beq.n	404a6e <__fputwc+0x82>
  404a00:	464a      	mov	r2, r9
  404a02:	f104 035c 	add.w	r3, r4, #92	; 0x5c
  404a06:	a901      	add	r1, sp, #4
  404a08:	4640      	mov	r0, r8
  404a0a:	f000 fee7 	bl	4057dc <_wcrtomb_r>
  404a0e:	1c42      	adds	r2, r0, #1
  404a10:	4606      	mov	r6, r0
  404a12:	d025      	beq.n	404a60 <__fputwc+0x74>
  404a14:	b3a8      	cbz	r0, 404a82 <__fputwc+0x96>
  404a16:	f89d e004 	ldrb.w	lr, [sp, #4]
  404a1a:	2500      	movs	r5, #0
  404a1c:	f10d 0a04 	add.w	sl, sp, #4
  404a20:	e009      	b.n	404a36 <__fputwc+0x4a>
  404a22:	6823      	ldr	r3, [r4, #0]
  404a24:	1c5a      	adds	r2, r3, #1
  404a26:	6022      	str	r2, [r4, #0]
  404a28:	f883 e000 	strb.w	lr, [r3]
  404a2c:	3501      	adds	r5, #1
  404a2e:	42b5      	cmp	r5, r6
  404a30:	d227      	bcs.n	404a82 <__fputwc+0x96>
  404a32:	f815 e00a 	ldrb.w	lr, [r5, sl]
  404a36:	68a3      	ldr	r3, [r4, #8]
  404a38:	3b01      	subs	r3, #1
  404a3a:	2b00      	cmp	r3, #0
  404a3c:	60a3      	str	r3, [r4, #8]
  404a3e:	daf0      	bge.n	404a22 <__fputwc+0x36>
  404a40:	69a7      	ldr	r7, [r4, #24]
  404a42:	42bb      	cmp	r3, r7
  404a44:	4671      	mov	r1, lr
  404a46:	4622      	mov	r2, r4
  404a48:	4640      	mov	r0, r8
  404a4a:	db02      	blt.n	404a52 <__fputwc+0x66>
  404a4c:	f1be 0f0a 	cmp.w	lr, #10
  404a50:	d1e7      	bne.n	404a22 <__fputwc+0x36>
  404a52:	f000 fe6b 	bl	40572c <__swbuf_r>
  404a56:	1c43      	adds	r3, r0, #1
  404a58:	d1e8      	bne.n	404a2c <__fputwc+0x40>
  404a5a:	b002      	add	sp, #8
  404a5c:	e8bd 87f0 	ldmia.w	sp!, {r4, r5, r6, r7, r8, r9, sl, pc}
  404a60:	89a3      	ldrh	r3, [r4, #12]
  404a62:	f043 0340 	orr.w	r3, r3, #64	; 0x40
  404a66:	81a3      	strh	r3, [r4, #12]
  404a68:	b002      	add	sp, #8
  404a6a:	e8bd 87f0 	ldmia.w	sp!, {r4, r5, r6, r7, r8, r9, sl, pc}
  404a6e:	f109 33ff 	add.w	r3, r9, #4294967295
  404a72:	2bfe      	cmp	r3, #254	; 0xfe
  404a74:	d8c4      	bhi.n	404a00 <__fputwc+0x14>
  404a76:	fa5f fe89 	uxtb.w	lr, r9
  404a7a:	4606      	mov	r6, r0
  404a7c:	f88d e004 	strb.w	lr, [sp, #4]
  404a80:	e7cb      	b.n	404a1a <__fputwc+0x2e>
  404a82:	4648      	mov	r0, r9
  404a84:	b002      	add	sp, #8
  404a86:	e8bd 87f0 	ldmia.w	sp!, {r4, r5, r6, r7, r8, r9, sl, pc}
  404a8a:	bf00      	nop

00404a8c <_fputwc_r>:
  404a8c:	b530      	push	{r4, r5, lr}
  404a8e:	6e53      	ldr	r3, [r2, #100]	; 0x64
  404a90:	f013 0f01 	tst.w	r3, #1
  404a94:	f9b2 300c 	ldrsh.w	r3, [r2, #12]
  404a98:	4614      	mov	r4, r2
  404a9a:	b083      	sub	sp, #12
  404a9c:	4605      	mov	r5, r0
  404a9e:	b29a      	uxth	r2, r3
  404aa0:	d101      	bne.n	404aa6 <_fputwc_r+0x1a>
  404aa2:	0590      	lsls	r0, r2, #22
  404aa4:	d51c      	bpl.n	404ae0 <_fputwc_r+0x54>
  404aa6:	0490      	lsls	r0, r2, #18
  404aa8:	d406      	bmi.n	404ab8 <_fputwc_r+0x2c>
  404aaa:	6e62      	ldr	r2, [r4, #100]	; 0x64
  404aac:	f443 5300 	orr.w	r3, r3, #8192	; 0x2000
  404ab0:	f442 5200 	orr.w	r2, r2, #8192	; 0x2000
  404ab4:	81a3      	strh	r3, [r4, #12]
  404ab6:	6662      	str	r2, [r4, #100]	; 0x64
  404ab8:	4628      	mov	r0, r5
  404aba:	4622      	mov	r2, r4
  404abc:	f7ff ff96 	bl	4049ec <__fputwc>
  404ac0:	6e63      	ldr	r3, [r4, #100]	; 0x64
  404ac2:	07da      	lsls	r2, r3, #31
  404ac4:	4605      	mov	r5, r0
  404ac6:	d402      	bmi.n	404ace <_fputwc_r+0x42>
  404ac8:	89a3      	ldrh	r3, [r4, #12]
  404aca:	059b      	lsls	r3, r3, #22
  404acc:	d502      	bpl.n	404ad4 <_fputwc_r+0x48>
  404ace:	4628      	mov	r0, r5
  404ad0:	b003      	add	sp, #12
  404ad2:	bd30      	pop	{r4, r5, pc}
  404ad4:	6da0      	ldr	r0, [r4, #88]	; 0x58
  404ad6:	f000 faf9 	bl	4050cc <__retarget_lock_release_recursive>
  404ada:	4628      	mov	r0, r5
  404adc:	b003      	add	sp, #12
  404ade:	bd30      	pop	{r4, r5, pc}
  404ae0:	6da0      	ldr	r0, [r4, #88]	; 0x58
  404ae2:	9101      	str	r1, [sp, #4]
  404ae4:	f000 faf0 	bl	4050c8 <__retarget_lock_acquire_recursive>
  404ae8:	f9b4 300c 	ldrsh.w	r3, [r4, #12]
  404aec:	9901      	ldr	r1, [sp, #4]
  404aee:	b29a      	uxth	r2, r3
  404af0:	e7d9      	b.n	404aa6 <_fputwc_r+0x1a>
  404af2:	bf00      	nop

00404af4 <_malloc_trim_r>:
  404af4:	b5f8      	push	{r3, r4, r5, r6, r7, lr}
  404af6:	4f24      	ldr	r7, [pc, #144]	; (404b88 <_malloc_trim_r+0x94>)
  404af8:	460c      	mov	r4, r1
  404afa:	4606      	mov	r6, r0
  404afc:	f7fe fd7a 	bl	4035f4 <__malloc_lock>
  404b00:	68bb      	ldr	r3, [r7, #8]
  404b02:	685d      	ldr	r5, [r3, #4]
  404b04:	f5c4 617e 	rsb	r1, r4, #4064	; 0xfe0
  404b08:	310f      	adds	r1, #15
  404b0a:	f025 0503 	bic.w	r5, r5, #3
  404b0e:	4429      	add	r1, r5
  404b10:	f421 617f 	bic.w	r1, r1, #4080	; 0xff0
  404b14:	f021 010f 	bic.w	r1, r1, #15
  404b18:	f5a1 5480 	sub.w	r4, r1, #4096	; 0x1000
  404b1c:	f5b4 5f80 	cmp.w	r4, #4096	; 0x1000
  404b20:	db07      	blt.n	404b32 <_malloc_trim_r+0x3e>
  404b22:	2100      	movs	r1, #0
  404b24:	4630      	mov	r0, r6
  404b26:	f7fe fd71 	bl	40360c <_sbrk_r>
  404b2a:	68bb      	ldr	r3, [r7, #8]
  404b2c:	442b      	add	r3, r5
  404b2e:	4298      	cmp	r0, r3
  404b30:	d004      	beq.n	404b3c <_malloc_trim_r+0x48>
  404b32:	4630      	mov	r0, r6
  404b34:	f7fe fd64 	bl	403600 <__malloc_unlock>
  404b38:	2000      	movs	r0, #0
  404b3a:	bdf8      	pop	{r3, r4, r5, r6, r7, pc}
  404b3c:	4261      	negs	r1, r4
  404b3e:	4630      	mov	r0, r6
  404b40:	f7fe fd64 	bl	40360c <_sbrk_r>
  404b44:	3001      	adds	r0, #1
  404b46:	d00d      	beq.n	404b64 <_malloc_trim_r+0x70>
  404b48:	4b10      	ldr	r3, [pc, #64]	; (404b8c <_malloc_trim_r+0x98>)
  404b4a:	68ba      	ldr	r2, [r7, #8]
  404b4c:	6819      	ldr	r1, [r3, #0]
  404b4e:	1b2d      	subs	r5, r5, r4
  404b50:	f045 0501 	orr.w	r5, r5, #1
  404b54:	4630      	mov	r0, r6
  404b56:	1b09      	subs	r1, r1, r4
  404b58:	6055      	str	r5, [r2, #4]
  404b5a:	6019      	str	r1, [r3, #0]
  404b5c:	f7fe fd50 	bl	403600 <__malloc_unlock>
  404b60:	2001      	movs	r0, #1
  404b62:	bdf8      	pop	{r3, r4, r5, r6, r7, pc}
  404b64:	2100      	movs	r1, #0
  404b66:	4630      	mov	r0, r6
  404b68:	f7fe fd50 	bl	40360c <_sbrk_r>
  404b6c:	68ba      	ldr	r2, [r7, #8]
  404b6e:	1a83      	subs	r3, r0, r2
  404b70:	2b0f      	cmp	r3, #15
  404b72:	ddde      	ble.n	404b32 <_malloc_trim_r+0x3e>
  404b74:	4c06      	ldr	r4, [pc, #24]	; (404b90 <_malloc_trim_r+0x9c>)
  404b76:	4905      	ldr	r1, [pc, #20]	; (404b8c <_malloc_trim_r+0x98>)
  404b78:	6824      	ldr	r4, [r4, #0]
  404b7a:	f043 0301 	orr.w	r3, r3, #1
  404b7e:	1b00      	subs	r0, r0, r4
  404b80:	6053      	str	r3, [r2, #4]
  404b82:	6008      	str	r0, [r1, #0]
  404b84:	e7d5      	b.n	404b32 <_malloc_trim_r+0x3e>
  404b86:	bf00      	nop
  404b88:	20400440 	.word	0x20400440
  404b8c:	20400ba0 	.word	0x20400ba0
  404b90:	20400848 	.word	0x20400848

00404b94 <_free_r>:
  404b94:	2900      	cmp	r1, #0
  404b96:	d044      	beq.n	404c22 <_free_r+0x8e>
  404b98:	e92d 41f0 	stmdb	sp!, {r4, r5, r6, r7, r8, lr}
  404b9c:	460d      	mov	r5, r1
  404b9e:	4680      	mov	r8, r0
  404ba0:	f7fe fd28 	bl	4035f4 <__malloc_lock>
  404ba4:	f855 7c04 	ldr.w	r7, [r5, #-4]
  404ba8:	4969      	ldr	r1, [pc, #420]	; (404d50 <_free_r+0x1bc>)
  404baa:	f027 0301 	bic.w	r3, r7, #1
  404bae:	f1a5 0408 	sub.w	r4, r5, #8
  404bb2:	18e2      	adds	r2, r4, r3
  404bb4:	688e      	ldr	r6, [r1, #8]
  404bb6:	6850      	ldr	r0, [r2, #4]
  404bb8:	42b2      	cmp	r2, r6
  404bba:	f020 0003 	bic.w	r0, r0, #3
  404bbe:	d05e      	beq.n	404c7e <_free_r+0xea>
  404bc0:	07fe      	lsls	r6, r7, #31
  404bc2:	6050      	str	r0, [r2, #4]
  404bc4:	d40b      	bmi.n	404bde <_free_r+0x4a>
  404bc6:	f855 7c08 	ldr.w	r7, [r5, #-8]
  404bca:	1be4      	subs	r4, r4, r7
  404bcc:	f101 0e08 	add.w	lr, r1, #8
  404bd0:	68a5      	ldr	r5, [r4, #8]
  404bd2:	4575      	cmp	r5, lr
  404bd4:	443b      	add	r3, r7
  404bd6:	d06d      	beq.n	404cb4 <_free_r+0x120>
  404bd8:	68e7      	ldr	r7, [r4, #12]
  404bda:	60ef      	str	r7, [r5, #12]
  404bdc:	60bd      	str	r5, [r7, #8]
  404bde:	1815      	adds	r5, r2, r0
  404be0:	686d      	ldr	r5, [r5, #4]
  404be2:	07ed      	lsls	r5, r5, #31
  404be4:	d53e      	bpl.n	404c64 <_free_r+0xd0>
  404be6:	f043 0201 	orr.w	r2, r3, #1
  404bea:	6062      	str	r2, [r4, #4]
  404bec:	50e3      	str	r3, [r4, r3]
  404bee:	f5b3 7f00 	cmp.w	r3, #512	; 0x200
  404bf2:	d217      	bcs.n	404c24 <_free_r+0x90>
  404bf4:	08db      	lsrs	r3, r3, #3
  404bf6:	1c58      	adds	r0, r3, #1
  404bf8:	109a      	asrs	r2, r3, #2
  404bfa:	684d      	ldr	r5, [r1, #4]
  404bfc:	f851 7030 	ldr.w	r7, [r1, r0, lsl #3]
  404c00:	60a7      	str	r7, [r4, #8]
  404c02:	2301      	movs	r3, #1
  404c04:	4093      	lsls	r3, r2
  404c06:	eb01 02c0 	add.w	r2, r1, r0, lsl #3
  404c0a:	432b      	orrs	r3, r5
  404c0c:	3a08      	subs	r2, #8
  404c0e:	60e2      	str	r2, [r4, #12]
  404c10:	604b      	str	r3, [r1, #4]
  404c12:	f841 4030 	str.w	r4, [r1, r0, lsl #3]
  404c16:	60fc      	str	r4, [r7, #12]
  404c18:	4640      	mov	r0, r8
  404c1a:	e8bd 41f0 	ldmia.w	sp!, {r4, r5, r6, r7, r8, lr}
  404c1e:	f7fe bcef 	b.w	403600 <__malloc_unlock>
  404c22:	4770      	bx	lr
  404c24:	0a5a      	lsrs	r2, r3, #9
  404c26:	2a04      	cmp	r2, #4
  404c28:	d852      	bhi.n	404cd0 <_free_r+0x13c>
  404c2a:	099a      	lsrs	r2, r3, #6
  404c2c:	f102 0739 	add.w	r7, r2, #57	; 0x39
  404c30:	00ff      	lsls	r7, r7, #3
  404c32:	f102 0538 	add.w	r5, r2, #56	; 0x38
  404c36:	19c8      	adds	r0, r1, r7
  404c38:	59ca      	ldr	r2, [r1, r7]
  404c3a:	3808      	subs	r0, #8
  404c3c:	4290      	cmp	r0, r2
  404c3e:	d04f      	beq.n	404ce0 <_free_r+0x14c>
  404c40:	6851      	ldr	r1, [r2, #4]
  404c42:	f021 0103 	bic.w	r1, r1, #3
  404c46:	428b      	cmp	r3, r1
  404c48:	d232      	bcs.n	404cb0 <_free_r+0x11c>
  404c4a:	6892      	ldr	r2, [r2, #8]
  404c4c:	4290      	cmp	r0, r2
  404c4e:	d1f7      	bne.n	404c40 <_free_r+0xac>
  404c50:	68c3      	ldr	r3, [r0, #12]
  404c52:	60a0      	str	r0, [r4, #8]
  404c54:	60e3      	str	r3, [r4, #12]
  404c56:	609c      	str	r4, [r3, #8]
  404c58:	60c4      	str	r4, [r0, #12]
  404c5a:	4640      	mov	r0, r8
  404c5c:	e8bd 41f0 	ldmia.w	sp!, {r4, r5, r6, r7, r8, lr}
  404c60:	f7fe bcce 	b.w	403600 <__malloc_unlock>
  404c64:	6895      	ldr	r5, [r2, #8]
  404c66:	4f3b      	ldr	r7, [pc, #236]	; (404d54 <_free_r+0x1c0>)
  404c68:	42bd      	cmp	r5, r7
  404c6a:	4403      	add	r3, r0
  404c6c:	d040      	beq.n	404cf0 <_free_r+0x15c>
  404c6e:	68d0      	ldr	r0, [r2, #12]
  404c70:	60e8      	str	r0, [r5, #12]
  404c72:	f043 0201 	orr.w	r2, r3, #1
  404c76:	6085      	str	r5, [r0, #8]
  404c78:	6062      	str	r2, [r4, #4]
  404c7a:	50e3      	str	r3, [r4, r3]
  404c7c:	e7b7      	b.n	404bee <_free_r+0x5a>
  404c7e:	07ff      	lsls	r7, r7, #31
  404c80:	4403      	add	r3, r0
  404c82:	d407      	bmi.n	404c94 <_free_r+0x100>
  404c84:	f855 2c08 	ldr.w	r2, [r5, #-8]
  404c88:	1aa4      	subs	r4, r4, r2
  404c8a:	4413      	add	r3, r2
  404c8c:	68a0      	ldr	r0, [r4, #8]
  404c8e:	68e2      	ldr	r2, [r4, #12]
  404c90:	60c2      	str	r2, [r0, #12]
  404c92:	6090      	str	r0, [r2, #8]
  404c94:	4a30      	ldr	r2, [pc, #192]	; (404d58 <_free_r+0x1c4>)
  404c96:	6812      	ldr	r2, [r2, #0]
  404c98:	f043 0001 	orr.w	r0, r3, #1
  404c9c:	4293      	cmp	r3, r2
  404c9e:	6060      	str	r0, [r4, #4]
  404ca0:	608c      	str	r4, [r1, #8]
  404ca2:	d3b9      	bcc.n	404c18 <_free_r+0x84>
  404ca4:	4b2d      	ldr	r3, [pc, #180]	; (404d5c <_free_r+0x1c8>)
  404ca6:	4640      	mov	r0, r8
  404ca8:	6819      	ldr	r1, [r3, #0]
  404caa:	f7ff ff23 	bl	404af4 <_malloc_trim_r>
  404cae:	e7b3      	b.n	404c18 <_free_r+0x84>
  404cb0:	4610      	mov	r0, r2
  404cb2:	e7cd      	b.n	404c50 <_free_r+0xbc>
  404cb4:	1811      	adds	r1, r2, r0
  404cb6:	6849      	ldr	r1, [r1, #4]
  404cb8:	07c9      	lsls	r1, r1, #31
  404cba:	d444      	bmi.n	404d46 <_free_r+0x1b2>
  404cbc:	6891      	ldr	r1, [r2, #8]
  404cbe:	68d2      	ldr	r2, [r2, #12]
  404cc0:	60ca      	str	r2, [r1, #12]
  404cc2:	4403      	add	r3, r0
  404cc4:	f043 0001 	orr.w	r0, r3, #1
  404cc8:	6091      	str	r1, [r2, #8]
  404cca:	6060      	str	r0, [r4, #4]
  404ccc:	50e3      	str	r3, [r4, r3]
  404cce:	e7a3      	b.n	404c18 <_free_r+0x84>
  404cd0:	2a14      	cmp	r2, #20
  404cd2:	d816      	bhi.n	404d02 <_free_r+0x16e>
  404cd4:	f102 075c 	add.w	r7, r2, #92	; 0x5c
  404cd8:	00ff      	lsls	r7, r7, #3
  404cda:	f102 055b 	add.w	r5, r2, #91	; 0x5b
  404cde:	e7aa      	b.n	404c36 <_free_r+0xa2>
  404ce0:	10aa      	asrs	r2, r5, #2
  404ce2:	2301      	movs	r3, #1
  404ce4:	684d      	ldr	r5, [r1, #4]
  404ce6:	4093      	lsls	r3, r2
  404ce8:	432b      	orrs	r3, r5
  404cea:	604b      	str	r3, [r1, #4]
  404cec:	4603      	mov	r3, r0
  404cee:	e7b0      	b.n	404c52 <_free_r+0xbe>
  404cf0:	f043 0201 	orr.w	r2, r3, #1
  404cf4:	614c      	str	r4, [r1, #20]
  404cf6:	610c      	str	r4, [r1, #16]
  404cf8:	60e5      	str	r5, [r4, #12]
  404cfa:	60a5      	str	r5, [r4, #8]
  404cfc:	6062      	str	r2, [r4, #4]
  404cfe:	50e3      	str	r3, [r4, r3]
  404d00:	e78a      	b.n	404c18 <_free_r+0x84>
  404d02:	2a54      	cmp	r2, #84	; 0x54
  404d04:	d806      	bhi.n	404d14 <_free_r+0x180>
  404d06:	0b1a      	lsrs	r2, r3, #12
  404d08:	f102 076f 	add.w	r7, r2, #111	; 0x6f
  404d0c:	00ff      	lsls	r7, r7, #3
  404d0e:	f102 056e 	add.w	r5, r2, #110	; 0x6e
  404d12:	e790      	b.n	404c36 <_free_r+0xa2>
  404d14:	f5b2 7faa 	cmp.w	r2, #340	; 0x154
  404d18:	d806      	bhi.n	404d28 <_free_r+0x194>
  404d1a:	0bda      	lsrs	r2, r3, #15
  404d1c:	f102 0778 	add.w	r7, r2, #120	; 0x78
  404d20:	00ff      	lsls	r7, r7, #3
  404d22:	f102 0577 	add.w	r5, r2, #119	; 0x77
  404d26:	e786      	b.n	404c36 <_free_r+0xa2>
  404d28:	f240 5054 	movw	r0, #1364	; 0x554
  404d2c:	4282      	cmp	r2, r0
  404d2e:	d806      	bhi.n	404d3e <_free_r+0x1aa>
  404d30:	0c9a      	lsrs	r2, r3, #18
  404d32:	f102 077d 	add.w	r7, r2, #125	; 0x7d
  404d36:	00ff      	lsls	r7, r7, #3
  404d38:	f102 057c 	add.w	r5, r2, #124	; 0x7c
  404d3c:	e77b      	b.n	404c36 <_free_r+0xa2>
  404d3e:	f44f 777e 	mov.w	r7, #1016	; 0x3f8
  404d42:	257e      	movs	r5, #126	; 0x7e
  404d44:	e777      	b.n	404c36 <_free_r+0xa2>
  404d46:	f043 0101 	orr.w	r1, r3, #1
  404d4a:	6061      	str	r1, [r4, #4]
  404d4c:	6013      	str	r3, [r2, #0]
  404d4e:	e763      	b.n	404c18 <_free_r+0x84>
  404d50:	20400440 	.word	0x20400440
  404d54:	20400448 	.word	0x20400448
  404d58:	2040084c 	.word	0x2040084c
  404d5c:	20400bd0 	.word	0x20400bd0

00404d60 <__sfvwrite_r>:
  404d60:	6893      	ldr	r3, [r2, #8]
  404d62:	2b00      	cmp	r3, #0
  404d64:	d073      	beq.n	404e4e <__sfvwrite_r+0xee>
  404d66:	e92d 4ff0 	stmdb	sp!, {r4, r5, r6, r7, r8, r9, sl, fp, lr}
  404d6a:	898b      	ldrh	r3, [r1, #12]
  404d6c:	b083      	sub	sp, #12
  404d6e:	460c      	mov	r4, r1
  404d70:	0719      	lsls	r1, r3, #28
  404d72:	9000      	str	r0, [sp, #0]
  404d74:	4616      	mov	r6, r2
  404d76:	d526      	bpl.n	404dc6 <__sfvwrite_r+0x66>
  404d78:	6922      	ldr	r2, [r4, #16]
  404d7a:	b322      	cbz	r2, 404dc6 <__sfvwrite_r+0x66>
  404d7c:	f013 0002 	ands.w	r0, r3, #2
  404d80:	6835      	ldr	r5, [r6, #0]
  404d82:	d02c      	beq.n	404dde <__sfvwrite_r+0x7e>
  404d84:	f04f 0900 	mov.w	r9, #0
  404d88:	4fb0      	ldr	r7, [pc, #704]	; (40504c <__sfvwrite_r+0x2ec>)
  404d8a:	46c8      	mov	r8, r9
  404d8c:	46b2      	mov	sl, r6
  404d8e:	45b8      	cmp	r8, r7
  404d90:	4643      	mov	r3, r8
  404d92:	464a      	mov	r2, r9
  404d94:	bf28      	it	cs
  404d96:	463b      	movcs	r3, r7
  404d98:	9800      	ldr	r0, [sp, #0]
  404d9a:	f1b8 0f00 	cmp.w	r8, #0
  404d9e:	d050      	beq.n	404e42 <__sfvwrite_r+0xe2>
  404da0:	69e1      	ldr	r1, [r4, #28]
  404da2:	6a66      	ldr	r6, [r4, #36]	; 0x24
  404da4:	47b0      	blx	r6
  404da6:	2800      	cmp	r0, #0
  404da8:	dd58      	ble.n	404e5c <__sfvwrite_r+0xfc>
  404daa:	f8da 3008 	ldr.w	r3, [sl, #8]
  404dae:	1a1b      	subs	r3, r3, r0
  404db0:	4481      	add	r9, r0
  404db2:	eba8 0800 	sub.w	r8, r8, r0
  404db6:	f8ca 3008 	str.w	r3, [sl, #8]
  404dba:	2b00      	cmp	r3, #0
  404dbc:	d1e7      	bne.n	404d8e <__sfvwrite_r+0x2e>
  404dbe:	2000      	movs	r0, #0
  404dc0:	b003      	add	sp, #12
  404dc2:	e8bd 8ff0 	ldmia.w	sp!, {r4, r5, r6, r7, r8, r9, sl, fp, pc}
  404dc6:	4621      	mov	r1, r4
  404dc8:	9800      	ldr	r0, [sp, #0]
  404dca:	f7ff fc51 	bl	404670 <__swsetup_r>
  404dce:	2800      	cmp	r0, #0
  404dd0:	f040 8133 	bne.w	40503a <__sfvwrite_r+0x2da>
  404dd4:	89a3      	ldrh	r3, [r4, #12]
  404dd6:	6835      	ldr	r5, [r6, #0]
  404dd8:	f013 0002 	ands.w	r0, r3, #2
  404ddc:	d1d2      	bne.n	404d84 <__sfvwrite_r+0x24>
  404dde:	f013 0901 	ands.w	r9, r3, #1
  404de2:	d145      	bne.n	404e70 <__sfvwrite_r+0x110>
  404de4:	464f      	mov	r7, r9
  404de6:	9601      	str	r6, [sp, #4]
  404de8:	b337      	cbz	r7, 404e38 <__sfvwrite_r+0xd8>
  404dea:	059a      	lsls	r2, r3, #22
  404dec:	f8d4 8008 	ldr.w	r8, [r4, #8]
  404df0:	f140 8083 	bpl.w	404efa <__sfvwrite_r+0x19a>
  404df4:	4547      	cmp	r7, r8
  404df6:	46c3      	mov	fp, r8
  404df8:	f0c0 80ab 	bcc.w	404f52 <__sfvwrite_r+0x1f2>
  404dfc:	f413 6f90 	tst.w	r3, #1152	; 0x480
  404e00:	f040 80ac 	bne.w	404f5c <__sfvwrite_r+0x1fc>
  404e04:	6820      	ldr	r0, [r4, #0]
  404e06:	46ba      	mov	sl, r7
  404e08:	465a      	mov	r2, fp
  404e0a:	4649      	mov	r1, r9
  404e0c:	f000 fa40 	bl	405290 <memmove>
  404e10:	68a2      	ldr	r2, [r4, #8]
  404e12:	6823      	ldr	r3, [r4, #0]
  404e14:	eba2 0208 	sub.w	r2, r2, r8
  404e18:	445b      	add	r3, fp
  404e1a:	60a2      	str	r2, [r4, #8]
  404e1c:	6023      	str	r3, [r4, #0]
  404e1e:	9a01      	ldr	r2, [sp, #4]
  404e20:	6893      	ldr	r3, [r2, #8]
  404e22:	eba3 030a 	sub.w	r3, r3, sl
  404e26:	44d1      	add	r9, sl
  404e28:	eba7 070a 	sub.w	r7, r7, sl
  404e2c:	6093      	str	r3, [r2, #8]
  404e2e:	2b00      	cmp	r3, #0
  404e30:	d0c5      	beq.n	404dbe <__sfvwrite_r+0x5e>
  404e32:	89a3      	ldrh	r3, [r4, #12]
  404e34:	2f00      	cmp	r7, #0
  404e36:	d1d8      	bne.n	404dea <__sfvwrite_r+0x8a>
  404e38:	f8d5 9000 	ldr.w	r9, [r5]
  404e3c:	686f      	ldr	r7, [r5, #4]
  404e3e:	3508      	adds	r5, #8
  404e40:	e7d2      	b.n	404de8 <__sfvwrite_r+0x88>
  404e42:	f8d5 9000 	ldr.w	r9, [r5]
  404e46:	f8d5 8004 	ldr.w	r8, [r5, #4]
  404e4a:	3508      	adds	r5, #8
  404e4c:	e79f      	b.n	404d8e <__sfvwrite_r+0x2e>
  404e4e:	2000      	movs	r0, #0
  404e50:	4770      	bx	lr
  404e52:	4621      	mov	r1, r4
  404e54:	9800      	ldr	r0, [sp, #0]
  404e56:	f7ff fd1f 	bl	404898 <_fflush_r>
  404e5a:	b370      	cbz	r0, 404eba <__sfvwrite_r+0x15a>
  404e5c:	f9b4 300c 	ldrsh.w	r3, [r4, #12]
  404e60:	f043 0340 	orr.w	r3, r3, #64	; 0x40
  404e64:	f04f 30ff 	mov.w	r0, #4294967295
  404e68:	81a3      	strh	r3, [r4, #12]
  404e6a:	b003      	add	sp, #12
  404e6c:	e8bd 8ff0 	ldmia.w	sp!, {r4, r5, r6, r7, r8, r9, sl, fp, pc}
  404e70:	4681      	mov	r9, r0
  404e72:	4633      	mov	r3, r6
  404e74:	464e      	mov	r6, r9
  404e76:	46a8      	mov	r8, r5
  404e78:	469a      	mov	sl, r3
  404e7a:	464d      	mov	r5, r9
  404e7c:	b34e      	cbz	r6, 404ed2 <__sfvwrite_r+0x172>
  404e7e:	b380      	cbz	r0, 404ee2 <__sfvwrite_r+0x182>
  404e80:	6820      	ldr	r0, [r4, #0]
  404e82:	6923      	ldr	r3, [r4, #16]
  404e84:	6962      	ldr	r2, [r4, #20]
  404e86:	45b1      	cmp	r9, r6
  404e88:	46cb      	mov	fp, r9
  404e8a:	bf28      	it	cs
  404e8c:	46b3      	movcs	fp, r6
  404e8e:	4298      	cmp	r0, r3
  404e90:	465f      	mov	r7, fp
  404e92:	d904      	bls.n	404e9e <__sfvwrite_r+0x13e>
  404e94:	68a3      	ldr	r3, [r4, #8]
  404e96:	4413      	add	r3, r2
  404e98:	459b      	cmp	fp, r3
  404e9a:	f300 80a6 	bgt.w	404fea <__sfvwrite_r+0x28a>
  404e9e:	4593      	cmp	fp, r2
  404ea0:	db4b      	blt.n	404f3a <__sfvwrite_r+0x1da>
  404ea2:	4613      	mov	r3, r2
  404ea4:	6a67      	ldr	r7, [r4, #36]	; 0x24
  404ea6:	69e1      	ldr	r1, [r4, #28]
  404ea8:	9800      	ldr	r0, [sp, #0]
  404eaa:	462a      	mov	r2, r5
  404eac:	47b8      	blx	r7
  404eae:	1e07      	subs	r7, r0, #0
  404eb0:	ddd4      	ble.n	404e5c <__sfvwrite_r+0xfc>
  404eb2:	ebb9 0907 	subs.w	r9, r9, r7
  404eb6:	d0cc      	beq.n	404e52 <__sfvwrite_r+0xf2>
  404eb8:	2001      	movs	r0, #1
  404eba:	f8da 3008 	ldr.w	r3, [sl, #8]
  404ebe:	1bdb      	subs	r3, r3, r7
  404ec0:	443d      	add	r5, r7
  404ec2:	1bf6      	subs	r6, r6, r7
  404ec4:	f8ca 3008 	str.w	r3, [sl, #8]
  404ec8:	2b00      	cmp	r3, #0
  404eca:	f43f af78 	beq.w	404dbe <__sfvwrite_r+0x5e>
  404ece:	2e00      	cmp	r6, #0
  404ed0:	d1d5      	bne.n	404e7e <__sfvwrite_r+0x11e>
  404ed2:	f108 0308 	add.w	r3, r8, #8
  404ed6:	e913 0060 	ldmdb	r3, {r5, r6}
  404eda:	4698      	mov	r8, r3
  404edc:	3308      	adds	r3, #8
  404ede:	2e00      	cmp	r6, #0
  404ee0:	d0f9      	beq.n	404ed6 <__sfvwrite_r+0x176>
  404ee2:	4632      	mov	r2, r6
  404ee4:	210a      	movs	r1, #10
  404ee6:	4628      	mov	r0, r5
  404ee8:	f000 f982 	bl	4051f0 <memchr>
  404eec:	2800      	cmp	r0, #0
  404eee:	f000 80a1 	beq.w	405034 <__sfvwrite_r+0x2d4>
  404ef2:	3001      	adds	r0, #1
  404ef4:	eba0 0905 	sub.w	r9, r0, r5
  404ef8:	e7c2      	b.n	404e80 <__sfvwrite_r+0x120>
  404efa:	6820      	ldr	r0, [r4, #0]
  404efc:	6923      	ldr	r3, [r4, #16]
  404efe:	4298      	cmp	r0, r3
  404f00:	d802      	bhi.n	404f08 <__sfvwrite_r+0x1a8>
  404f02:	6963      	ldr	r3, [r4, #20]
  404f04:	429f      	cmp	r7, r3
  404f06:	d25d      	bcs.n	404fc4 <__sfvwrite_r+0x264>
  404f08:	45b8      	cmp	r8, r7
  404f0a:	bf28      	it	cs
  404f0c:	46b8      	movcs	r8, r7
  404f0e:	4642      	mov	r2, r8
  404f10:	4649      	mov	r1, r9
  404f12:	f000 f9bd 	bl	405290 <memmove>
  404f16:	68a3      	ldr	r3, [r4, #8]
  404f18:	6822      	ldr	r2, [r4, #0]
  404f1a:	eba3 0308 	sub.w	r3, r3, r8
  404f1e:	4442      	add	r2, r8
  404f20:	60a3      	str	r3, [r4, #8]
  404f22:	6022      	str	r2, [r4, #0]
  404f24:	b10b      	cbz	r3, 404f2a <__sfvwrite_r+0x1ca>
  404f26:	46c2      	mov	sl, r8
  404f28:	e779      	b.n	404e1e <__sfvwrite_r+0xbe>
  404f2a:	4621      	mov	r1, r4
  404f2c:	9800      	ldr	r0, [sp, #0]
  404f2e:	f7ff fcb3 	bl	404898 <_fflush_r>
  404f32:	2800      	cmp	r0, #0
  404f34:	d192      	bne.n	404e5c <__sfvwrite_r+0xfc>
  404f36:	46c2      	mov	sl, r8
  404f38:	e771      	b.n	404e1e <__sfvwrite_r+0xbe>
  404f3a:	465a      	mov	r2, fp
  404f3c:	4629      	mov	r1, r5
  404f3e:	f000 f9a7 	bl	405290 <memmove>
  404f42:	68a2      	ldr	r2, [r4, #8]
  404f44:	6823      	ldr	r3, [r4, #0]
  404f46:	eba2 020b 	sub.w	r2, r2, fp
  404f4a:	445b      	add	r3, fp
  404f4c:	60a2      	str	r2, [r4, #8]
  404f4e:	6023      	str	r3, [r4, #0]
  404f50:	e7af      	b.n	404eb2 <__sfvwrite_r+0x152>
  404f52:	6820      	ldr	r0, [r4, #0]
  404f54:	46b8      	mov	r8, r7
  404f56:	46ba      	mov	sl, r7
  404f58:	46bb      	mov	fp, r7
  404f5a:	e755      	b.n	404e08 <__sfvwrite_r+0xa8>
  404f5c:	6962      	ldr	r2, [r4, #20]
  404f5e:	6820      	ldr	r0, [r4, #0]
  404f60:	6921      	ldr	r1, [r4, #16]
  404f62:	eb02 0842 	add.w	r8, r2, r2, lsl #1
  404f66:	eba0 0a01 	sub.w	sl, r0, r1
  404f6a:	eb08 78d8 	add.w	r8, r8, r8, lsr #31
  404f6e:	f10a 0001 	add.w	r0, sl, #1
  404f72:	ea4f 0868 	mov.w	r8, r8, asr #1
  404f76:	4438      	add	r0, r7
  404f78:	4540      	cmp	r0, r8
  404f7a:	4642      	mov	r2, r8
  404f7c:	bf84      	itt	hi
  404f7e:	4680      	movhi	r8, r0
  404f80:	4642      	movhi	r2, r8
  404f82:	055b      	lsls	r3, r3, #21
  404f84:	d544      	bpl.n	405010 <__sfvwrite_r+0x2b0>
  404f86:	4611      	mov	r1, r2
  404f88:	9800      	ldr	r0, [sp, #0]
  404f8a:	f7fd ff9b 	bl	402ec4 <_malloc_r>
  404f8e:	4683      	mov	fp, r0
  404f90:	2800      	cmp	r0, #0
  404f92:	d055      	beq.n	405040 <__sfvwrite_r+0x2e0>
  404f94:	4652      	mov	r2, sl
  404f96:	6921      	ldr	r1, [r4, #16]
  404f98:	f7fe fa44 	bl	403424 <memcpy>
  404f9c:	89a3      	ldrh	r3, [r4, #12]
  404f9e:	f423 6390 	bic.w	r3, r3, #1152	; 0x480
  404fa2:	f043 0380 	orr.w	r3, r3, #128	; 0x80
  404fa6:	81a3      	strh	r3, [r4, #12]
  404fa8:	eb0b 000a 	add.w	r0, fp, sl
  404fac:	eba8 030a 	sub.w	r3, r8, sl
  404fb0:	f8c4 b010 	str.w	fp, [r4, #16]
  404fb4:	f8c4 8014 	str.w	r8, [r4, #20]
  404fb8:	6020      	str	r0, [r4, #0]
  404fba:	60a3      	str	r3, [r4, #8]
  404fbc:	46b8      	mov	r8, r7
  404fbe:	46ba      	mov	sl, r7
  404fc0:	46bb      	mov	fp, r7
  404fc2:	e721      	b.n	404e08 <__sfvwrite_r+0xa8>
  404fc4:	f06f 4100 	mvn.w	r1, #2147483648	; 0x80000000
  404fc8:	42b9      	cmp	r1, r7
  404fca:	bf28      	it	cs
  404fcc:	4639      	movcs	r1, r7
  404fce:	464a      	mov	r2, r9
  404fd0:	fb91 f1f3 	sdiv	r1, r1, r3
  404fd4:	9800      	ldr	r0, [sp, #0]
  404fd6:	6a66      	ldr	r6, [r4, #36]	; 0x24
  404fd8:	fb03 f301 	mul.w	r3, r3, r1
  404fdc:	69e1      	ldr	r1, [r4, #28]
  404fde:	47b0      	blx	r6
  404fe0:	f1b0 0a00 	subs.w	sl, r0, #0
  404fe4:	f73f af1b 	bgt.w	404e1e <__sfvwrite_r+0xbe>
  404fe8:	e738      	b.n	404e5c <__sfvwrite_r+0xfc>
  404fea:	461a      	mov	r2, r3
  404fec:	4629      	mov	r1, r5
  404fee:	9301      	str	r3, [sp, #4]
  404ff0:	f000 f94e 	bl	405290 <memmove>
  404ff4:	6822      	ldr	r2, [r4, #0]
  404ff6:	9b01      	ldr	r3, [sp, #4]
  404ff8:	9800      	ldr	r0, [sp, #0]
  404ffa:	441a      	add	r2, r3
  404ffc:	6022      	str	r2, [r4, #0]
  404ffe:	4621      	mov	r1, r4
  405000:	f7ff fc4a 	bl	404898 <_fflush_r>
  405004:	9b01      	ldr	r3, [sp, #4]
  405006:	2800      	cmp	r0, #0
  405008:	f47f af28 	bne.w	404e5c <__sfvwrite_r+0xfc>
  40500c:	461f      	mov	r7, r3
  40500e:	e750      	b.n	404eb2 <__sfvwrite_r+0x152>
  405010:	9800      	ldr	r0, [sp, #0]
  405012:	f000 f9a1 	bl	405358 <_realloc_r>
  405016:	4683      	mov	fp, r0
  405018:	2800      	cmp	r0, #0
  40501a:	d1c5      	bne.n	404fa8 <__sfvwrite_r+0x248>
  40501c:	9d00      	ldr	r5, [sp, #0]
  40501e:	6921      	ldr	r1, [r4, #16]
  405020:	4628      	mov	r0, r5
  405022:	f7ff fdb7 	bl	404b94 <_free_r>
  405026:	f9b4 300c 	ldrsh.w	r3, [r4, #12]
  40502a:	220c      	movs	r2, #12
  40502c:	f023 0380 	bic.w	r3, r3, #128	; 0x80
  405030:	602a      	str	r2, [r5, #0]
  405032:	e715      	b.n	404e60 <__sfvwrite_r+0x100>
  405034:	f106 0901 	add.w	r9, r6, #1
  405038:	e722      	b.n	404e80 <__sfvwrite_r+0x120>
  40503a:	f04f 30ff 	mov.w	r0, #4294967295
  40503e:	e6bf      	b.n	404dc0 <__sfvwrite_r+0x60>
  405040:	9a00      	ldr	r2, [sp, #0]
  405042:	230c      	movs	r3, #12
  405044:	6013      	str	r3, [r2, #0]
  405046:	f9b4 300c 	ldrsh.w	r3, [r4, #12]
  40504a:	e709      	b.n	404e60 <__sfvwrite_r+0x100>
  40504c:	7ffffc00 	.word	0x7ffffc00

00405050 <_fwalk_reent>:
  405050:	e92d 43f8 	stmdb	sp!, {r3, r4, r5, r6, r7, r8, r9, lr}
  405054:	f510 7738 	adds.w	r7, r0, #736	; 0x2e0
  405058:	d01f      	beq.n	40509a <_fwalk_reent+0x4a>
  40505a:	4688      	mov	r8, r1
  40505c:	4606      	mov	r6, r0
  40505e:	f04f 0900 	mov.w	r9, #0
  405062:	687d      	ldr	r5, [r7, #4]
  405064:	68bc      	ldr	r4, [r7, #8]
  405066:	3d01      	subs	r5, #1
  405068:	d411      	bmi.n	40508e <_fwalk_reent+0x3e>
  40506a:	89a3      	ldrh	r3, [r4, #12]
  40506c:	2b01      	cmp	r3, #1
  40506e:	f105 35ff 	add.w	r5, r5, #4294967295
  405072:	d908      	bls.n	405086 <_fwalk_reent+0x36>
  405074:	f9b4 300e 	ldrsh.w	r3, [r4, #14]
  405078:	3301      	adds	r3, #1
  40507a:	4621      	mov	r1, r4
  40507c:	4630      	mov	r0, r6
  40507e:	d002      	beq.n	405086 <_fwalk_reent+0x36>
  405080:	47c0      	blx	r8
  405082:	ea49 0900 	orr.w	r9, r9, r0
  405086:	1c6b      	adds	r3, r5, #1
  405088:	f104 0468 	add.w	r4, r4, #104	; 0x68
  40508c:	d1ed      	bne.n	40506a <_fwalk_reent+0x1a>
  40508e:	683f      	ldr	r7, [r7, #0]
  405090:	2f00      	cmp	r7, #0
  405092:	d1e6      	bne.n	405062 <_fwalk_reent+0x12>
  405094:	4648      	mov	r0, r9
  405096:	e8bd 83f8 	ldmia.w	sp!, {r3, r4, r5, r6, r7, r8, r9, pc}
  40509a:	46b9      	mov	r9, r7
  40509c:	4648      	mov	r0, r9
  40509e:	e8bd 83f8 	ldmia.w	sp!, {r3, r4, r5, r6, r7, r8, r9, pc}
  4050a2:	bf00      	nop

004050a4 <__locale_mb_cur_max>:
  4050a4:	4b04      	ldr	r3, [pc, #16]	; (4050b8 <__locale_mb_cur_max+0x14>)
  4050a6:	4a05      	ldr	r2, [pc, #20]	; (4050bc <__locale_mb_cur_max+0x18>)
  4050a8:	681b      	ldr	r3, [r3, #0]
  4050aa:	6b5b      	ldr	r3, [r3, #52]	; 0x34
  4050ac:	2b00      	cmp	r3, #0
  4050ae:	bf08      	it	eq
  4050b0:	4613      	moveq	r3, r2
  4050b2:	f893 0128 	ldrb.w	r0, [r3, #296]	; 0x128
  4050b6:	4770      	bx	lr
  4050b8:	20400014 	.word	0x20400014
  4050bc:	20400854 	.word	0x20400854

004050c0 <__retarget_lock_init_recursive>:
  4050c0:	4770      	bx	lr
  4050c2:	bf00      	nop

004050c4 <__retarget_lock_close_recursive>:
  4050c4:	4770      	bx	lr
  4050c6:	bf00      	nop

004050c8 <__retarget_lock_acquire_recursive>:
  4050c8:	4770      	bx	lr
  4050ca:	bf00      	nop

004050cc <__retarget_lock_release_recursive>:
  4050cc:	4770      	bx	lr
  4050ce:	bf00      	nop

004050d0 <__swhatbuf_r>:
  4050d0:	b570      	push	{r4, r5, r6, lr}
  4050d2:	460c      	mov	r4, r1
  4050d4:	f9b1 100e 	ldrsh.w	r1, [r1, #14]
  4050d8:	2900      	cmp	r1, #0
  4050da:	b090      	sub	sp, #64	; 0x40
  4050dc:	4615      	mov	r5, r2
  4050de:	461e      	mov	r6, r3
  4050e0:	db14      	blt.n	40510c <__swhatbuf_r+0x3c>
  4050e2:	aa01      	add	r2, sp, #4
  4050e4:	f000 fc9e 	bl	405a24 <_fstat_r>
  4050e8:	2800      	cmp	r0, #0
  4050ea:	db0f      	blt.n	40510c <__swhatbuf_r+0x3c>
  4050ec:	9a02      	ldr	r2, [sp, #8]
  4050ee:	f402 4270 	and.w	r2, r2, #61440	; 0xf000
  4050f2:	f5a2 5200 	sub.w	r2, r2, #8192	; 0x2000
  4050f6:	fab2 f282 	clz	r2, r2
  4050fa:	0952      	lsrs	r2, r2, #5
  4050fc:	f44f 6380 	mov.w	r3, #1024	; 0x400
  405100:	f44f 6000 	mov.w	r0, #2048	; 0x800
  405104:	6032      	str	r2, [r6, #0]
  405106:	602b      	str	r3, [r5, #0]
  405108:	b010      	add	sp, #64	; 0x40
  40510a:	bd70      	pop	{r4, r5, r6, pc}
  40510c:	89a2      	ldrh	r2, [r4, #12]
  40510e:	2300      	movs	r3, #0
  405110:	f012 0080 	ands.w	r0, r2, #128	; 0x80
  405114:	6033      	str	r3, [r6, #0]
  405116:	d004      	beq.n	405122 <__swhatbuf_r+0x52>
  405118:	2240      	movs	r2, #64	; 0x40
  40511a:	4618      	mov	r0, r3
  40511c:	602a      	str	r2, [r5, #0]
  40511e:	b010      	add	sp, #64	; 0x40
  405120:	bd70      	pop	{r4, r5, r6, pc}
  405122:	f44f 6380 	mov.w	r3, #1024	; 0x400
  405126:	602b      	str	r3, [r5, #0]
  405128:	b010      	add	sp, #64	; 0x40
  40512a:	bd70      	pop	{r4, r5, r6, pc}

0040512c <__smakebuf_r>:
  40512c:	898a      	ldrh	r2, [r1, #12]
  40512e:	0792      	lsls	r2, r2, #30
  405130:	460b      	mov	r3, r1
  405132:	d506      	bpl.n	405142 <__smakebuf_r+0x16>
  405134:	f101 0243 	add.w	r2, r1, #67	; 0x43
  405138:	2101      	movs	r1, #1
  40513a:	601a      	str	r2, [r3, #0]
  40513c:	611a      	str	r2, [r3, #16]
  40513e:	6159      	str	r1, [r3, #20]
  405140:	4770      	bx	lr
  405142:	b5f0      	push	{r4, r5, r6, r7, lr}
  405144:	b083      	sub	sp, #12
  405146:	ab01      	add	r3, sp, #4
  405148:	466a      	mov	r2, sp
  40514a:	460c      	mov	r4, r1
  40514c:	4606      	mov	r6, r0
  40514e:	f7ff ffbf 	bl	4050d0 <__swhatbuf_r>
  405152:	9900      	ldr	r1, [sp, #0]
  405154:	4605      	mov	r5, r0
  405156:	4630      	mov	r0, r6
  405158:	f7fd feb4 	bl	402ec4 <_malloc_r>
  40515c:	f9b4 300c 	ldrsh.w	r3, [r4, #12]
  405160:	b1d8      	cbz	r0, 40519a <__smakebuf_r+0x6e>
  405162:	9a01      	ldr	r2, [sp, #4]
  405164:	4f15      	ldr	r7, [pc, #84]	; (4051bc <__smakebuf_r+0x90>)
  405166:	9900      	ldr	r1, [sp, #0]
  405168:	63f7      	str	r7, [r6, #60]	; 0x3c
  40516a:	f043 0380 	orr.w	r3, r3, #128	; 0x80
  40516e:	81a3      	strh	r3, [r4, #12]
  405170:	6020      	str	r0, [r4, #0]
  405172:	6120      	str	r0, [r4, #16]
  405174:	6161      	str	r1, [r4, #20]
  405176:	b91a      	cbnz	r2, 405180 <__smakebuf_r+0x54>
  405178:	432b      	orrs	r3, r5
  40517a:	81a3      	strh	r3, [r4, #12]
  40517c:	b003      	add	sp, #12
  40517e:	bdf0      	pop	{r4, r5, r6, r7, pc}
  405180:	4630      	mov	r0, r6
  405182:	f9b4 100e 	ldrsh.w	r1, [r4, #14]
  405186:	f000 fc61 	bl	405a4c <_isatty_r>
  40518a:	b1a0      	cbz	r0, 4051b6 <__smakebuf_r+0x8a>
  40518c:	89a3      	ldrh	r3, [r4, #12]
  40518e:	f023 0303 	bic.w	r3, r3, #3
  405192:	f043 0301 	orr.w	r3, r3, #1
  405196:	b21b      	sxth	r3, r3
  405198:	e7ee      	b.n	405178 <__smakebuf_r+0x4c>
  40519a:	059a      	lsls	r2, r3, #22
  40519c:	d4ee      	bmi.n	40517c <__smakebuf_r+0x50>
  40519e:	f023 0303 	bic.w	r3, r3, #3
  4051a2:	f104 0243 	add.w	r2, r4, #67	; 0x43
  4051a6:	f043 0302 	orr.w	r3, r3, #2
  4051aa:	2101      	movs	r1, #1
  4051ac:	81a3      	strh	r3, [r4, #12]
  4051ae:	6022      	str	r2, [r4, #0]
  4051b0:	6122      	str	r2, [r4, #16]
  4051b2:	6161      	str	r1, [r4, #20]
  4051b4:	e7e2      	b.n	40517c <__smakebuf_r+0x50>
  4051b6:	f9b4 300c 	ldrsh.w	r3, [r4, #12]
  4051ba:	e7dd      	b.n	405178 <__smakebuf_r+0x4c>
  4051bc:	004048ed 	.word	0x004048ed

004051c0 <__ascii_mbtowc>:
  4051c0:	b082      	sub	sp, #8
  4051c2:	b149      	cbz	r1, 4051d8 <__ascii_mbtowc+0x18>
  4051c4:	b15a      	cbz	r2, 4051de <__ascii_mbtowc+0x1e>
  4051c6:	b16b      	cbz	r3, 4051e4 <__ascii_mbtowc+0x24>
  4051c8:	7813      	ldrb	r3, [r2, #0]
  4051ca:	600b      	str	r3, [r1, #0]
  4051cc:	7812      	ldrb	r2, [r2, #0]
  4051ce:	1c10      	adds	r0, r2, #0
  4051d0:	bf18      	it	ne
  4051d2:	2001      	movne	r0, #1
  4051d4:	b002      	add	sp, #8
  4051d6:	4770      	bx	lr
  4051d8:	a901      	add	r1, sp, #4
  4051da:	2a00      	cmp	r2, #0
  4051dc:	d1f3      	bne.n	4051c6 <__ascii_mbtowc+0x6>
  4051de:	4610      	mov	r0, r2
  4051e0:	b002      	add	sp, #8
  4051e2:	4770      	bx	lr
  4051e4:	f06f 0001 	mvn.w	r0, #1
  4051e8:	e7f4      	b.n	4051d4 <__ascii_mbtowc+0x14>
  4051ea:	bf00      	nop
  4051ec:	0000      	movs	r0, r0
	...

004051f0 <memchr>:
  4051f0:	f001 01ff 	and.w	r1, r1, #255	; 0xff
  4051f4:	2a10      	cmp	r2, #16
  4051f6:	db2b      	blt.n	405250 <memchr+0x60>
  4051f8:	f010 0f07 	tst.w	r0, #7
  4051fc:	d008      	beq.n	405210 <memchr+0x20>
  4051fe:	f810 3b01 	ldrb.w	r3, [r0], #1
  405202:	3a01      	subs	r2, #1
  405204:	428b      	cmp	r3, r1
  405206:	d02d      	beq.n	405264 <memchr+0x74>
  405208:	f010 0f07 	tst.w	r0, #7
  40520c:	b342      	cbz	r2, 405260 <memchr+0x70>
  40520e:	d1f6      	bne.n	4051fe <memchr+0xe>
  405210:	b4f0      	push	{r4, r5, r6, r7}
  405212:	ea41 2101 	orr.w	r1, r1, r1, lsl #8
  405216:	ea41 4101 	orr.w	r1, r1, r1, lsl #16
  40521a:	f022 0407 	bic.w	r4, r2, #7
  40521e:	f07f 0700 	mvns.w	r7, #0
  405222:	2300      	movs	r3, #0
  405224:	e8f0 5602 	ldrd	r5, r6, [r0], #8
  405228:	3c08      	subs	r4, #8
  40522a:	ea85 0501 	eor.w	r5, r5, r1
  40522e:	ea86 0601 	eor.w	r6, r6, r1
  405232:	fa85 f547 	uadd8	r5, r5, r7
  405236:	faa3 f587 	sel	r5, r3, r7
  40523a:	fa86 f647 	uadd8	r6, r6, r7
  40523e:	faa5 f687 	sel	r6, r5, r7
  405242:	b98e      	cbnz	r6, 405268 <memchr+0x78>
  405244:	d1ee      	bne.n	405224 <memchr+0x34>
  405246:	bcf0      	pop	{r4, r5, r6, r7}
  405248:	f001 01ff 	and.w	r1, r1, #255	; 0xff
  40524c:	f002 0207 	and.w	r2, r2, #7
  405250:	b132      	cbz	r2, 405260 <memchr+0x70>
  405252:	f810 3b01 	ldrb.w	r3, [r0], #1
  405256:	3a01      	subs	r2, #1
  405258:	ea83 0301 	eor.w	r3, r3, r1
  40525c:	b113      	cbz	r3, 405264 <memchr+0x74>
  40525e:	d1f8      	bne.n	405252 <memchr+0x62>
  405260:	2000      	movs	r0, #0
  405262:	4770      	bx	lr
  405264:	3801      	subs	r0, #1
  405266:	4770      	bx	lr
  405268:	2d00      	cmp	r5, #0
  40526a:	bf06      	itte	eq
  40526c:	4635      	moveq	r5, r6
  40526e:	3803      	subeq	r0, #3
  405270:	3807      	subne	r0, #7
  405272:	f015 0f01 	tst.w	r5, #1
  405276:	d107      	bne.n	405288 <memchr+0x98>
  405278:	3001      	adds	r0, #1
  40527a:	f415 7f80 	tst.w	r5, #256	; 0x100
  40527e:	bf02      	ittt	eq
  405280:	3001      	addeq	r0, #1
  405282:	f415 3fc0 	tsteq.w	r5, #98304	; 0x18000
  405286:	3001      	addeq	r0, #1
  405288:	bcf0      	pop	{r4, r5, r6, r7}
  40528a:	3801      	subs	r0, #1
  40528c:	4770      	bx	lr
  40528e:	bf00      	nop

00405290 <memmove>:
  405290:	4288      	cmp	r0, r1
  405292:	b5f0      	push	{r4, r5, r6, r7, lr}
  405294:	d90d      	bls.n	4052b2 <memmove+0x22>
  405296:	188b      	adds	r3, r1, r2
  405298:	4298      	cmp	r0, r3
  40529a:	d20a      	bcs.n	4052b2 <memmove+0x22>
  40529c:	1884      	adds	r4, r0, r2
  40529e:	2a00      	cmp	r2, #0
  4052a0:	d051      	beq.n	405346 <memmove+0xb6>
  4052a2:	4622      	mov	r2, r4
  4052a4:	f813 4d01 	ldrb.w	r4, [r3, #-1]!
  4052a8:	f802 4d01 	strb.w	r4, [r2, #-1]!
  4052ac:	4299      	cmp	r1, r3
  4052ae:	d1f9      	bne.n	4052a4 <memmove+0x14>
  4052b0:	bdf0      	pop	{r4, r5, r6, r7, pc}
  4052b2:	2a0f      	cmp	r2, #15
  4052b4:	d948      	bls.n	405348 <memmove+0xb8>
  4052b6:	ea41 0300 	orr.w	r3, r1, r0
  4052ba:	079b      	lsls	r3, r3, #30
  4052bc:	d146      	bne.n	40534c <memmove+0xbc>
  4052be:	f100 0410 	add.w	r4, r0, #16
  4052c2:	f101 0310 	add.w	r3, r1, #16
  4052c6:	4615      	mov	r5, r2
  4052c8:	f853 6c10 	ldr.w	r6, [r3, #-16]
  4052cc:	f844 6c10 	str.w	r6, [r4, #-16]
  4052d0:	f853 6c0c 	ldr.w	r6, [r3, #-12]
  4052d4:	f844 6c0c 	str.w	r6, [r4, #-12]
  4052d8:	f853 6c08 	ldr.w	r6, [r3, #-8]
  4052dc:	f844 6c08 	str.w	r6, [r4, #-8]
  4052e0:	3d10      	subs	r5, #16
  4052e2:	f853 6c04 	ldr.w	r6, [r3, #-4]
  4052e6:	f844 6c04 	str.w	r6, [r4, #-4]
  4052ea:	2d0f      	cmp	r5, #15
  4052ec:	f103 0310 	add.w	r3, r3, #16
  4052f0:	f104 0410 	add.w	r4, r4, #16
  4052f4:	d8e8      	bhi.n	4052c8 <memmove+0x38>
  4052f6:	f1a2 0310 	sub.w	r3, r2, #16
  4052fa:	f023 030f 	bic.w	r3, r3, #15
  4052fe:	f002 0e0f 	and.w	lr, r2, #15
  405302:	3310      	adds	r3, #16
  405304:	f1be 0f03 	cmp.w	lr, #3
  405308:	4419      	add	r1, r3
  40530a:	4403      	add	r3, r0
  40530c:	d921      	bls.n	405352 <memmove+0xc2>
  40530e:	1f1e      	subs	r6, r3, #4
  405310:	460d      	mov	r5, r1
  405312:	4674      	mov	r4, lr
  405314:	3c04      	subs	r4, #4
  405316:	f855 7b04 	ldr.w	r7, [r5], #4
  40531a:	f846 7f04 	str.w	r7, [r6, #4]!
  40531e:	2c03      	cmp	r4, #3
  405320:	d8f8      	bhi.n	405314 <memmove+0x84>
  405322:	f1ae 0404 	sub.w	r4, lr, #4
  405326:	f024 0403 	bic.w	r4, r4, #3
  40532a:	3404      	adds	r4, #4
  40532c:	4421      	add	r1, r4
  40532e:	4423      	add	r3, r4
  405330:	f002 0203 	and.w	r2, r2, #3
  405334:	b162      	cbz	r2, 405350 <memmove+0xc0>
  405336:	3b01      	subs	r3, #1
  405338:	440a      	add	r2, r1
  40533a:	f811 4b01 	ldrb.w	r4, [r1], #1
  40533e:	f803 4f01 	strb.w	r4, [r3, #1]!
  405342:	428a      	cmp	r2, r1
  405344:	d1f9      	bne.n	40533a <memmove+0xaa>
  405346:	bdf0      	pop	{r4, r5, r6, r7, pc}
  405348:	4603      	mov	r3, r0
  40534a:	e7f3      	b.n	405334 <memmove+0xa4>
  40534c:	4603      	mov	r3, r0
  40534e:	e7f2      	b.n	405336 <memmove+0xa6>
  405350:	bdf0      	pop	{r4, r5, r6, r7, pc}
  405352:	4672      	mov	r2, lr
  405354:	e7ee      	b.n	405334 <memmove+0xa4>
  405356:	bf00      	nop

00405358 <_realloc_r>:
  405358:	2900      	cmp	r1, #0
  40535a:	f000 8095 	beq.w	405488 <_realloc_r+0x130>
  40535e:	e92d 4ff0 	stmdb	sp!, {r4, r5, r6, r7, r8, r9, sl, fp, lr}
  405362:	460d      	mov	r5, r1
  405364:	4616      	mov	r6, r2
  405366:	b083      	sub	sp, #12
  405368:	4680      	mov	r8, r0
  40536a:	f106 070b 	add.w	r7, r6, #11
  40536e:	f7fe f941 	bl	4035f4 <__malloc_lock>
  405372:	f855 ec04 	ldr.w	lr, [r5, #-4]
  405376:	2f16      	cmp	r7, #22
  405378:	f02e 0403 	bic.w	r4, lr, #3
  40537c:	f1a5 0908 	sub.w	r9, r5, #8
  405380:	d83c      	bhi.n	4053fc <_realloc_r+0xa4>
  405382:	2210      	movs	r2, #16
  405384:	4617      	mov	r7, r2
  405386:	42be      	cmp	r6, r7
  405388:	d83d      	bhi.n	405406 <_realloc_r+0xae>
  40538a:	4294      	cmp	r4, r2
  40538c:	da43      	bge.n	405416 <_realloc_r+0xbe>
  40538e:	4bc4      	ldr	r3, [pc, #784]	; (4056a0 <_realloc_r+0x348>)
  405390:	6899      	ldr	r1, [r3, #8]
  405392:	eb09 0004 	add.w	r0, r9, r4
  405396:	4288      	cmp	r0, r1
  405398:	f000 80b4 	beq.w	405504 <_realloc_r+0x1ac>
  40539c:	6843      	ldr	r3, [r0, #4]
  40539e:	f023 0101 	bic.w	r1, r3, #1
  4053a2:	4401      	add	r1, r0
  4053a4:	6849      	ldr	r1, [r1, #4]
  4053a6:	07c9      	lsls	r1, r1, #31
  4053a8:	d54c      	bpl.n	405444 <_realloc_r+0xec>
  4053aa:	f01e 0f01 	tst.w	lr, #1
  4053ae:	f000 809b 	beq.w	4054e8 <_realloc_r+0x190>
  4053b2:	4631      	mov	r1, r6
  4053b4:	4640      	mov	r0, r8
  4053b6:	f7fd fd85 	bl	402ec4 <_malloc_r>
  4053ba:	4606      	mov	r6, r0
  4053bc:	2800      	cmp	r0, #0
  4053be:	d03a      	beq.n	405436 <_realloc_r+0xde>
  4053c0:	f855 3c04 	ldr.w	r3, [r5, #-4]
  4053c4:	f023 0301 	bic.w	r3, r3, #1
  4053c8:	444b      	add	r3, r9
  4053ca:	f1a0 0208 	sub.w	r2, r0, #8
  4053ce:	429a      	cmp	r2, r3
  4053d0:	f000 8121 	beq.w	405616 <_realloc_r+0x2be>
  4053d4:	1f22      	subs	r2, r4, #4
  4053d6:	2a24      	cmp	r2, #36	; 0x24
  4053d8:	f200 8107 	bhi.w	4055ea <_realloc_r+0x292>
  4053dc:	2a13      	cmp	r2, #19
  4053de:	f200 80db 	bhi.w	405598 <_realloc_r+0x240>
  4053e2:	4603      	mov	r3, r0
  4053e4:	462a      	mov	r2, r5
  4053e6:	6811      	ldr	r1, [r2, #0]
  4053e8:	6019      	str	r1, [r3, #0]
  4053ea:	6851      	ldr	r1, [r2, #4]
  4053ec:	6059      	str	r1, [r3, #4]
  4053ee:	6892      	ldr	r2, [r2, #8]
  4053f0:	609a      	str	r2, [r3, #8]
  4053f2:	4629      	mov	r1, r5
  4053f4:	4640      	mov	r0, r8
  4053f6:	f7ff fbcd 	bl	404b94 <_free_r>
  4053fa:	e01c      	b.n	405436 <_realloc_r+0xde>
  4053fc:	f027 0707 	bic.w	r7, r7, #7
  405400:	2f00      	cmp	r7, #0
  405402:	463a      	mov	r2, r7
  405404:	dabf      	bge.n	405386 <_realloc_r+0x2e>
  405406:	2600      	movs	r6, #0
  405408:	230c      	movs	r3, #12
  40540a:	4630      	mov	r0, r6
  40540c:	f8c8 3000 	str.w	r3, [r8]
  405410:	b003      	add	sp, #12
  405412:	e8bd 8ff0 	ldmia.w	sp!, {r4, r5, r6, r7, r8, r9, sl, fp, pc}
  405416:	462e      	mov	r6, r5
  405418:	1be3      	subs	r3, r4, r7
  40541a:	2b0f      	cmp	r3, #15
  40541c:	d81e      	bhi.n	40545c <_realloc_r+0x104>
  40541e:	f8d9 3004 	ldr.w	r3, [r9, #4]
  405422:	f003 0301 	and.w	r3, r3, #1
  405426:	4323      	orrs	r3, r4
  405428:	444c      	add	r4, r9
  40542a:	f8c9 3004 	str.w	r3, [r9, #4]
  40542e:	6863      	ldr	r3, [r4, #4]
  405430:	f043 0301 	orr.w	r3, r3, #1
  405434:	6063      	str	r3, [r4, #4]
  405436:	4640      	mov	r0, r8
  405438:	f7fe f8e2 	bl	403600 <__malloc_unlock>
  40543c:	4630      	mov	r0, r6
  40543e:	b003      	add	sp, #12
  405440:	e8bd 8ff0 	ldmia.w	sp!, {r4, r5, r6, r7, r8, r9, sl, fp, pc}
  405444:	f023 0303 	bic.w	r3, r3, #3
  405448:	18e1      	adds	r1, r4, r3
  40544a:	4291      	cmp	r1, r2
  40544c:	db1f      	blt.n	40548e <_realloc_r+0x136>
  40544e:	68c3      	ldr	r3, [r0, #12]
  405450:	6882      	ldr	r2, [r0, #8]
  405452:	462e      	mov	r6, r5
  405454:	60d3      	str	r3, [r2, #12]
  405456:	460c      	mov	r4, r1
  405458:	609a      	str	r2, [r3, #8]
  40545a:	e7dd      	b.n	405418 <_realloc_r+0xc0>
  40545c:	f8d9 2004 	ldr.w	r2, [r9, #4]
  405460:	eb09 0107 	add.w	r1, r9, r7
  405464:	f002 0201 	and.w	r2, r2, #1
  405468:	444c      	add	r4, r9
  40546a:	f043 0301 	orr.w	r3, r3, #1
  40546e:	4317      	orrs	r7, r2
  405470:	f8c9 7004 	str.w	r7, [r9, #4]
  405474:	604b      	str	r3, [r1, #4]
  405476:	6863      	ldr	r3, [r4, #4]
  405478:	f043 0301 	orr.w	r3, r3, #1
  40547c:	3108      	adds	r1, #8
  40547e:	6063      	str	r3, [r4, #4]
  405480:	4640      	mov	r0, r8
  405482:	f7ff fb87 	bl	404b94 <_free_r>
  405486:	e7d6      	b.n	405436 <_realloc_r+0xde>
  405488:	4611      	mov	r1, r2
  40548a:	f7fd bd1b 	b.w	402ec4 <_malloc_r>
  40548e:	f01e 0f01 	tst.w	lr, #1
  405492:	d18e      	bne.n	4053b2 <_realloc_r+0x5a>
  405494:	f855 1c08 	ldr.w	r1, [r5, #-8]
  405498:	eba9 0a01 	sub.w	sl, r9, r1
  40549c:	f8da 1004 	ldr.w	r1, [sl, #4]
  4054a0:	f021 0103 	bic.w	r1, r1, #3
  4054a4:	440b      	add	r3, r1
  4054a6:	4423      	add	r3, r4
  4054a8:	4293      	cmp	r3, r2
  4054aa:	db25      	blt.n	4054f8 <_realloc_r+0x1a0>
  4054ac:	68c2      	ldr	r2, [r0, #12]
  4054ae:	6881      	ldr	r1, [r0, #8]
  4054b0:	4656      	mov	r6, sl
  4054b2:	60ca      	str	r2, [r1, #12]
  4054b4:	6091      	str	r1, [r2, #8]
  4054b6:	f8da 100c 	ldr.w	r1, [sl, #12]
  4054ba:	f856 0f08 	ldr.w	r0, [r6, #8]!
  4054be:	1f22      	subs	r2, r4, #4
  4054c0:	2a24      	cmp	r2, #36	; 0x24
  4054c2:	60c1      	str	r1, [r0, #12]
  4054c4:	6088      	str	r0, [r1, #8]
  4054c6:	f200 8094 	bhi.w	4055f2 <_realloc_r+0x29a>
  4054ca:	2a13      	cmp	r2, #19
  4054cc:	d96f      	bls.n	4055ae <_realloc_r+0x256>
  4054ce:	6829      	ldr	r1, [r5, #0]
  4054d0:	f8ca 1008 	str.w	r1, [sl, #8]
  4054d4:	6869      	ldr	r1, [r5, #4]
  4054d6:	f8ca 100c 	str.w	r1, [sl, #12]
  4054da:	2a1b      	cmp	r2, #27
  4054dc:	f200 80a2 	bhi.w	405624 <_realloc_r+0x2cc>
  4054e0:	3508      	adds	r5, #8
  4054e2:	f10a 0210 	add.w	r2, sl, #16
  4054e6:	e063      	b.n	4055b0 <_realloc_r+0x258>
  4054e8:	f855 3c08 	ldr.w	r3, [r5, #-8]
  4054ec:	eba9 0a03 	sub.w	sl, r9, r3
  4054f0:	f8da 1004 	ldr.w	r1, [sl, #4]
  4054f4:	f021 0103 	bic.w	r1, r1, #3
  4054f8:	1863      	adds	r3, r4, r1
  4054fa:	4293      	cmp	r3, r2
  4054fc:	f6ff af59 	blt.w	4053b2 <_realloc_r+0x5a>
  405500:	4656      	mov	r6, sl
  405502:	e7d8      	b.n	4054b6 <_realloc_r+0x15e>
  405504:	6841      	ldr	r1, [r0, #4]
  405506:	f021 0b03 	bic.w	fp, r1, #3
  40550a:	44a3      	add	fp, r4
  40550c:	f107 0010 	add.w	r0, r7, #16
  405510:	4583      	cmp	fp, r0
  405512:	da56      	bge.n	4055c2 <_realloc_r+0x26a>
  405514:	f01e 0f01 	tst.w	lr, #1
  405518:	f47f af4b 	bne.w	4053b2 <_realloc_r+0x5a>
  40551c:	f855 1c08 	ldr.w	r1, [r5, #-8]
  405520:	eba9 0a01 	sub.w	sl, r9, r1
  405524:	f8da 1004 	ldr.w	r1, [sl, #4]
  405528:	f021 0103 	bic.w	r1, r1, #3
  40552c:	448b      	add	fp, r1
  40552e:	4558      	cmp	r0, fp
  405530:	dce2      	bgt.n	4054f8 <_realloc_r+0x1a0>
  405532:	4656      	mov	r6, sl
  405534:	f8da 100c 	ldr.w	r1, [sl, #12]
  405538:	f856 0f08 	ldr.w	r0, [r6, #8]!
  40553c:	1f22      	subs	r2, r4, #4
  40553e:	2a24      	cmp	r2, #36	; 0x24
  405540:	60c1      	str	r1, [r0, #12]
  405542:	6088      	str	r0, [r1, #8]
  405544:	f200 808f 	bhi.w	405666 <_realloc_r+0x30e>
  405548:	2a13      	cmp	r2, #19
  40554a:	f240 808a 	bls.w	405662 <_realloc_r+0x30a>
  40554e:	6829      	ldr	r1, [r5, #0]
  405550:	f8ca 1008 	str.w	r1, [sl, #8]
  405554:	6869      	ldr	r1, [r5, #4]
  405556:	f8ca 100c 	str.w	r1, [sl, #12]
  40555a:	2a1b      	cmp	r2, #27
  40555c:	f200 808a 	bhi.w	405674 <_realloc_r+0x31c>
  405560:	3508      	adds	r5, #8
  405562:	f10a 0210 	add.w	r2, sl, #16
  405566:	6829      	ldr	r1, [r5, #0]
  405568:	6011      	str	r1, [r2, #0]
  40556a:	6869      	ldr	r1, [r5, #4]
  40556c:	6051      	str	r1, [r2, #4]
  40556e:	68a9      	ldr	r1, [r5, #8]
  405570:	6091      	str	r1, [r2, #8]
  405572:	eb0a 0107 	add.w	r1, sl, r7
  405576:	ebab 0207 	sub.w	r2, fp, r7
  40557a:	f042 0201 	orr.w	r2, r2, #1
  40557e:	6099      	str	r1, [r3, #8]
  405580:	604a      	str	r2, [r1, #4]
  405582:	f8da 3004 	ldr.w	r3, [sl, #4]
  405586:	f003 0301 	and.w	r3, r3, #1
  40558a:	431f      	orrs	r7, r3
  40558c:	4640      	mov	r0, r8
  40558e:	f8ca 7004 	str.w	r7, [sl, #4]
  405592:	f7fe f835 	bl	403600 <__malloc_unlock>
  405596:	e751      	b.n	40543c <_realloc_r+0xe4>
  405598:	682b      	ldr	r3, [r5, #0]
  40559a:	6003      	str	r3, [r0, #0]
  40559c:	686b      	ldr	r3, [r5, #4]
  40559e:	6043      	str	r3, [r0, #4]
  4055a0:	2a1b      	cmp	r2, #27
  4055a2:	d82d      	bhi.n	405600 <_realloc_r+0x2a8>
  4055a4:	f100 0308 	add.w	r3, r0, #8
  4055a8:	f105 0208 	add.w	r2, r5, #8
  4055ac:	e71b      	b.n	4053e6 <_realloc_r+0x8e>
  4055ae:	4632      	mov	r2, r6
  4055b0:	6829      	ldr	r1, [r5, #0]
  4055b2:	6011      	str	r1, [r2, #0]
  4055b4:	6869      	ldr	r1, [r5, #4]
  4055b6:	6051      	str	r1, [r2, #4]
  4055b8:	68a9      	ldr	r1, [r5, #8]
  4055ba:	6091      	str	r1, [r2, #8]
  4055bc:	461c      	mov	r4, r3
  4055be:	46d1      	mov	r9, sl
  4055c0:	e72a      	b.n	405418 <_realloc_r+0xc0>
  4055c2:	eb09 0107 	add.w	r1, r9, r7
  4055c6:	ebab 0b07 	sub.w	fp, fp, r7
  4055ca:	f04b 0201 	orr.w	r2, fp, #1
  4055ce:	6099      	str	r1, [r3, #8]
  4055d0:	604a      	str	r2, [r1, #4]
  4055d2:	f855 3c04 	ldr.w	r3, [r5, #-4]
  4055d6:	f003 0301 	and.w	r3, r3, #1
  4055da:	431f      	orrs	r7, r3
  4055dc:	4640      	mov	r0, r8
  4055de:	f845 7c04 	str.w	r7, [r5, #-4]
  4055e2:	f7fe f80d 	bl	403600 <__malloc_unlock>
  4055e6:	462e      	mov	r6, r5
  4055e8:	e728      	b.n	40543c <_realloc_r+0xe4>
  4055ea:	4629      	mov	r1, r5
  4055ec:	f7ff fe50 	bl	405290 <memmove>
  4055f0:	e6ff      	b.n	4053f2 <_realloc_r+0x9a>
  4055f2:	4629      	mov	r1, r5
  4055f4:	4630      	mov	r0, r6
  4055f6:	461c      	mov	r4, r3
  4055f8:	46d1      	mov	r9, sl
  4055fa:	f7ff fe49 	bl	405290 <memmove>
  4055fe:	e70b      	b.n	405418 <_realloc_r+0xc0>
  405600:	68ab      	ldr	r3, [r5, #8]
  405602:	6083      	str	r3, [r0, #8]
  405604:	68eb      	ldr	r3, [r5, #12]
  405606:	60c3      	str	r3, [r0, #12]
  405608:	2a24      	cmp	r2, #36	; 0x24
  40560a:	d017      	beq.n	40563c <_realloc_r+0x2e4>
  40560c:	f100 0310 	add.w	r3, r0, #16
  405610:	f105 0210 	add.w	r2, r5, #16
  405614:	e6e7      	b.n	4053e6 <_realloc_r+0x8e>
  405616:	f850 3c04 	ldr.w	r3, [r0, #-4]
  40561a:	f023 0303 	bic.w	r3, r3, #3
  40561e:	441c      	add	r4, r3
  405620:	462e      	mov	r6, r5
  405622:	e6f9      	b.n	405418 <_realloc_r+0xc0>
  405624:	68a9      	ldr	r1, [r5, #8]
  405626:	f8ca 1010 	str.w	r1, [sl, #16]
  40562a:	68e9      	ldr	r1, [r5, #12]
  40562c:	f8ca 1014 	str.w	r1, [sl, #20]
  405630:	2a24      	cmp	r2, #36	; 0x24
  405632:	d00c      	beq.n	40564e <_realloc_r+0x2f6>
  405634:	3510      	adds	r5, #16
  405636:	f10a 0218 	add.w	r2, sl, #24
  40563a:	e7b9      	b.n	4055b0 <_realloc_r+0x258>
  40563c:	692b      	ldr	r3, [r5, #16]
  40563e:	6103      	str	r3, [r0, #16]
  405640:	696b      	ldr	r3, [r5, #20]
  405642:	6143      	str	r3, [r0, #20]
  405644:	f105 0218 	add.w	r2, r5, #24
  405648:	f100 0318 	add.w	r3, r0, #24
  40564c:	e6cb      	b.n	4053e6 <_realloc_r+0x8e>
  40564e:	692a      	ldr	r2, [r5, #16]
  405650:	f8ca 2018 	str.w	r2, [sl, #24]
  405654:	696a      	ldr	r2, [r5, #20]
  405656:	f8ca 201c 	str.w	r2, [sl, #28]
  40565a:	3518      	adds	r5, #24
  40565c:	f10a 0220 	add.w	r2, sl, #32
  405660:	e7a6      	b.n	4055b0 <_realloc_r+0x258>
  405662:	4632      	mov	r2, r6
  405664:	e77f      	b.n	405566 <_realloc_r+0x20e>
  405666:	4629      	mov	r1, r5
  405668:	4630      	mov	r0, r6
  40566a:	9301      	str	r3, [sp, #4]
  40566c:	f7ff fe10 	bl	405290 <memmove>
  405670:	9b01      	ldr	r3, [sp, #4]
  405672:	e77e      	b.n	405572 <_realloc_r+0x21a>
  405674:	68a9      	ldr	r1, [r5, #8]
  405676:	f8ca 1010 	str.w	r1, [sl, #16]
  40567a:	68e9      	ldr	r1, [r5, #12]
  40567c:	f8ca 1014 	str.w	r1, [sl, #20]
  405680:	2a24      	cmp	r2, #36	; 0x24
  405682:	d003      	beq.n	40568c <_realloc_r+0x334>
  405684:	3510      	adds	r5, #16
  405686:	f10a 0218 	add.w	r2, sl, #24
  40568a:	e76c      	b.n	405566 <_realloc_r+0x20e>
  40568c:	692a      	ldr	r2, [r5, #16]
  40568e:	f8ca 2018 	str.w	r2, [sl, #24]
  405692:	696a      	ldr	r2, [r5, #20]
  405694:	f8ca 201c 	str.w	r2, [sl, #28]
  405698:	3518      	adds	r5, #24
  40569a:	f10a 0220 	add.w	r2, sl, #32
  40569e:	e762      	b.n	405566 <_realloc_r+0x20e>
  4056a0:	20400440 	.word	0x20400440

004056a4 <__sread>:
  4056a4:	b510      	push	{r4, lr}
  4056a6:	460c      	mov	r4, r1
  4056a8:	f9b1 100e 	ldrsh.w	r1, [r1, #14]
  4056ac:	f000 f9f6 	bl	405a9c <_read_r>
  4056b0:	2800      	cmp	r0, #0
  4056b2:	db03      	blt.n	4056bc <__sread+0x18>
  4056b4:	6d23      	ldr	r3, [r4, #80]	; 0x50
  4056b6:	4403      	add	r3, r0
  4056b8:	6523      	str	r3, [r4, #80]	; 0x50
  4056ba:	bd10      	pop	{r4, pc}
  4056bc:	89a3      	ldrh	r3, [r4, #12]
  4056be:	f423 5380 	bic.w	r3, r3, #4096	; 0x1000
  4056c2:	81a3      	strh	r3, [r4, #12]
  4056c4:	bd10      	pop	{r4, pc}
  4056c6:	bf00      	nop

004056c8 <__swrite>:
  4056c8:	e92d 41f0 	stmdb	sp!, {r4, r5, r6, r7, r8, lr}
  4056cc:	4616      	mov	r6, r2
  4056ce:	f9b1 200c 	ldrsh.w	r2, [r1, #12]
  4056d2:	461f      	mov	r7, r3
  4056d4:	05d3      	lsls	r3, r2, #23
  4056d6:	460c      	mov	r4, r1
  4056d8:	4605      	mov	r5, r0
  4056da:	d507      	bpl.n	4056ec <__swrite+0x24>
  4056dc:	2200      	movs	r2, #0
  4056de:	2302      	movs	r3, #2
  4056e0:	f9b1 100e 	ldrsh.w	r1, [r1, #14]
  4056e4:	f000 f9c4 	bl	405a70 <_lseek_r>
  4056e8:	f9b4 200c 	ldrsh.w	r2, [r4, #12]
  4056ec:	f9b4 100e 	ldrsh.w	r1, [r4, #14]
  4056f0:	f422 5280 	bic.w	r2, r2, #4096	; 0x1000
  4056f4:	81a2      	strh	r2, [r4, #12]
  4056f6:	463b      	mov	r3, r7
  4056f8:	4632      	mov	r2, r6
  4056fa:	4628      	mov	r0, r5
  4056fc:	e8bd 41f0 	ldmia.w	sp!, {r4, r5, r6, r7, r8, lr}
  405700:	f000 b8a4 	b.w	40584c <_write_r>

00405704 <__sseek>:
  405704:	b510      	push	{r4, lr}
  405706:	460c      	mov	r4, r1
  405708:	f9b1 100e 	ldrsh.w	r1, [r1, #14]
  40570c:	f000 f9b0 	bl	405a70 <_lseek_r>
  405710:	89a3      	ldrh	r3, [r4, #12]
  405712:	1c42      	adds	r2, r0, #1
  405714:	bf0e      	itee	eq
  405716:	f423 5380 	biceq.w	r3, r3, #4096	; 0x1000
  40571a:	f443 5380 	orrne.w	r3, r3, #4096	; 0x1000
  40571e:	6520      	strne	r0, [r4, #80]	; 0x50
  405720:	81a3      	strh	r3, [r4, #12]
  405722:	bd10      	pop	{r4, pc}

00405724 <__sclose>:
  405724:	f9b1 100e 	ldrsh.w	r1, [r1, #14]
  405728:	f000 b908 	b.w	40593c <_close_r>

0040572c <__swbuf_r>:
  40572c:	b5f8      	push	{r3, r4, r5, r6, r7, lr}
  40572e:	460d      	mov	r5, r1
  405730:	4614      	mov	r4, r2
  405732:	4606      	mov	r6, r0
  405734:	b110      	cbz	r0, 40573c <__swbuf_r+0x10>
  405736:	6b83      	ldr	r3, [r0, #56]	; 0x38
  405738:	2b00      	cmp	r3, #0
  40573a:	d04b      	beq.n	4057d4 <__swbuf_r+0xa8>
  40573c:	f9b4 200c 	ldrsh.w	r2, [r4, #12]
  405740:	69a3      	ldr	r3, [r4, #24]
  405742:	60a3      	str	r3, [r4, #8]
  405744:	b291      	uxth	r1, r2
  405746:	0708      	lsls	r0, r1, #28
  405748:	d539      	bpl.n	4057be <__swbuf_r+0x92>
  40574a:	6923      	ldr	r3, [r4, #16]
  40574c:	2b00      	cmp	r3, #0
  40574e:	d036      	beq.n	4057be <__swbuf_r+0x92>
  405750:	b2ed      	uxtb	r5, r5
  405752:	0489      	lsls	r1, r1, #18
  405754:	462f      	mov	r7, r5
  405756:	d515      	bpl.n	405784 <__swbuf_r+0x58>
  405758:	6822      	ldr	r2, [r4, #0]
  40575a:	6961      	ldr	r1, [r4, #20]
  40575c:	1ad3      	subs	r3, r2, r3
  40575e:	428b      	cmp	r3, r1
  405760:	da1c      	bge.n	40579c <__swbuf_r+0x70>
  405762:	3301      	adds	r3, #1
  405764:	68a1      	ldr	r1, [r4, #8]
  405766:	1c50      	adds	r0, r2, #1
  405768:	3901      	subs	r1, #1
  40576a:	60a1      	str	r1, [r4, #8]
  40576c:	6020      	str	r0, [r4, #0]
  40576e:	7015      	strb	r5, [r2, #0]
  405770:	6962      	ldr	r2, [r4, #20]
  405772:	429a      	cmp	r2, r3
  405774:	d01a      	beq.n	4057ac <__swbuf_r+0x80>
  405776:	89a3      	ldrh	r3, [r4, #12]
  405778:	07db      	lsls	r3, r3, #31
  40577a:	d501      	bpl.n	405780 <__swbuf_r+0x54>
  40577c:	2d0a      	cmp	r5, #10
  40577e:	d015      	beq.n	4057ac <__swbuf_r+0x80>
  405780:	4638      	mov	r0, r7
  405782:	bdf8      	pop	{r3, r4, r5, r6, r7, pc}
  405784:	6e61      	ldr	r1, [r4, #100]	; 0x64
  405786:	f442 5200 	orr.w	r2, r2, #8192	; 0x2000
  40578a:	f421 5100 	bic.w	r1, r1, #8192	; 0x2000
  40578e:	81a2      	strh	r2, [r4, #12]
  405790:	6822      	ldr	r2, [r4, #0]
  405792:	6661      	str	r1, [r4, #100]	; 0x64
  405794:	6961      	ldr	r1, [r4, #20]
  405796:	1ad3      	subs	r3, r2, r3
  405798:	428b      	cmp	r3, r1
  40579a:	dbe2      	blt.n	405762 <__swbuf_r+0x36>
  40579c:	4621      	mov	r1, r4
  40579e:	4630      	mov	r0, r6
  4057a0:	f7ff f87a 	bl	404898 <_fflush_r>
  4057a4:	b940      	cbnz	r0, 4057b8 <__swbuf_r+0x8c>
  4057a6:	6822      	ldr	r2, [r4, #0]
  4057a8:	2301      	movs	r3, #1
  4057aa:	e7db      	b.n	405764 <__swbuf_r+0x38>
  4057ac:	4621      	mov	r1, r4
  4057ae:	4630      	mov	r0, r6
  4057b0:	f7ff f872 	bl	404898 <_fflush_r>
  4057b4:	2800      	cmp	r0, #0
  4057b6:	d0e3      	beq.n	405780 <__swbuf_r+0x54>
  4057b8:	f04f 37ff 	mov.w	r7, #4294967295
  4057bc:	e7e0      	b.n	405780 <__swbuf_r+0x54>
  4057be:	4621      	mov	r1, r4
  4057c0:	4630      	mov	r0, r6
  4057c2:	f7fe ff55 	bl	404670 <__swsetup_r>
  4057c6:	2800      	cmp	r0, #0
  4057c8:	d1f6      	bne.n	4057b8 <__swbuf_r+0x8c>
  4057ca:	f9b4 200c 	ldrsh.w	r2, [r4, #12]
  4057ce:	6923      	ldr	r3, [r4, #16]
  4057d0:	b291      	uxth	r1, r2
  4057d2:	e7bd      	b.n	405750 <__swbuf_r+0x24>
  4057d4:	f7ff f8b8 	bl	404948 <__sinit>
  4057d8:	e7b0      	b.n	40573c <__swbuf_r+0x10>
  4057da:	bf00      	nop

004057dc <_wcrtomb_r>:
  4057dc:	b5f0      	push	{r4, r5, r6, r7, lr}
  4057de:	4606      	mov	r6, r0
  4057e0:	b085      	sub	sp, #20
  4057e2:	461f      	mov	r7, r3
  4057e4:	b189      	cbz	r1, 40580a <_wcrtomb_r+0x2e>
  4057e6:	4c10      	ldr	r4, [pc, #64]	; (405828 <_wcrtomb_r+0x4c>)
  4057e8:	4d10      	ldr	r5, [pc, #64]	; (40582c <_wcrtomb_r+0x50>)
  4057ea:	6824      	ldr	r4, [r4, #0]
  4057ec:	6b64      	ldr	r4, [r4, #52]	; 0x34
  4057ee:	2c00      	cmp	r4, #0
  4057f0:	bf08      	it	eq
  4057f2:	462c      	moveq	r4, r5
  4057f4:	f8d4 40e0 	ldr.w	r4, [r4, #224]	; 0xe0
  4057f8:	47a0      	blx	r4
  4057fa:	1c43      	adds	r3, r0, #1
  4057fc:	d103      	bne.n	405806 <_wcrtomb_r+0x2a>
  4057fe:	2200      	movs	r2, #0
  405800:	238a      	movs	r3, #138	; 0x8a
  405802:	603a      	str	r2, [r7, #0]
  405804:	6033      	str	r3, [r6, #0]
  405806:	b005      	add	sp, #20
  405808:	bdf0      	pop	{r4, r5, r6, r7, pc}
  40580a:	460c      	mov	r4, r1
  40580c:	4906      	ldr	r1, [pc, #24]	; (405828 <_wcrtomb_r+0x4c>)
  40580e:	4a07      	ldr	r2, [pc, #28]	; (40582c <_wcrtomb_r+0x50>)
  405810:	6809      	ldr	r1, [r1, #0]
  405812:	6b49      	ldr	r1, [r1, #52]	; 0x34
  405814:	2900      	cmp	r1, #0
  405816:	bf08      	it	eq
  405818:	4611      	moveq	r1, r2
  40581a:	4622      	mov	r2, r4
  40581c:	f8d1 40e0 	ldr.w	r4, [r1, #224]	; 0xe0
  405820:	a901      	add	r1, sp, #4
  405822:	47a0      	blx	r4
  405824:	e7e9      	b.n	4057fa <_wcrtomb_r+0x1e>
  405826:	bf00      	nop
  405828:	20400014 	.word	0x20400014
  40582c:	20400854 	.word	0x20400854

00405830 <__ascii_wctomb>:
  405830:	b121      	cbz	r1, 40583c <__ascii_wctomb+0xc>
  405832:	2aff      	cmp	r2, #255	; 0xff
  405834:	d804      	bhi.n	405840 <__ascii_wctomb+0x10>
  405836:	700a      	strb	r2, [r1, #0]
  405838:	2001      	movs	r0, #1
  40583a:	4770      	bx	lr
  40583c:	4608      	mov	r0, r1
  40583e:	4770      	bx	lr
  405840:	238a      	movs	r3, #138	; 0x8a
  405842:	6003      	str	r3, [r0, #0]
  405844:	f04f 30ff 	mov.w	r0, #4294967295
  405848:	4770      	bx	lr
  40584a:	bf00      	nop

0040584c <_write_r>:
  40584c:	b570      	push	{r4, r5, r6, lr}
  40584e:	460d      	mov	r5, r1
  405850:	4c08      	ldr	r4, [pc, #32]	; (405874 <_write_r+0x28>)
  405852:	4611      	mov	r1, r2
  405854:	4606      	mov	r6, r0
  405856:	461a      	mov	r2, r3
  405858:	4628      	mov	r0, r5
  40585a:	2300      	movs	r3, #0
  40585c:	6023      	str	r3, [r4, #0]
  40585e:	f7fa fcfb 	bl	400258 <_write>
  405862:	1c43      	adds	r3, r0, #1
  405864:	d000      	beq.n	405868 <_write_r+0x1c>
  405866:	bd70      	pop	{r4, r5, r6, pc}
  405868:	6823      	ldr	r3, [r4, #0]
  40586a:	2b00      	cmp	r3, #0
  40586c:	d0fb      	beq.n	405866 <_write_r+0x1a>
  40586e:	6033      	str	r3, [r6, #0]
  405870:	bd70      	pop	{r4, r5, r6, pc}
  405872:	bf00      	nop
  405874:	20400c4c 	.word	0x20400c4c

00405878 <__register_exitproc>:
  405878:	e92d 43f8 	stmdb	sp!, {r3, r4, r5, r6, r7, r8, r9, lr}
  40587c:	4d2c      	ldr	r5, [pc, #176]	; (405930 <__register_exitproc+0xb8>)
  40587e:	4606      	mov	r6, r0
  405880:	6828      	ldr	r0, [r5, #0]
  405882:	4698      	mov	r8, r3
  405884:	460f      	mov	r7, r1
  405886:	4691      	mov	r9, r2
  405888:	f7ff fc1e 	bl	4050c8 <__retarget_lock_acquire_recursive>
  40588c:	4b29      	ldr	r3, [pc, #164]	; (405934 <__register_exitproc+0xbc>)
  40588e:	681c      	ldr	r4, [r3, #0]
  405890:	f8d4 3148 	ldr.w	r3, [r4, #328]	; 0x148
  405894:	2b00      	cmp	r3, #0
  405896:	d03e      	beq.n	405916 <__register_exitproc+0x9e>
  405898:	685a      	ldr	r2, [r3, #4]
  40589a:	2a1f      	cmp	r2, #31
  40589c:	dc1c      	bgt.n	4058d8 <__register_exitproc+0x60>
  40589e:	f102 0e01 	add.w	lr, r2, #1
  4058a2:	b176      	cbz	r6, 4058c2 <__register_exitproc+0x4a>
  4058a4:	eb03 0182 	add.w	r1, r3, r2, lsl #2
  4058a8:	2401      	movs	r4, #1
  4058aa:	f8c1 9088 	str.w	r9, [r1, #136]	; 0x88
  4058ae:	f8d3 0188 	ldr.w	r0, [r3, #392]	; 0x188
  4058b2:	4094      	lsls	r4, r2
  4058b4:	4320      	orrs	r0, r4
  4058b6:	2e02      	cmp	r6, #2
  4058b8:	f8c3 0188 	str.w	r0, [r3, #392]	; 0x188
  4058bc:	f8c1 8108 	str.w	r8, [r1, #264]	; 0x108
  4058c0:	d023      	beq.n	40590a <__register_exitproc+0x92>
  4058c2:	3202      	adds	r2, #2
  4058c4:	f8c3 e004 	str.w	lr, [r3, #4]
  4058c8:	6828      	ldr	r0, [r5, #0]
  4058ca:	f843 7022 	str.w	r7, [r3, r2, lsl #2]
  4058ce:	f7ff fbfd 	bl	4050cc <__retarget_lock_release_recursive>
  4058d2:	2000      	movs	r0, #0
  4058d4:	e8bd 83f8 	ldmia.w	sp!, {r3, r4, r5, r6, r7, r8, r9, pc}
  4058d8:	4b17      	ldr	r3, [pc, #92]	; (405938 <__register_exitproc+0xc0>)
  4058da:	b30b      	cbz	r3, 405920 <__register_exitproc+0xa8>
  4058dc:	f44f 70c8 	mov.w	r0, #400	; 0x190
  4058e0:	f7fd fae0 	bl	402ea4 <malloc>
  4058e4:	4603      	mov	r3, r0
  4058e6:	b1d8      	cbz	r0, 405920 <__register_exitproc+0xa8>
  4058e8:	f8d4 2148 	ldr.w	r2, [r4, #328]	; 0x148
  4058ec:	6002      	str	r2, [r0, #0]
  4058ee:	2100      	movs	r1, #0
  4058f0:	6041      	str	r1, [r0, #4]
  4058f2:	460a      	mov	r2, r1
  4058f4:	f8c4 0148 	str.w	r0, [r4, #328]	; 0x148
  4058f8:	f04f 0e01 	mov.w	lr, #1
  4058fc:	f8c0 1188 	str.w	r1, [r0, #392]	; 0x188
  405900:	f8c0 118c 	str.w	r1, [r0, #396]	; 0x18c
  405904:	2e00      	cmp	r6, #0
  405906:	d0dc      	beq.n	4058c2 <__register_exitproc+0x4a>
  405908:	e7cc      	b.n	4058a4 <__register_exitproc+0x2c>
  40590a:	f8d3 118c 	ldr.w	r1, [r3, #396]	; 0x18c
  40590e:	430c      	orrs	r4, r1
  405910:	f8c3 418c 	str.w	r4, [r3, #396]	; 0x18c
  405914:	e7d5      	b.n	4058c2 <__register_exitproc+0x4a>
  405916:	f504 73a6 	add.w	r3, r4, #332	; 0x14c
  40591a:	f8c4 3148 	str.w	r3, [r4, #328]	; 0x148
  40591e:	e7bb      	b.n	405898 <__register_exitproc+0x20>
  405920:	6828      	ldr	r0, [r5, #0]
  405922:	f7ff fbd3 	bl	4050cc <__retarget_lock_release_recursive>
  405926:	f04f 30ff 	mov.w	r0, #4294967295
  40592a:	e8bd 83f8 	ldmia.w	sp!, {r3, r4, r5, r6, r7, r8, r9, pc}
  40592e:	bf00      	nop
  405930:	20400850 	.word	0x20400850
  405934:	00405ee0 	.word	0x00405ee0
  405938:	00402ea5 	.word	0x00402ea5

0040593c <_close_r>:
  40593c:	b538      	push	{r3, r4, r5, lr}
  40593e:	4c07      	ldr	r4, [pc, #28]	; (40595c <_close_r+0x20>)
  405940:	2300      	movs	r3, #0
  405942:	4605      	mov	r5, r0
  405944:	4608      	mov	r0, r1
  405946:	6023      	str	r3, [r4, #0]
  405948:	f7fb f96c 	bl	400c24 <_close>
  40594c:	1c43      	adds	r3, r0, #1
  40594e:	d000      	beq.n	405952 <_close_r+0x16>
  405950:	bd38      	pop	{r3, r4, r5, pc}
  405952:	6823      	ldr	r3, [r4, #0]
  405954:	2b00      	cmp	r3, #0
  405956:	d0fb      	beq.n	405950 <_close_r+0x14>
  405958:	602b      	str	r3, [r5, #0]
  40595a:	bd38      	pop	{r3, r4, r5, pc}
  40595c:	20400c4c 	.word	0x20400c4c

00405960 <_fclose_r>:
  405960:	b570      	push	{r4, r5, r6, lr}
  405962:	b159      	cbz	r1, 40597c <_fclose_r+0x1c>
  405964:	4605      	mov	r5, r0
  405966:	460c      	mov	r4, r1
  405968:	b110      	cbz	r0, 405970 <_fclose_r+0x10>
  40596a:	6b83      	ldr	r3, [r0, #56]	; 0x38
  40596c:	2b00      	cmp	r3, #0
  40596e:	d03c      	beq.n	4059ea <_fclose_r+0x8a>
  405970:	6e63      	ldr	r3, [r4, #100]	; 0x64
  405972:	07d8      	lsls	r0, r3, #31
  405974:	d505      	bpl.n	405982 <_fclose_r+0x22>
  405976:	f9b4 300c 	ldrsh.w	r3, [r4, #12]
  40597a:	b92b      	cbnz	r3, 405988 <_fclose_r+0x28>
  40597c:	2600      	movs	r6, #0
  40597e:	4630      	mov	r0, r6
  405980:	bd70      	pop	{r4, r5, r6, pc}
  405982:	89a3      	ldrh	r3, [r4, #12]
  405984:	0599      	lsls	r1, r3, #22
  405986:	d53c      	bpl.n	405a02 <_fclose_r+0xa2>
  405988:	4621      	mov	r1, r4
  40598a:	4628      	mov	r0, r5
  40598c:	f7fe fee4 	bl	404758 <__sflush_r>
  405990:	6ae3      	ldr	r3, [r4, #44]	; 0x2c
  405992:	4606      	mov	r6, r0
  405994:	b133      	cbz	r3, 4059a4 <_fclose_r+0x44>
  405996:	69e1      	ldr	r1, [r4, #28]
  405998:	4628      	mov	r0, r5
  40599a:	4798      	blx	r3
  40599c:	2800      	cmp	r0, #0
  40599e:	bfb8      	it	lt
  4059a0:	f04f 36ff 	movlt.w	r6, #4294967295
  4059a4:	89a3      	ldrh	r3, [r4, #12]
  4059a6:	061a      	lsls	r2, r3, #24
  4059a8:	d422      	bmi.n	4059f0 <_fclose_r+0x90>
  4059aa:	6b21      	ldr	r1, [r4, #48]	; 0x30
  4059ac:	b141      	cbz	r1, 4059c0 <_fclose_r+0x60>
  4059ae:	f104 0340 	add.w	r3, r4, #64	; 0x40
  4059b2:	4299      	cmp	r1, r3
  4059b4:	d002      	beq.n	4059bc <_fclose_r+0x5c>
  4059b6:	4628      	mov	r0, r5
  4059b8:	f7ff f8ec 	bl	404b94 <_free_r>
  4059bc:	2300      	movs	r3, #0
  4059be:	6323      	str	r3, [r4, #48]	; 0x30
  4059c0:	6c61      	ldr	r1, [r4, #68]	; 0x44
  4059c2:	b121      	cbz	r1, 4059ce <_fclose_r+0x6e>
  4059c4:	4628      	mov	r0, r5
  4059c6:	f7ff f8e5 	bl	404b94 <_free_r>
  4059ca:	2300      	movs	r3, #0
  4059cc:	6463      	str	r3, [r4, #68]	; 0x44
  4059ce:	f7fe ffe7 	bl	4049a0 <__sfp_lock_acquire>
  4059d2:	6e63      	ldr	r3, [r4, #100]	; 0x64
  4059d4:	2200      	movs	r2, #0
  4059d6:	07db      	lsls	r3, r3, #31
  4059d8:	81a2      	strh	r2, [r4, #12]
  4059da:	d50e      	bpl.n	4059fa <_fclose_r+0x9a>
  4059dc:	6da0      	ldr	r0, [r4, #88]	; 0x58
  4059de:	f7ff fb71 	bl	4050c4 <__retarget_lock_close_recursive>
  4059e2:	f7fe ffe3 	bl	4049ac <__sfp_lock_release>
  4059e6:	4630      	mov	r0, r6
  4059e8:	bd70      	pop	{r4, r5, r6, pc}
  4059ea:	f7fe ffad 	bl	404948 <__sinit>
  4059ee:	e7bf      	b.n	405970 <_fclose_r+0x10>
  4059f0:	6921      	ldr	r1, [r4, #16]
  4059f2:	4628      	mov	r0, r5
  4059f4:	f7ff f8ce 	bl	404b94 <_free_r>
  4059f8:	e7d7      	b.n	4059aa <_fclose_r+0x4a>
  4059fa:	6da0      	ldr	r0, [r4, #88]	; 0x58
  4059fc:	f7ff fb66 	bl	4050cc <__retarget_lock_release_recursive>
  405a00:	e7ec      	b.n	4059dc <_fclose_r+0x7c>
  405a02:	6da0      	ldr	r0, [r4, #88]	; 0x58
  405a04:	f7ff fb60 	bl	4050c8 <__retarget_lock_acquire_recursive>
  405a08:	f9b4 300c 	ldrsh.w	r3, [r4, #12]
  405a0c:	2b00      	cmp	r3, #0
  405a0e:	d1bb      	bne.n	405988 <_fclose_r+0x28>
  405a10:	6e66      	ldr	r6, [r4, #100]	; 0x64
  405a12:	f016 0601 	ands.w	r6, r6, #1
  405a16:	d1b1      	bne.n	40597c <_fclose_r+0x1c>
  405a18:	6da0      	ldr	r0, [r4, #88]	; 0x58
  405a1a:	f7ff fb57 	bl	4050cc <__retarget_lock_release_recursive>
  405a1e:	4630      	mov	r0, r6
  405a20:	bd70      	pop	{r4, r5, r6, pc}
  405a22:	bf00      	nop

00405a24 <_fstat_r>:
  405a24:	b538      	push	{r3, r4, r5, lr}
  405a26:	460b      	mov	r3, r1
  405a28:	4c07      	ldr	r4, [pc, #28]	; (405a48 <_fstat_r+0x24>)
  405a2a:	4605      	mov	r5, r0
  405a2c:	4611      	mov	r1, r2
  405a2e:	4618      	mov	r0, r3
  405a30:	2300      	movs	r3, #0
  405a32:	6023      	str	r3, [r4, #0]
  405a34:	f7fb f8fa 	bl	400c2c <_fstat>
  405a38:	1c43      	adds	r3, r0, #1
  405a3a:	d000      	beq.n	405a3e <_fstat_r+0x1a>
  405a3c:	bd38      	pop	{r3, r4, r5, pc}
  405a3e:	6823      	ldr	r3, [r4, #0]
  405a40:	2b00      	cmp	r3, #0
  405a42:	d0fb      	beq.n	405a3c <_fstat_r+0x18>
  405a44:	602b      	str	r3, [r5, #0]
  405a46:	bd38      	pop	{r3, r4, r5, pc}
  405a48:	20400c4c 	.word	0x20400c4c

00405a4c <_isatty_r>:
  405a4c:	b538      	push	{r3, r4, r5, lr}
  405a4e:	4c07      	ldr	r4, [pc, #28]	; (405a6c <_isatty_r+0x20>)
  405a50:	2300      	movs	r3, #0
  405a52:	4605      	mov	r5, r0
  405a54:	4608      	mov	r0, r1
  405a56:	6023      	str	r3, [r4, #0]
  405a58:	f7fb f8ee 	bl	400c38 <_isatty>
  405a5c:	1c43      	adds	r3, r0, #1
  405a5e:	d000      	beq.n	405a62 <_isatty_r+0x16>
  405a60:	bd38      	pop	{r3, r4, r5, pc}
  405a62:	6823      	ldr	r3, [r4, #0]
  405a64:	2b00      	cmp	r3, #0
  405a66:	d0fb      	beq.n	405a60 <_isatty_r+0x14>
  405a68:	602b      	str	r3, [r5, #0]
  405a6a:	bd38      	pop	{r3, r4, r5, pc}
  405a6c:	20400c4c 	.word	0x20400c4c

00405a70 <_lseek_r>:
  405a70:	b570      	push	{r4, r5, r6, lr}
  405a72:	460d      	mov	r5, r1
  405a74:	4c08      	ldr	r4, [pc, #32]	; (405a98 <_lseek_r+0x28>)
  405a76:	4611      	mov	r1, r2
  405a78:	4606      	mov	r6, r0
  405a7a:	461a      	mov	r2, r3
  405a7c:	4628      	mov	r0, r5
  405a7e:	2300      	movs	r3, #0
  405a80:	6023      	str	r3, [r4, #0]
  405a82:	f7fb f8db 	bl	400c3c <_lseek>
  405a86:	1c43      	adds	r3, r0, #1
  405a88:	d000      	beq.n	405a8c <_lseek_r+0x1c>
  405a8a:	bd70      	pop	{r4, r5, r6, pc}
  405a8c:	6823      	ldr	r3, [r4, #0]
  405a8e:	2b00      	cmp	r3, #0
  405a90:	d0fb      	beq.n	405a8a <_lseek_r+0x1a>
  405a92:	6033      	str	r3, [r6, #0]
  405a94:	bd70      	pop	{r4, r5, r6, pc}
  405a96:	bf00      	nop
  405a98:	20400c4c 	.word	0x20400c4c

00405a9c <_read_r>:
  405a9c:	b570      	push	{r4, r5, r6, lr}
  405a9e:	460d      	mov	r5, r1
  405aa0:	4c08      	ldr	r4, [pc, #32]	; (405ac4 <_read_r+0x28>)
  405aa2:	4611      	mov	r1, r2
  405aa4:	4606      	mov	r6, r0
  405aa6:	461a      	mov	r2, r3
  405aa8:	4628      	mov	r0, r5
  405aaa:	2300      	movs	r3, #0
  405aac:	6023      	str	r3, [r4, #0]
  405aae:	f7fa fbb5 	bl	40021c <_read>
  405ab2:	1c43      	adds	r3, r0, #1
  405ab4:	d000      	beq.n	405ab8 <_read_r+0x1c>
  405ab6:	bd70      	pop	{r4, r5, r6, pc}
  405ab8:	6823      	ldr	r3, [r4, #0]
  405aba:	2b00      	cmp	r3, #0
  405abc:	d0fb      	beq.n	405ab6 <_read_r+0x1a>
  405abe:	6033      	str	r3, [r6, #0]
  405ac0:	bd70      	pop	{r4, r5, r6, pc}
  405ac2:	bf00      	nop
  405ac4:	20400c4c 	.word	0x20400c4c

00405ac8 <__aeabi_uldivmod>:
  405ac8:	b953      	cbnz	r3, 405ae0 <__aeabi_uldivmod+0x18>
  405aca:	b94a      	cbnz	r2, 405ae0 <__aeabi_uldivmod+0x18>
  405acc:	2900      	cmp	r1, #0
  405ace:	bf08      	it	eq
  405ad0:	2800      	cmpeq	r0, #0
  405ad2:	bf1c      	itt	ne
  405ad4:	f04f 31ff 	movne.w	r1, #4294967295
  405ad8:	f04f 30ff 	movne.w	r0, #4294967295
  405adc:	f000 b97a 	b.w	405dd4 <__aeabi_idiv0>
  405ae0:	f1ad 0c08 	sub.w	ip, sp, #8
  405ae4:	e96d ce04 	strd	ip, lr, [sp, #-16]!
  405ae8:	f000 f806 	bl	405af8 <__udivmoddi4>
  405aec:	f8dd e004 	ldr.w	lr, [sp, #4]
  405af0:	e9dd 2302 	ldrd	r2, r3, [sp, #8]
  405af4:	b004      	add	sp, #16
  405af6:	4770      	bx	lr

00405af8 <__udivmoddi4>:
  405af8:	e92d 47f0 	stmdb	sp!, {r4, r5, r6, r7, r8, r9, sl, lr}
  405afc:	468c      	mov	ip, r1
  405afe:	460d      	mov	r5, r1
  405b00:	4604      	mov	r4, r0
  405b02:	9e08      	ldr	r6, [sp, #32]
  405b04:	2b00      	cmp	r3, #0
  405b06:	d151      	bne.n	405bac <__udivmoddi4+0xb4>
  405b08:	428a      	cmp	r2, r1
  405b0a:	4617      	mov	r7, r2
  405b0c:	d96d      	bls.n	405bea <__udivmoddi4+0xf2>
  405b0e:	fab2 fe82 	clz	lr, r2
  405b12:	f1be 0f00 	cmp.w	lr, #0
  405b16:	d00b      	beq.n	405b30 <__udivmoddi4+0x38>
  405b18:	f1ce 0c20 	rsb	ip, lr, #32
  405b1c:	fa01 f50e 	lsl.w	r5, r1, lr
  405b20:	fa20 fc0c 	lsr.w	ip, r0, ip
  405b24:	fa02 f70e 	lsl.w	r7, r2, lr
  405b28:	ea4c 0c05 	orr.w	ip, ip, r5
  405b2c:	fa00 f40e 	lsl.w	r4, r0, lr
  405b30:	ea4f 4a17 	mov.w	sl, r7, lsr #16
  405b34:	0c25      	lsrs	r5, r4, #16
  405b36:	fbbc f8fa 	udiv	r8, ip, sl
  405b3a:	fa1f f987 	uxth.w	r9, r7
  405b3e:	fb0a cc18 	mls	ip, sl, r8, ip
  405b42:	ea45 450c 	orr.w	r5, r5, ip, lsl #16
  405b46:	fb08 f309 	mul.w	r3, r8, r9
  405b4a:	42ab      	cmp	r3, r5
  405b4c:	d90a      	bls.n	405b64 <__udivmoddi4+0x6c>
  405b4e:	19ed      	adds	r5, r5, r7
  405b50:	f108 32ff 	add.w	r2, r8, #4294967295
  405b54:	f080 8123 	bcs.w	405d9e <__udivmoddi4+0x2a6>
  405b58:	42ab      	cmp	r3, r5
  405b5a:	f240 8120 	bls.w	405d9e <__udivmoddi4+0x2a6>
  405b5e:	f1a8 0802 	sub.w	r8, r8, #2
  405b62:	443d      	add	r5, r7
  405b64:	1aed      	subs	r5, r5, r3
  405b66:	b2a4      	uxth	r4, r4
  405b68:	fbb5 f0fa 	udiv	r0, r5, sl
  405b6c:	fb0a 5510 	mls	r5, sl, r0, r5
  405b70:	ea44 4405 	orr.w	r4, r4, r5, lsl #16
  405b74:	fb00 f909 	mul.w	r9, r0, r9
  405b78:	45a1      	cmp	r9, r4
  405b7a:	d909      	bls.n	405b90 <__udivmoddi4+0x98>
  405b7c:	19e4      	adds	r4, r4, r7
  405b7e:	f100 33ff 	add.w	r3, r0, #4294967295
  405b82:	f080 810a 	bcs.w	405d9a <__udivmoddi4+0x2a2>
  405b86:	45a1      	cmp	r9, r4
  405b88:	f240 8107 	bls.w	405d9a <__udivmoddi4+0x2a2>
  405b8c:	3802      	subs	r0, #2
  405b8e:	443c      	add	r4, r7
  405b90:	eba4 0409 	sub.w	r4, r4, r9
  405b94:	ea40 4008 	orr.w	r0, r0, r8, lsl #16
  405b98:	2100      	movs	r1, #0
  405b9a:	2e00      	cmp	r6, #0
  405b9c:	d061      	beq.n	405c62 <__udivmoddi4+0x16a>
  405b9e:	fa24 f40e 	lsr.w	r4, r4, lr
  405ba2:	2300      	movs	r3, #0
  405ba4:	6034      	str	r4, [r6, #0]
  405ba6:	6073      	str	r3, [r6, #4]
  405ba8:	e8bd 87f0 	ldmia.w	sp!, {r4, r5, r6, r7, r8, r9, sl, pc}
  405bac:	428b      	cmp	r3, r1
  405bae:	d907      	bls.n	405bc0 <__udivmoddi4+0xc8>
  405bb0:	2e00      	cmp	r6, #0
  405bb2:	d054      	beq.n	405c5e <__udivmoddi4+0x166>
  405bb4:	2100      	movs	r1, #0
  405bb6:	e886 0021 	stmia.w	r6, {r0, r5}
  405bba:	4608      	mov	r0, r1
  405bbc:	e8bd 87f0 	ldmia.w	sp!, {r4, r5, r6, r7, r8, r9, sl, pc}
  405bc0:	fab3 f183 	clz	r1, r3
  405bc4:	2900      	cmp	r1, #0
  405bc6:	f040 808e 	bne.w	405ce6 <__udivmoddi4+0x1ee>
  405bca:	42ab      	cmp	r3, r5
  405bcc:	d302      	bcc.n	405bd4 <__udivmoddi4+0xdc>
  405bce:	4282      	cmp	r2, r0
  405bd0:	f200 80fa 	bhi.w	405dc8 <__udivmoddi4+0x2d0>
  405bd4:	1a84      	subs	r4, r0, r2
  405bd6:	eb65 0503 	sbc.w	r5, r5, r3
  405bda:	2001      	movs	r0, #1
  405bdc:	46ac      	mov	ip, r5
  405bde:	2e00      	cmp	r6, #0
  405be0:	d03f      	beq.n	405c62 <__udivmoddi4+0x16a>
  405be2:	e886 1010 	stmia.w	r6, {r4, ip}
  405be6:	e8bd 87f0 	ldmia.w	sp!, {r4, r5, r6, r7, r8, r9, sl, pc}
  405bea:	b912      	cbnz	r2, 405bf2 <__udivmoddi4+0xfa>
  405bec:	2701      	movs	r7, #1
  405bee:	fbb7 f7f2 	udiv	r7, r7, r2
  405bf2:	fab7 fe87 	clz	lr, r7
  405bf6:	f1be 0f00 	cmp.w	lr, #0
  405bfa:	d134      	bne.n	405c66 <__udivmoddi4+0x16e>
  405bfc:	1beb      	subs	r3, r5, r7
  405bfe:	0c3a      	lsrs	r2, r7, #16
  405c00:	fa1f fc87 	uxth.w	ip, r7
  405c04:	2101      	movs	r1, #1
  405c06:	fbb3 f8f2 	udiv	r8, r3, r2
  405c0a:	0c25      	lsrs	r5, r4, #16
  405c0c:	fb02 3318 	mls	r3, r2, r8, r3
  405c10:	ea45 4503 	orr.w	r5, r5, r3, lsl #16
  405c14:	fb0c f308 	mul.w	r3, ip, r8
  405c18:	42ab      	cmp	r3, r5
  405c1a:	d907      	bls.n	405c2c <__udivmoddi4+0x134>
  405c1c:	19ed      	adds	r5, r5, r7
  405c1e:	f108 30ff 	add.w	r0, r8, #4294967295
  405c22:	d202      	bcs.n	405c2a <__udivmoddi4+0x132>
  405c24:	42ab      	cmp	r3, r5
  405c26:	f200 80d1 	bhi.w	405dcc <__udivmoddi4+0x2d4>
  405c2a:	4680      	mov	r8, r0
  405c2c:	1aed      	subs	r5, r5, r3
  405c2e:	b2a3      	uxth	r3, r4
  405c30:	fbb5 f0f2 	udiv	r0, r5, r2
  405c34:	fb02 5510 	mls	r5, r2, r0, r5
  405c38:	ea43 4405 	orr.w	r4, r3, r5, lsl #16
  405c3c:	fb0c fc00 	mul.w	ip, ip, r0
  405c40:	45a4      	cmp	ip, r4
  405c42:	d907      	bls.n	405c54 <__udivmoddi4+0x15c>
  405c44:	19e4      	adds	r4, r4, r7
  405c46:	f100 33ff 	add.w	r3, r0, #4294967295
  405c4a:	d202      	bcs.n	405c52 <__udivmoddi4+0x15a>
  405c4c:	45a4      	cmp	ip, r4
  405c4e:	f200 80b8 	bhi.w	405dc2 <__udivmoddi4+0x2ca>
  405c52:	4618      	mov	r0, r3
  405c54:	eba4 040c 	sub.w	r4, r4, ip
  405c58:	ea40 4008 	orr.w	r0, r0, r8, lsl #16
  405c5c:	e79d      	b.n	405b9a <__udivmoddi4+0xa2>
  405c5e:	4631      	mov	r1, r6
  405c60:	4630      	mov	r0, r6
  405c62:	e8bd 87f0 	ldmia.w	sp!, {r4, r5, r6, r7, r8, r9, sl, pc}
  405c66:	f1ce 0420 	rsb	r4, lr, #32
  405c6a:	fa05 f30e 	lsl.w	r3, r5, lr
  405c6e:	fa07 f70e 	lsl.w	r7, r7, lr
  405c72:	fa20 f804 	lsr.w	r8, r0, r4
  405c76:	0c3a      	lsrs	r2, r7, #16
  405c78:	fa25 f404 	lsr.w	r4, r5, r4
  405c7c:	ea48 0803 	orr.w	r8, r8, r3
  405c80:	fbb4 f1f2 	udiv	r1, r4, r2
  405c84:	ea4f 4518 	mov.w	r5, r8, lsr #16
  405c88:	fb02 4411 	mls	r4, r2, r1, r4
  405c8c:	fa1f fc87 	uxth.w	ip, r7
  405c90:	ea45 4504 	orr.w	r5, r5, r4, lsl #16
  405c94:	fb01 f30c 	mul.w	r3, r1, ip
  405c98:	42ab      	cmp	r3, r5
  405c9a:	fa00 f40e 	lsl.w	r4, r0, lr
  405c9e:	d909      	bls.n	405cb4 <__udivmoddi4+0x1bc>
  405ca0:	19ed      	adds	r5, r5, r7
  405ca2:	f101 30ff 	add.w	r0, r1, #4294967295
  405ca6:	f080 808a 	bcs.w	405dbe <__udivmoddi4+0x2c6>
  405caa:	42ab      	cmp	r3, r5
  405cac:	f240 8087 	bls.w	405dbe <__udivmoddi4+0x2c6>
  405cb0:	3902      	subs	r1, #2
  405cb2:	443d      	add	r5, r7
  405cb4:	1aeb      	subs	r3, r5, r3
  405cb6:	fa1f f588 	uxth.w	r5, r8
  405cba:	fbb3 f0f2 	udiv	r0, r3, r2
  405cbe:	fb02 3310 	mls	r3, r2, r0, r3
  405cc2:	ea45 4503 	orr.w	r5, r5, r3, lsl #16
  405cc6:	fb00 f30c 	mul.w	r3, r0, ip
  405cca:	42ab      	cmp	r3, r5
  405ccc:	d907      	bls.n	405cde <__udivmoddi4+0x1e6>
  405cce:	19ed      	adds	r5, r5, r7
  405cd0:	f100 38ff 	add.w	r8, r0, #4294967295
  405cd4:	d26f      	bcs.n	405db6 <__udivmoddi4+0x2be>
  405cd6:	42ab      	cmp	r3, r5
  405cd8:	d96d      	bls.n	405db6 <__udivmoddi4+0x2be>
  405cda:	3802      	subs	r0, #2
  405cdc:	443d      	add	r5, r7
  405cde:	1aeb      	subs	r3, r5, r3
  405ce0:	ea40 4101 	orr.w	r1, r0, r1, lsl #16
  405ce4:	e78f      	b.n	405c06 <__udivmoddi4+0x10e>
  405ce6:	f1c1 0720 	rsb	r7, r1, #32
  405cea:	fa22 f807 	lsr.w	r8, r2, r7
  405cee:	408b      	lsls	r3, r1
  405cf0:	fa05 f401 	lsl.w	r4, r5, r1
  405cf4:	ea48 0303 	orr.w	r3, r8, r3
  405cf8:	fa20 fe07 	lsr.w	lr, r0, r7
  405cfc:	ea4f 4c13 	mov.w	ip, r3, lsr #16
  405d00:	40fd      	lsrs	r5, r7
  405d02:	ea4e 0e04 	orr.w	lr, lr, r4
  405d06:	fbb5 f9fc 	udiv	r9, r5, ip
  405d0a:	ea4f 441e 	mov.w	r4, lr, lsr #16
  405d0e:	fb0c 5519 	mls	r5, ip, r9, r5
  405d12:	fa1f f883 	uxth.w	r8, r3
  405d16:	ea44 4505 	orr.w	r5, r4, r5, lsl #16
  405d1a:	fb09 f408 	mul.w	r4, r9, r8
  405d1e:	42ac      	cmp	r4, r5
  405d20:	fa02 f201 	lsl.w	r2, r2, r1
  405d24:	fa00 fa01 	lsl.w	sl, r0, r1
  405d28:	d908      	bls.n	405d3c <__udivmoddi4+0x244>
  405d2a:	18ed      	adds	r5, r5, r3
  405d2c:	f109 30ff 	add.w	r0, r9, #4294967295
  405d30:	d243      	bcs.n	405dba <__udivmoddi4+0x2c2>
  405d32:	42ac      	cmp	r4, r5
  405d34:	d941      	bls.n	405dba <__udivmoddi4+0x2c2>
  405d36:	f1a9 0902 	sub.w	r9, r9, #2
  405d3a:	441d      	add	r5, r3
  405d3c:	1b2d      	subs	r5, r5, r4
  405d3e:	fa1f fe8e 	uxth.w	lr, lr
  405d42:	fbb5 f0fc 	udiv	r0, r5, ip
  405d46:	fb0c 5510 	mls	r5, ip, r0, r5
  405d4a:	ea4e 4405 	orr.w	r4, lr, r5, lsl #16
  405d4e:	fb00 f808 	mul.w	r8, r0, r8
  405d52:	45a0      	cmp	r8, r4
  405d54:	d907      	bls.n	405d66 <__udivmoddi4+0x26e>
  405d56:	18e4      	adds	r4, r4, r3
  405d58:	f100 35ff 	add.w	r5, r0, #4294967295
  405d5c:	d229      	bcs.n	405db2 <__udivmoddi4+0x2ba>
  405d5e:	45a0      	cmp	r8, r4
  405d60:	d927      	bls.n	405db2 <__udivmoddi4+0x2ba>
  405d62:	3802      	subs	r0, #2
  405d64:	441c      	add	r4, r3
  405d66:	ea40 4009 	orr.w	r0, r0, r9, lsl #16
  405d6a:	eba4 0408 	sub.w	r4, r4, r8
  405d6e:	fba0 8902 	umull	r8, r9, r0, r2
  405d72:	454c      	cmp	r4, r9
  405d74:	46c6      	mov	lr, r8
  405d76:	464d      	mov	r5, r9
  405d78:	d315      	bcc.n	405da6 <__udivmoddi4+0x2ae>
  405d7a:	d012      	beq.n	405da2 <__udivmoddi4+0x2aa>
  405d7c:	b156      	cbz	r6, 405d94 <__udivmoddi4+0x29c>
  405d7e:	ebba 030e 	subs.w	r3, sl, lr
  405d82:	eb64 0405 	sbc.w	r4, r4, r5
  405d86:	fa04 f707 	lsl.w	r7, r4, r7
  405d8a:	40cb      	lsrs	r3, r1
  405d8c:	431f      	orrs	r7, r3
  405d8e:	40cc      	lsrs	r4, r1
  405d90:	6037      	str	r7, [r6, #0]
  405d92:	6074      	str	r4, [r6, #4]
  405d94:	2100      	movs	r1, #0
  405d96:	e8bd 87f0 	ldmia.w	sp!, {r4, r5, r6, r7, r8, r9, sl, pc}
  405d9a:	4618      	mov	r0, r3
  405d9c:	e6f8      	b.n	405b90 <__udivmoddi4+0x98>
  405d9e:	4690      	mov	r8, r2
  405da0:	e6e0      	b.n	405b64 <__udivmoddi4+0x6c>
  405da2:	45c2      	cmp	sl, r8
  405da4:	d2ea      	bcs.n	405d7c <__udivmoddi4+0x284>
  405da6:	ebb8 0e02 	subs.w	lr, r8, r2
  405daa:	eb69 0503 	sbc.w	r5, r9, r3
  405dae:	3801      	subs	r0, #1
  405db0:	e7e4      	b.n	405d7c <__udivmoddi4+0x284>
  405db2:	4628      	mov	r0, r5
  405db4:	e7d7      	b.n	405d66 <__udivmoddi4+0x26e>
  405db6:	4640      	mov	r0, r8
  405db8:	e791      	b.n	405cde <__udivmoddi4+0x1e6>
  405dba:	4681      	mov	r9, r0
  405dbc:	e7be      	b.n	405d3c <__udivmoddi4+0x244>
  405dbe:	4601      	mov	r1, r0
  405dc0:	e778      	b.n	405cb4 <__udivmoddi4+0x1bc>
  405dc2:	3802      	subs	r0, #2
  405dc4:	443c      	add	r4, r7
  405dc6:	e745      	b.n	405c54 <__udivmoddi4+0x15c>
  405dc8:	4608      	mov	r0, r1
  405dca:	e708      	b.n	405bde <__udivmoddi4+0xe6>
  405dcc:	f1a8 0802 	sub.w	r8, r8, #2
  405dd0:	443d      	add	r5, r7
  405dd2:	e72b      	b.n	405c2c <__udivmoddi4+0x134>

00405dd4 <__aeabi_idiv0>:
  405dd4:	4770      	bx	lr
  405dd6:	bf00      	nop

00405dd8 <CSWTCH.7>:
  405dd8:	0100 0000 0300 0000 0200 0000 4449 454c     ............IDLE
  405de8:	0000 0000 6d54 5172 0000 0000 6d54 2072     ....TmrQ....Tmr 
  405df8:	7653 0063 7953 2073 6e69 7469 6f20 206b     Svc.Sys init ok 
  405e08:	000a 0000 6166 686c 2061 6d65 6320 6972     ....falha em cri
  405e18:	7261 6120 7120 6575 6575 0a20 0000 0000     ar a queue .....
  405e28:	654c 0064 6146 6c69 6465 7420 206f 7263     Led.Failed to cr
  405e38:	6165 6574 7420 7365 2074 656c 2064 6174     eate test led ta
  405e48:	6b73 0a0d 0000 0000 6174 6b73 6c20 6465     sk......task led
  405e58:	6320 6572 7461 6465 0d20 000a 5542 0054      created ...BUT.
  405e68:	6146 6c69 6465 7420 206f 7263 6165 6574     Failed to create
  405e78:	5520 7261 5474 2078 6174 6b73 0a0d 0000      UartTx task....
  405e88:	6174 6b73 6c20 6465 6220 7475 0d20 000a     task led but ...
  405e98:	6174 6b73 625f 7475 203a 6425 0a20 0000     task_but: %d ...
  405ea8:	6345 6f68 7320 6275 6469 0a61 0000 0000     Echo subida.....
  405eb8:	6345 6f68 6420 7365 6963 6164 000a 0000     Echo descida....
  405ec8:	7473 6361 206b 766f 7265 6c66 776f 2520     stack overflow %
  405ed8:	2078 7325 0a0d 0000                         x %s....

00405ee0 <_global_impure_ptr>:
  405ee0:	0018 2040 3130 3332 3534 3736 3938 4241     ..@ 0123456789AB
  405ef0:	4443 4645 0000 0000 3130 3332 3534 3736     CDEF....01234567
  405f00:	3938 6261 6463 6665 0000 0000 6e28 6c75     89abcdef....(nul
  405f10:	296c 0000                                   l)..

00405f14 <blanks.7217>:
  405f14:	2020 2020 2020 2020 2020 2020 2020 2020                     

00405f24 <zeroes.7218>:
  405f24:	3030 3030 3030 3030 3030 3030 3030 3030     0000000000000000
  405f34:	0043 0000 4f50 4953 0058 0000 002e 0000     C...POSIX.......

00405f44 <_ctype_>:
  405f44:	2000 2020 2020 2020 2020 2828 2828 2028     .         ((((( 
  405f54:	2020 2020 2020 2020 2020 2020 2020 2020                     
  405f64:	8820 1010 1010 1010 1010 1010 1010 1010      ...............
  405f74:	0410 0404 0404 0404 0404 1004 1010 1010     ................
  405f84:	1010 4141 4141 4141 0101 0101 0101 0101     ..AAAAAA........
  405f94:	0101 0101 0101 0101 0101 0101 1010 1010     ................
  405fa4:	1010 4242 4242 4242 0202 0202 0202 0202     ..BBBBBB........
  405fb4:	0202 0202 0202 0202 0202 0202 1010 1010     ................
  405fc4:	0020 0000 0000 0000 0000 0000 0000 0000      ...............
	...

00406048 <_init>:
  406048:	b5f8      	push	{r3, r4, r5, r6, r7, lr}
  40604a:	bf00      	nop
  40604c:	bcf8      	pop	{r3, r4, r5, r6, r7}
  40604e:	bc08      	pop	{r3}
  406050:	469e      	mov	lr, r3
  406052:	4770      	bx	lr

00406054 <__init_array_start>:
  406054:	00404739 	.word	0x00404739

00406058 <__frame_dummy_init_array_entry>:
  406058:	00400165                                e.@.

0040605c <_fini>:
  40605c:	b5f8      	push	{r3, r4, r5, r6, r7, lr}
  40605e:	bf00      	nop
  406060:	bcf8      	pop	{r3, r4, r5, r6, r7}
  406062:	bc08      	pop	{r3}
  406064:	469e      	mov	lr, r3
  406066:	4770      	bx	lr

00406068 <__fini_array_start>:
  406068:	00400141 	.word	0x00400141

Disassembly of section .relocate:

20400000 <portable_delay_cycles>:
RAMFUNC
void portable_delay_cycles(unsigned long n)
{
	UNUSED(n);

	__asm (
20400000:	f3bf 8f5f 	dmb	sy
20400004:	3801      	subs	r0, #1
20400006:	d1fb      	bne.n	20400000 <portable_delay_cycles>
20400008:	4770      	bx	lr

2040000a <g_interrupt_enabled>:
2040000a:	0001                                        ..

2040000c <SystemCoreClock>:
2040000c:	0900 003d                                   ..=.

20400010 <uxCriticalNesting>:
20400010:	aaaa aaaa                                   ....

20400014 <_impure_ptr>:
20400014:	0018 2040                                   ..@ 

20400018 <impure_data>:
20400018:	0000 0000 0304 2040 036c 2040 03d4 2040     ......@ l.@ ..@ 
	...
204000c0:	0001 0000 0000 0000 330e abcd 1234 e66d     .........3..4.m.
204000d0:	deec 0005 000b 0000 0000 0000 0000 0000     ................
	...

20400440 <__malloc_av_>:
	...
20400448:	0440 2040 0440 2040 0448 2040 0448 2040     @.@ @.@ H.@ H.@ 
20400458:	0450 2040 0450 2040 0458 2040 0458 2040     P.@ P.@ X.@ X.@ 
20400468:	0460 2040 0460 2040 0468 2040 0468 2040     `.@ `.@ h.@ h.@ 
20400478:	0470 2040 0470 2040 0478 2040 0478 2040     p.@ p.@ x.@ x.@ 
20400488:	0480 2040 0480 2040 0488 2040 0488 2040     ..@ ..@ ..@ ..@ 
20400498:	0490 2040 0490 2040 0498 2040 0498 2040     ..@ ..@ ..@ ..@ 
204004a8:	04a0 2040 04a0 2040 04a8 2040 04a8 2040     ..@ ..@ ..@ ..@ 
204004b8:	04b0 2040 04b0 2040 04b8 2040 04b8 2040     ..@ ..@ ..@ ..@ 
204004c8:	04c0 2040 04c0 2040 04c8 2040 04c8 2040     ..@ ..@ ..@ ..@ 
204004d8:	04d0 2040 04d0 2040 04d8 2040 04d8 2040     ..@ ..@ ..@ ..@ 
204004e8:	04e0 2040 04e0 2040 04e8 2040 04e8 2040     ..@ ..@ ..@ ..@ 
204004f8:	04f0 2040 04f0 2040 04f8 2040 04f8 2040     ..@ ..@ ..@ ..@ 
20400508:	0500 2040 0500 2040 0508 2040 0508 2040     ..@ ..@ ..@ ..@ 
20400518:	0510 2040 0510 2040 0518 2040 0518 2040     ..@ ..@ ..@ ..@ 
20400528:	0520 2040 0520 2040 0528 2040 0528 2040      .@  .@ (.@ (.@ 
20400538:	0530 2040 0530 2040 0538 2040 0538 2040     0.@ 0.@ 8.@ 8.@ 
20400548:	0540 2040 0540 2040 0548 2040 0548 2040     @.@ @.@ H.@ H.@ 
20400558:	0550 2040 0550 2040 0558 2040 0558 2040     P.@ P.@ X.@ X.@ 
20400568:	0560 2040 0560 2040 0568 2040 0568 2040     `.@ `.@ h.@ h.@ 
20400578:	0570 2040 0570 2040 0578 2040 0578 2040     p.@ p.@ x.@ x.@ 
20400588:	0580 2040 0580 2040 0588 2040 0588 2040     ..@ ..@ ..@ ..@ 
20400598:	0590 2040 0590 2040 0598 2040 0598 2040     ..@ ..@ ..@ ..@ 
204005a8:	05a0 2040 05a0 2040 05a8 2040 05a8 2040     ..@ ..@ ..@ ..@ 
204005b8:	05b0 2040 05b0 2040 05b8 2040 05b8 2040     ..@ ..@ ..@ ..@ 
204005c8:	05c0 2040 05c0 2040 05c8 2040 05c8 2040     ..@ ..@ ..@ ..@ 
204005d8:	05d0 2040 05d0 2040 05d8 2040 05d8 2040     ..@ ..@ ..@ ..@ 
204005e8:	05e0 2040 05e0 2040 05e8 2040 05e8 2040     ..@ ..@ ..@ ..@ 
204005f8:	05f0 2040 05f0 2040 05f8 2040 05f8 2040     ..@ ..@ ..@ ..@ 
20400608:	0600 2040 0600 2040 0608 2040 0608 2040     ..@ ..@ ..@ ..@ 
20400618:	0610 2040 0610 2040 0618 2040 0618 2040     ..@ ..@ ..@ ..@ 
20400628:	0620 2040 0620 2040 0628 2040 0628 2040      .@  .@ (.@ (.@ 
20400638:	0630 2040 0630 2040 0638 2040 0638 2040     0.@ 0.@ 8.@ 8.@ 
20400648:	0640 2040 0640 2040 0648 2040 0648 2040     @.@ @.@ H.@ H.@ 
20400658:	0650 2040 0650 2040 0658 2040 0658 2040     P.@ P.@ X.@ X.@ 
20400668:	0660 2040 0660 2040 0668 2040 0668 2040     `.@ `.@ h.@ h.@ 
20400678:	0670 2040 0670 2040 0678 2040 0678 2040     p.@ p.@ x.@ x.@ 
20400688:	0680 2040 0680 2040 0688 2040 0688 2040     ..@ ..@ ..@ ..@ 
20400698:	0690 2040 0690 2040 0698 2040 0698 2040     ..@ ..@ ..@ ..@ 
204006a8:	06a0 2040 06a0 2040 06a8 2040 06a8 2040     ..@ ..@ ..@ ..@ 
204006b8:	06b0 2040 06b0 2040 06b8 2040 06b8 2040     ..@ ..@ ..@ ..@ 
204006c8:	06c0 2040 06c0 2040 06c8 2040 06c8 2040     ..@ ..@ ..@ ..@ 
204006d8:	06d0 2040 06d0 2040 06d8 2040 06d8 2040     ..@ ..@ ..@ ..@ 
204006e8:	06e0 2040 06e0 2040 06e8 2040 06e8 2040     ..@ ..@ ..@ ..@ 
204006f8:	06f0 2040 06f0 2040 06f8 2040 06f8 2040     ..@ ..@ ..@ ..@ 
20400708:	0700 2040 0700 2040 0708 2040 0708 2040     ..@ ..@ ..@ ..@ 
20400718:	0710 2040 0710 2040 0718 2040 0718 2040     ..@ ..@ ..@ ..@ 
20400728:	0720 2040 0720 2040 0728 2040 0728 2040      .@  .@ (.@ (.@ 
20400738:	0730 2040 0730 2040 0738 2040 0738 2040     0.@ 0.@ 8.@ 8.@ 
20400748:	0740 2040 0740 2040 0748 2040 0748 2040     @.@ @.@ H.@ H.@ 
20400758:	0750 2040 0750 2040 0758 2040 0758 2040     P.@ P.@ X.@ X.@ 
20400768:	0760 2040 0760 2040 0768 2040 0768 2040     `.@ `.@ h.@ h.@ 
20400778:	0770 2040 0770 2040 0778 2040 0778 2040     p.@ p.@ x.@ x.@ 
20400788:	0780 2040 0780 2040 0788 2040 0788 2040     ..@ ..@ ..@ ..@ 
20400798:	0790 2040 0790 2040 0798 2040 0798 2040     ..@ ..@ ..@ ..@ 
204007a8:	07a0 2040 07a0 2040 07a8 2040 07a8 2040     ..@ ..@ ..@ ..@ 
204007b8:	07b0 2040 07b0 2040 07b8 2040 07b8 2040     ..@ ..@ ..@ ..@ 
204007c8:	07c0 2040 07c0 2040 07c8 2040 07c8 2040     ..@ ..@ ..@ ..@ 
204007d8:	07d0 2040 07d0 2040 07d8 2040 07d8 2040     ..@ ..@ ..@ ..@ 
204007e8:	07e0 2040 07e0 2040 07e8 2040 07e8 2040     ..@ ..@ ..@ ..@ 
204007f8:	07f0 2040 07f0 2040 07f8 2040 07f8 2040     ..@ ..@ ..@ ..@ 
20400808:	0800 2040 0800 2040 0808 2040 0808 2040     ..@ ..@ ..@ ..@ 
20400818:	0810 2040 0810 2040 0818 2040 0818 2040     ..@ ..@ ..@ ..@ 
20400828:	0820 2040 0820 2040 0828 2040 0828 2040      .@  .@ (.@ (.@ 
20400838:	0830 2040 0830 2040 0838 2040 0838 2040     0.@ 0.@ 8.@ 8.@ 

20400848 <__malloc_sbrk_base>:
20400848:	ffff ffff                                   ....

2040084c <__malloc_trim_threshold>:
2040084c:	0000 0002                                   ....

20400850 <__atexit_recursive_mutex>:
20400850:	0c28 2040                                   (.@ 

20400854 <__global_locale>:
20400854:	0043 0000 0000 0000 0000 0000 0000 0000     C...............
	...
20400874:	0043 0000 0000 0000 0000 0000 0000 0000     C...............
	...
20400894:	0043 0000 0000 0000 0000 0000 0000 0000     C...............
	...
204008b4:	0043 0000 0000 0000 0000 0000 0000 0000     C...............
	...
204008d4:	0043 0000 0000 0000 0000 0000 0000 0000     C...............
	...
204008f4:	0043 0000 0000 0000 0000 0000 0000 0000     C...............
	...
20400914:	0043 0000 0000 0000 0000 0000 0000 0000     C...............
	...
20400934:	5831 0040 51c1 0040 0000 0000 5f44 0040     1X@..Q@.....D_@.
20400944:	5f40 0040 5e4c 0040 5e4c 0040 5e4c 0040     @_@.L^@.L^@.L^@.
20400954:	5e4c 0040 5e4c 0040 5e4c 0040 5e4c 0040     L^@.L^@.L^@.L^@.
20400964:	5e4c 0040 5e4c 0040 ffff ffff ffff ffff     L^@.L^@.........
20400974:	ffff ffff ffff 0000 0001 5341 4943 0049     ..........ASCII.
	...
2040099c:	0000 5341 4943 0049 0000 0000 0000 0000     ..ASCII.........
	...
